; Listing generated by Microsoft (R) Optimizing Compiler Version 19.38.33135.0 

include listing.inc

INCLUDELIB MSVCRTD
INCLUDELIB OLDNAMES

msvcjmc	SEGMENT
__6628E330_concurrencysal@h DB 01H
__DD735C24_sal@h DB 01H
__95D07812_vadefs@h DB 01H
__2C966F75_vcruntime@h DB 01H
__C84B2A68_xkeycheck@h DB 01H
__E4981F91_yvals_core@h DB 01H
__1B0272D9_corecrt@h DB 01H
__50BF2FAA_vcruntime_new@h DB 01H
__973DD6D2_vcruntime_new_debug@h DB 01H
__935DC21B_crtdbg@h DB 01H
__EA84BEDA_crtdefs@h DB 01H
__7A2C09FE_use_ansi@h DB 01H
__B806B4B7_yvals@h DB 01H
__44420885_corecrt_stdio_config@h DB 01H
__AB601D8D_corecrt_wstdio@h DB 01H
__C1EC35D3_stdio@h DB 01H
__099E6B1A_cstdio DB 01H
__8ECB7138_corecrt_share@h DB 01H
__F7972D0B_share@h DB 01H
__13F5961F_stddef@h DB 01H
__81223BB7_xtr1common DB 01H
__AB8DD8A5_cstddef DB 01H
__C9486F03___msvc_system_error_abi@hpp DB 01H
__61CC25A1_errno@h DB 01H
__94BF1FE1_cerrno DB 01H
__BB16330F_corecrt_math@h DB 01H
__3BF2A406_math@h DB 01H
__45DED006_corecrt_malloc@h DB 01H
__FD6DBD68_corecrt_search@h DB 01H
__E2E33A61_corecrt_wstdlib@h DB 01H
__53AB384B_limits@h DB 01H
__6E5ACABA_stdlib@h DB 01H
__0E460208_cstdlib DB 01H
__EDDD1674_stdint@h DB 01H
__B318E375_cstdint DB 01H
__86E2ECA3_type_traits DB 01H
__FA77ED4C_malloc@h DB 01H
__89766DA4_corecrt_terminate@h DB 01H
__597317E9_eh@h DB 01H
__9FD3D380_vcruntime_exception@h DB 01H
__22DBD04C_exception DB 01H
__FFDAFD70___msvc_sanitizer_annotate_container@hpp DB 01H
__21B98AC3_vcruntime_string@h DB 01H
__E4C945B4_corecrt_memcpy_s@h DB 01H
__8EAFF484_corecrt_memory@h DB 01H
__6490AEC5_corecrt_wstring@h DB 01H
__E8295E1E_string@h DB 01H
__42D4AAE8_cstring DB 01H
__EF1F6BBA_corecrt_wconio@h DB 01H
__74484FB3_corecrt_wctype@h DB 01H
__3D1D430C_corecrt_wdirect@h DB 01H
__DB7FEBA6_corecrt_wio@h DB 01H
__9A9F0068_corecrt_wprocess@h DB 01H
__369A9BC3_corecrt_wtime@h DB 01H
__CE789B9D_types@h DB 01H
__9901C817_stat@h DB 01H
__3FCAD62E_wchar@h DB 01H
__9315BD49_cwchar DB 01H
__D0D5387F_iosfwd DB 01H
__B9985323_float@h DB 01H
__7ADAA09D_cfloat DB 01H
__8AA920FA_climits DB 01H
__2FEC17FD_intrin0@inl@h DB 01H
__F3A907D1_intrin0@h DB 01H
__1C3CEDF9_limits DB 01H
__6B6686E8_new DB 01H
__28D75C9A_xatomic@h DB 01H
__7CEE9503_initializer_list DB 01H
__05AD8743_concepts DB 01H
__F75338B9_compare DB 01H
__394B8783_utility DB 01H
__6CD66C6A___msvc_iter_core@hpp DB 01H
__81056E89_xutility DB 01H
__19EA4BD2_tuple DB 01H
__53DEE440_xmemory DB 01H
__C1E54F69_xpolymorphic_allocator@h DB 01H
__270D62DC_xstring DB 01H
__AB95EA11_stdexcept DB 01H
__A700C1C1_xcall_once@h DB 01H
__1093A1B8_xerrc@h DB 01H
__8E83AFDB_xatomic_wait@h DB 01H
__0A9237D2_time@h DB 01H
__797ACE9B_ctime DB 01H
__37C18DC8_xtimec@h DB 01H
__1B623E4D_xthreads@h DB 01H
__7709B13B_atomic DB 01H
__185DD3E1_system_error DB 01H
__78388AF5_vcruntime_typeinfo@h DB 01H
__F1DA9D90_typeinfo DB 01H
__A092E177_memory DB 01H
__8CD7B678_xfacet DB 01H
__8B91FF0A___msvc_xlocinfo_types@hpp DB 01H
__1EC467ED_ctype@h DB 01H
__06558CBD_cctype DB 01H
__791C33B7_locale@h DB 01H
__9DEADED9_clocale DB 01H
__EE537E58_xlocinfo DB 01H
__F83316ED_xlocale DB 01H
__D7B6094B_xiosbase DB 01H
__A93552AD_streambuf DB 01H
__AD982FC2___msvc_filebuf@hpp DB 01H
__BFC95293_cmath DB 01H
__90A9D9C9_iterator DB 01H
__66B470FA_xlocnum DB 01H
__93ABBCFE_ios DB 01H
__EB23CC29_ostream DB 01H
__88F3F913_istream DB 01H
__7EBB89FA_fstream DB 01H
__C8179298_algorithm DB 01H
__D37ACB3D_ratio DB 01H
__368A71EB___msvc_chrono@hpp DB 01H
__DE87ED23_xfilesystem_abi@h DB 01H
__EA190C3F___msvc_tzdb@hpp DB 01H
__23BB31BF_forward_list DB 01H
__863D0478_xsmf_control@h DB 01H
__E8D1C288_optional DB 01H
__D44167EB_string DB 01H
__4B5D3A93_sstream DB 01H
__187EA84C___msvc_bit_utils@hpp DB 01H
__51919D19_vector DB 01H
__4A4ED74A_xloctime DB 01H
__C8CB7150___msvc_format_ucd_tables@hpp DB 01H
__A07C8C4C___msvc_print@hpp DB 01H
__57C0613A_bit DB 01H
__AE686A70_xbit_ops@h DB 01H
__82C730B3_xcharconv@h DB 01H
__D48FA755_xcharconv_ryu_tables@h DB 01H
__4AEC53CD_xcharconv_ryu@h DB 01H
__E350A92B_xcharconv_tables@h DB 01H
__9E8A00EF_charconv DB 01H
__F87C5016_xlocbuf DB 01H
__D43FE191_xlocmes DB 01H
__4DD665C2_xlocmon DB 01H
__0B7F13DA_locale DB 01H
__9445A79D_format DB 01H
__74313F41_iomanip DB 01H
__78D1EB73_chrono DB 01H
__77C0A0AD_filesystem DB 01H
__E37C1496_iostream DB 01H
__6E434CEF_vcruntime_startup@h DB 01H
__005E73E1_corecrt_startup@h DB 01H
__8B12B2C4_process@h DB 01H
__4CE3A781_stop_token DB 01H
__7BDF99C1_thread DB 01H
__B3D148E0_deque DB 01H
__50E70C21_queue DB 01H
__C1D7C16D_mutex DB 01H
__3EAD4D02_list DB 01H
__DA916AFB_xnode_handle@h DB 01H
__D06692F5_xhash DB 01H
__43E0D473_unordered_map DB 01H
__7931BFA6_functional DB 01H
__82DE502A_includes@h DB 01H
__EB3D323B_thread_pool@h DB 01H
__A50BEB60_filemanip@h DB 01H
__214A1277_filemanip@cpp DB 01H
__6A59E0E5_predefined C++ types (compiler internal) DB 01H
msvcjmc	ENDS
PUBLIC	?__empty_global_delete@@YAXPEAX@Z		; __empty_global_delete
PUBLIC	?__empty_global_delete@@YAXPEAX_K@Z		; __empty_global_delete
PUBLIC	?__empty_global_delete@@YAXPEAXW4align_val_t@std@@@Z ; __empty_global_delete
PUBLIC	?__empty_global_delete@@YAXPEAX_KW4align_val_t@std@@@Z ; __empty_global_delete
PUBLIC	??2@YAPEAX_KPEAX@Z				; operator new
PUBLIC	?is_constant_evaluated@std@@YA_NXZ		; std::is_constant_evaluated
PUBLIC	??0exception@std@@QEAA@QEBD@Z			; std::exception::exception
PUBLIC	??0exception@std@@QEAA@QEBDH@Z			; std::exception::exception
PUBLIC	??0exception@std@@QEAA@AEBV01@@Z		; std::exception::exception
PUBLIC	??1exception@std@@UEAA@XZ			; std::exception::~exception
PUBLIC	?what@exception@std@@UEBAPEBDXZ			; std::exception::what
PUBLIC	??_Gexception@std@@UEAAPEAXI@Z			; std::exception::`scalar deleting destructor'
PUBLIC	??0bad_alloc@std@@AEAA@QEBD@Z			; std::bad_alloc::bad_alloc
PUBLIC	??1bad_alloc@std@@UEAA@XZ			; std::bad_alloc::~bad_alloc
PUBLIC	??0bad_alloc@std@@QEAA@AEBV01@@Z		; std::bad_alloc::bad_alloc
PUBLIC	??_Gbad_alloc@std@@UEAAPEAXI@Z			; std::bad_alloc::`scalar deleting destructor'
PUBLIC	??0bad_array_new_length@std@@QEAA@XZ		; std::bad_array_new_length::bad_array_new_length
PUBLIC	??1bad_array_new_length@std@@UEAA@XZ		; std::bad_array_new_length::~bad_array_new_length
PUBLIC	??0bad_array_new_length@std@@QEAA@AEBV01@@Z	; std::bad_array_new_length::bad_array_new_length
PUBLIC	??_Gbad_array_new_length@std@@UEAAPEAXI@Z	; std::bad_array_new_length::`scalar deleting destructor'
PUBLIC	?_Throw_bad_array_new_length@std@@YAXXZ		; std::_Throw_bad_array_new_length
PUBLIC	wmemcpy
PUBLIC	wmemset
PUBLIC	?max@?$numeric_limits@_J@std@@SA_JXZ		; std::numeric_limits<__int64>::max
PUBLIC	?_Allocate@_Default_allocate_traits@std@@SAPEAX_K@Z ; std::_Default_allocate_traits::_Allocate
PUBLIC	?_Adjust_manually_vector_aligned@std@@YAXAEAPEAXAEA_K@Z ; std::_Adjust_manually_vector_aligned
PUBLIC	??0_Container_proxy@std@@QEAA@PEAU_Container_base12@1@@Z ; std::_Container_proxy::_Container_proxy
PUBLIC	??0_Container_base12@std@@QEAA@XZ		; std::_Container_base12::_Container_base12
PUBLIC	?_Orphan_all@_Container_base12@std@@QEAAXXZ	; std::_Container_base12::_Orphan_all
PUBLIC	?_Swap_proxy_and_iterators@_Container_base12@std@@QEAAXAEAU12@@Z ; std::_Container_base12::_Swap_proxy_and_iterators
PUBLIC	?_Orphan_all_unlocked_v3@_Container_base12@std@@AEAAXXZ ; std::_Container_base12::_Orphan_all_unlocked_v3
PUBLIC	?_Swap_proxy_and_iterators_unlocked@_Container_base12@std@@AEAAXAEAU12@@Z ; std::_Container_base12::_Swap_proxy_and_iterators_unlocked
PUBLIC	?_Orphan_all_locked_v3@_Container_base12@std@@AEAAXXZ ; std::_Container_base12::_Orphan_all_locked_v3
PUBLIC	?_Swap_proxy_and_iterators_locked@_Container_base12@std@@AEAAXAEAU12@@Z ; std::_Container_base12::_Swap_proxy_and_iterators_locked
PUBLIC	??0_Iterator_base12@std@@QEAA@XZ		; std::_Iterator_base12::_Iterator_base12
PUBLIC	??0_Iterator_base12@std@@QEAA@AEBU01@@Z		; std::_Iterator_base12::_Iterator_base12
PUBLIC	??4_Iterator_base12@std@@QEAAAEAU01@AEBU01@@Z	; std::_Iterator_base12::operator=
PUBLIC	??1_Iterator_base12@std@@QEAA@XZ		; std::_Iterator_base12::~_Iterator_base12
PUBLIC	?_Adopt@_Iterator_base12@std@@QEAAXPEBU_Container_base12@2@@Z ; std::_Iterator_base12::_Adopt
PUBLIC	?_Getcont@_Iterator_base12@std@@QEBAPEBU_Container_base12@2@XZ ; std::_Iterator_base12::_Getcont
PUBLIC	?_Assign_unlocked@_Iterator_base12@std@@AEAAXAEBU12@@Z ; std::_Iterator_base12::_Assign_unlocked
PUBLIC	?_Assign_locked@_Iterator_base12@std@@AEAAXAEBU12@@Z ; std::_Iterator_base12::_Assign_locked
PUBLIC	?_Adopt_unlocked@_Iterator_base12@std@@AEAAXPEBU_Container_base12@2@@Z ; std::_Iterator_base12::_Adopt_unlocked
PUBLIC	?_Adopt_locked@_Iterator_base12@std@@AEAAXPEBU_Container_base12@2@@Z ; std::_Iterator_base12::_Adopt_locked
PUBLIC	?_Orphan_me_unlocked_v3@_Iterator_base12@std@@AEAAXXZ ; std::_Iterator_base12::_Orphan_me_unlocked_v3
PUBLIC	?_Orphan_me_locked_v3@_Iterator_base12@std@@AEAAXXZ ; std::_Iterator_base12::_Orphan_me_locked_v3
PUBLIC	??$exchange@PEAU_Iterator_base12@std@@$$T@std@@YAPEAU_Iterator_base12@0@AEAPEAU10@$$QEA$$T@Z ; std::exchange<std::_Iterator_base12 *,std::nullptr_t>
PUBLIC	?_Release@_Basic_container_proxy_ptr12@std@@QEAAXXZ ; std::_Basic_container_proxy_ptr12::_Release
PUBLIC	??0_Basic_container_proxy_ptr12@std@@IEAA@XZ	; std::_Basic_container_proxy_ptr12::_Basic_container_proxy_ptr12
PUBLIC	??$addressof@U_Container_base12@std@@@std@@YAPEAU_Container_base12@0@AEAU10@@Z ; std::addressof<std::_Container_base12>
PUBLIC	??$_Construct_in_place@U_Container_proxy@std@@PEAU_Container_base12@2@@std@@YAXAEAU_Container_proxy@0@$$QEAPEAU_Container_base12@0@@Z ; std::_Construct_in_place<std::_Container_proxy,std::_Container_base12 *>
PUBLIC	?copy@?$_Char_traits@_WG@std@@SAPEA_WQEA_WQEB_W_K@Z ; std::_Char_traits<wchar_t,unsigned short>::copy
PUBLIC	?move@?$_Char_traits@_WG@std@@SAPEA_WQEA_WQEB_W_K@Z ; std::_Char_traits<wchar_t,unsigned short>::move
PUBLIC	?assign@?$_Char_traits@_WG@std@@SAPEA_WQEA_W_K_W@Z ; std::_Char_traits<wchar_t,unsigned short>::assign
PUBLIC	?assign@?$_Char_traits@_WG@std@@SAXAEA_WAEB_W@Z	; std::_Char_traits<wchar_t,unsigned short>::assign
PUBLIC	?compare@?$_WChar_traits@_W@std@@SAHQEB_W0_K@Z	; std::_WChar_traits<wchar_t>::compare
PUBLIC	?length@?$_WChar_traits@_W@std@@SA_KPEB_W@Z	; std::_WChar_traits<wchar_t>::length
PUBLIC	?assign@?$_WChar_traits@_W@std@@SAPEA_WQEA_W_K_W@Z ; std::_WChar_traits<wchar_t>::assign
PUBLIC	?assign@?$_WChar_traits@_W@std@@SAXAEA_WAEB_W@Z	; std::_WChar_traits<wchar_t>::assign
PUBLIC	?copy@?$_Char_traits@DH@std@@SAPEADQEADQEBD_K@Z	; std::_Char_traits<char,int>::copy
PUBLIC	?move@?$_Char_traits@DH@std@@SAPEADQEADQEBD_K@Z	; std::_Char_traits<char,int>::move
PUBLIC	?assign@?$_Char_traits@DH@std@@SAPEADQEAD_KD@Z	; std::_Char_traits<char,int>::assign
PUBLIC	?assign@?$_Char_traits@DH@std@@SAXAEADAEBD@Z	; std::_Char_traits<char,int>::assign
PUBLIC	?compare@?$_Narrow_char_traits@DH@std@@SAHQEBD0_K@Z ; std::_Narrow_char_traits<char,int>::compare
PUBLIC	?length@?$_Narrow_char_traits@DH@std@@SA_KQEBD@Z ; std::_Narrow_char_traits<char,int>::length
PUBLIC	?assign@?$_Narrow_char_traits@DH@std@@SAPEADQEAD_KD@Z ; std::_Narrow_char_traits<char,int>::assign
PUBLIC	?assign@?$_Narrow_char_traits@DH@std@@SAXAEADAEBD@Z ; std::_Narrow_char_traits<char,int>::assign
PUBLIC	?to_char_type@?$_Narrow_char_traits@DH@std@@SADH@Z ; std::_Narrow_char_traits<char,int>::to_char_type
PUBLIC	?to_int_type@?$_Narrow_char_traits@DH@std@@SAHD@Z ; std::_Narrow_char_traits<char,int>::to_int_type
PUBLIC	?eq_int_type@?$_Narrow_char_traits@DH@std@@SA_NHH@Z ; std::_Narrow_char_traits<char,int>::eq_int_type
PUBLIC	?not_eof@?$_Narrow_char_traits@DH@std@@SAHH@Z	; std::_Narrow_char_traits<char,int>::not_eof
PUBLIC	?eof@?$_Narrow_char_traits@DH@std@@SAHXZ	; std::_Narrow_char_traits<char,int>::eof
PUBLIC	??__Ksv@string_view_literals@literals@std@@YA?AV?$basic_string_view@DU?$char_traits@D@std@@@3@PEBD_K@Z ; std::literals::string_view_literals::operator "" sv
PUBLIC	??0?$basic_string_view@DU?$char_traits@D@std@@@std@@QEAA@QEBD@Z ; std::basic_string_view<char,std::char_traits<char> >::basic_string_view<char,std::char_traits<char> >
PUBLIC	??0?$basic_string_view@DU?$char_traits@D@std@@@std@@QEAA@QEBD_K@Z ; std::basic_string_view<char,std::char_traits<char> >::basic_string_view<char,std::char_traits<char> >
PUBLIC	?size@?$basic_string_view@DU?$char_traits@D@std@@@std@@QEBA_KXZ ; std::basic_string_view<char,std::char_traits<char> >::size
PUBLIC	?empty@?$basic_string_view@DU?$char_traits@D@std@@@std@@QEBA_NXZ ; std::basic_string_view<char,std::char_traits<char> >::empty
PUBLIC	?data@?$basic_string_view@DU?$char_traits@D@std@@@std@@QEBAPEBDXZ ; std::basic_string_view<char,std::char_traits<char> >::data
PUBLIC	?__autoclassinit2@?$basic_string_view@DU?$char_traits@D@std@@@std@@QEAAX_K@Z ; std::basic_string_view<char,std::char_traits<char> >::__autoclassinit2
PUBLIC	??__Ksv@string_view_literals@literals@std@@YA?AV?$basic_string_view@_WU?$char_traits@_W@std@@@3@PEB_W_K@Z ; std::literals::string_view_literals::operator "" sv
PUBLIC	??0?$basic_string_view@_WU?$char_traits@_W@std@@@std@@QEAA@QEB_W@Z ; std::basic_string_view<wchar_t,std::char_traits<wchar_t> >::basic_string_view<wchar_t,std::char_traits<wchar_t> >
PUBLIC	??0?$basic_string_view@_WU?$char_traits@_W@std@@@std@@QEAA@QEB_W_K@Z ; std::basic_string_view<wchar_t,std::char_traits<wchar_t> >::basic_string_view<wchar_t,std::char_traits<wchar_t> >
PUBLIC	?size@?$basic_string_view@_WU?$char_traits@_W@std@@@std@@QEBA_KXZ ; std::basic_string_view<wchar_t,std::char_traits<wchar_t> >::size
PUBLIC	?empty@?$basic_string_view@_WU?$char_traits@_W@std@@@std@@QEBA_NXZ ; std::basic_string_view<wchar_t,std::char_traits<wchar_t> >::empty
PUBLIC	?data@?$basic_string_view@_WU?$char_traits@_W@std@@@std@@QEBAPEB_WXZ ; std::basic_string_view<wchar_t,std::char_traits<wchar_t> >::data
PUBLIC	?__autoclassinit2@?$basic_string_view@_WU?$char_traits@_W@std@@@std@@QEAAX_K@Z ; std::basic_string_view<wchar_t,std::char_traits<wchar_t> >::__autoclassinit2
PUBLIC	?_Xlen_string@std@@YAXXZ			; std::_Xlen_string
PUBLIC	??0?$allocator@D@std@@QEAA@XZ			; std::allocator<char>::allocator<char>
PUBLIC	?deallocate@?$allocator@D@std@@QEAAXQEAD_K@Z	; std::allocator<char>::deallocate
PUBLIC	?allocate@?$allocator@D@std@@QEAAPEAD_K@Z	; std::allocator<char>::allocate
PUBLIC	?max_size@?$_Default_allocator_traits@V?$allocator@D@std@@@std@@SA_KAEBV?$allocator@D@2@@Z ; std::_Default_allocator_traits<std::allocator<char> >::max_size
PUBLIC	?select_on_container_copy_construction@?$_Default_allocator_traits@V?$allocator@D@std@@@std@@SA?AV?$allocator@D@2@AEBV32@@Z ; std::_Default_allocator_traits<std::allocator<char> >::select_on_container_copy_construction
PUBLIC	??0?$_String_val@U?$_Simple_types@D@std@@@std@@QEAA@XZ ; std::_String_val<std::_Simple_types<char> >::_String_val<std::_Simple_types<char> >
PUBLIC	?_Myptr@?$_String_val@U?$_Simple_types@D@std@@@std@@QEAAPEADXZ ; std::_String_val<std::_Simple_types<char> >::_Myptr
PUBLIC	?_Myptr@?$_String_val@U?$_Simple_types@D@std@@@std@@QEBAPEBDXZ ; std::_String_val<std::_Simple_types<char> >::_Myptr
PUBLIC	?_Large_mode_engaged@?$_String_val@U?$_Simple_types@D@std@@@std@@QEBA_NXZ ; std::_String_val<std::_Simple_types<char> >::_Large_mode_engaged
PUBLIC	?_Activate_SSO_buffer@?$_String_val@U?$_Simple_types@D@std@@@std@@QEAAXXZ ; std::_String_val<std::_Simple_types<char> >::_Activate_SSO_buffer
PUBLIC	?_Check_offset@?$_String_val@U?$_Simple_types@D@std@@@std@@QEBAX_K@Z ; std::_String_val<std::_Simple_types<char> >::_Check_offset
PUBLIC	?_Xran@?$_String_val@U?$_Simple_types@D@std@@@std@@SAXXZ ; std::_String_val<std::_Simple_types<char> >::_Xran
PUBLIC	?_Clamp_suffix_size@?$_String_val@U?$_Simple_types@D@std@@@std@@QEBA_K_K0@Z ; std::_String_val<std::_Simple_types<char> >::_Clamp_suffix_size
PUBLIC	??0_Bxty@?$_String_val@U?$_Simple_types@D@std@@@std@@QEAA@XZ ; std::_String_val<std::_Simple_types<char> >::_Bxty::_Bxty
PUBLIC	??1_Bxty@?$_String_val@U?$_Simple_types@D@std@@@std@@QEAA@XZ ; std::_String_val<std::_Simple_types<char> >::_Bxty::~_Bxty
PUBLIC	??1?$_String_val@U?$_Simple_types@D@std@@@std@@QEAA@XZ ; std::_String_val<std::_Simple_types<char> >::~_String_val<std::_Simple_types<char> >
PUBLIC	??0?$basic_string@DU?$char_traits@D@std@@V?$allocator@D@2@@std@@QEAA@XZ ; std::basic_string<char,std::char_traits<char>,std::allocator<char> >::basic_string<char,std::char_traits<char>,std::allocator<char> >
PUBLIC	??0?$basic_string@DU?$char_traits@D@std@@V?$allocator@D@2@@std@@QEAA@AEBV?$allocator@D@1@@Z ; std::basic_string<char,std::char_traits<char>,std::allocator<char> >::basic_string<char,std::char_traits<char>,std::allocator<char> >
PUBLIC	??0?$basic_string@DU?$char_traits@D@std@@V?$allocator@D@2@@std@@QEAA@AEBV01@@Z ; std::basic_string<char,std::char_traits<char>,std::allocator<char> >::basic_string<char,std::char_traits<char>,std::allocator<char> >
PUBLIC	??0?$basic_string@DU?$char_traits@D@std@@V?$allocator@D@2@@std@@QEAA@QEBD_K@Z ; std::basic_string<char,std::char_traits<char>,std::allocator<char> >::basic_string<char,std::char_traits<char>,std::allocator<char> >
PUBLIC	??0?$basic_string@DU?$char_traits@D@std@@V?$allocator@D@2@@std@@QEAA@QEBD@Z ; std::basic_string<char,std::char_traits<char>,std::allocator<char> >::basic_string<char,std::char_traits<char>,std::allocator<char> >
PUBLIC	?_Deallocate_for_capacity@?$basic_string@DU?$char_traits@D@std@@V?$allocator@D@2@@std@@CAXAEAV?$allocator@D@2@QEAD_K@Z ; std::basic_string<char,std::char_traits<char>,std::allocator<char> >::_Deallocate_for_capacity
PUBLIC	??0?$basic_string@DU?$char_traits@D@std@@V?$allocator@D@2@@std@@QEAA@$$QEAV01@@Z ; std::basic_string<char,std::char_traits<char>,std::allocator<char> >::basic_string<char,std::char_traits<char>,std::allocator<char> >
PUBLIC	??4?$basic_string@DU?$char_traits@D@std@@V?$allocator@D@2@@std@@QEAAAEAV01@$$QEAV01@@Z ; std::basic_string<char,std::char_traits<char>,std::allocator<char> >::operator=
PUBLIC	?_Memcpy_val_from@?$basic_string@DU?$char_traits@D@std@@V?$allocator@D@2@@std@@AEAAXAEBV12@@Z ; std::basic_string<char,std::char_traits<char>,std::allocator<char> >::_Memcpy_val_from
PUBLIC	?_Take_contents@?$basic_string@DU?$char_traits@D@std@@V?$allocator@D@2@@std@@AEAAXAEAV12@@Z ; std::basic_string<char,std::char_traits<char>,std::allocator<char> >::_Take_contents
PUBLIC	??1?$basic_string@DU?$char_traits@D@std@@V?$allocator@D@2@@std@@QEAA@XZ ; std::basic_string<char,std::char_traits<char>,std::allocator<char> >::~basic_string<char,std::char_traits<char>,std::allocator<char> >
PUBLIC	??Y?$basic_string@DU?$char_traits@D@std@@V?$allocator@D@2@@std@@QEAAAEAV01@AEBV01@@Z ; std::basic_string<char,std::char_traits<char>,std::allocator<char> >::operator+=
PUBLIC	??Y?$basic_string@DU?$char_traits@D@std@@V?$allocator@D@2@@std@@QEAAAEAV01@D@Z ; std::basic_string<char,std::char_traits<char>,std::allocator<char> >::operator+=
PUBLIC	?append@?$basic_string@DU?$char_traits@D@std@@V?$allocator@D@2@@std@@QEAAAEAV12@AEBV12@@Z ; std::basic_string<char,std::char_traits<char>,std::allocator<char> >::append
PUBLIC	?append@?$basic_string@DU?$char_traits@D@std@@V?$allocator@D@2@@std@@QEAAAEAV12@QEBD_K@Z ; std::basic_string<char,std::char_traits<char>,std::allocator<char> >::append
PUBLIC	?append@?$basic_string@DU?$char_traits@D@std@@V?$allocator@D@2@@std@@QEAAAEAV12@QEBD@Z ; std::basic_string<char,std::char_traits<char>,std::allocator<char> >::append
PUBLIC	?append@?$basic_string@DU?$char_traits@D@std@@V?$allocator@D@2@@std@@QEAAAEAV12@_KD@Z ; std::basic_string<char,std::char_traits<char>,std::allocator<char> >::append
PUBLIC	?erase@?$basic_string@DU?$char_traits@D@std@@V?$allocator@D@2@@std@@QEAAAEAV12@_K@Z ; std::basic_string<char,std::char_traits<char>,std::allocator<char> >::erase
PUBLIC	?_Erase_noexcept@?$basic_string@DU?$char_traits@D@std@@V?$allocator@D@2@@std@@AEAAAEAV12@_K_K@Z ; std::basic_string<char,std::char_traits<char>,std::allocator<char> >::_Erase_noexcept
PUBLIC	?erase@?$basic_string@DU?$char_traits@D@std@@V?$allocator@D@2@@std@@QEAAAEAV12@_K0@Z ; std::basic_string<char,std::char_traits<char>,std::allocator<char> >::erase
PUBLIC	?begin@?$basic_string@DU?$char_traits@D@std@@V?$allocator@D@2@@std@@QEAA?AV?$_String_iterator@V?$_String_val@U?$_Simple_types@D@std@@@std@@@2@XZ ; std::basic_string<char,std::char_traits<char>,std::allocator<char> >::begin
PUBLIC	?end@?$basic_string@DU?$char_traits@D@std@@V?$allocator@D@2@@std@@QEAA?AV?$_String_iterator@V?$_String_val@U?$_Simple_types@D@std@@@std@@@2@XZ ; std::basic_string<char,std::char_traits<char>,std::allocator<char> >::end
PUBLIC	?push_back@?$basic_string@DU?$char_traits@D@std@@V?$allocator@D@2@@std@@QEAAXD@Z ; std::basic_string<char,std::char_traits<char>,std::allocator<char> >::push_back
PUBLIC	?front@?$basic_string@DU?$char_traits@D@std@@V?$allocator@D@2@@std@@QEAAAEADXZ ; std::basic_string<char,std::char_traits<char>,std::allocator<char> >::front
PUBLIC	?c_str@?$basic_string@DU?$char_traits@D@std@@V?$allocator@D@2@@std@@QEBAPEBDXZ ; std::basic_string<char,std::char_traits<char>,std::allocator<char> >::c_str
PUBLIC	?data@?$basic_string@DU?$char_traits@D@std@@V?$allocator@D@2@@std@@QEBAPEBDXZ ; std::basic_string<char,std::char_traits<char>,std::allocator<char> >::data
PUBLIC	?data@?$basic_string@DU?$char_traits@D@std@@V?$allocator@D@2@@std@@QEAAPEADXZ ; std::basic_string<char,std::char_traits<char>,std::allocator<char> >::data
PUBLIC	?size@?$basic_string@DU?$char_traits@D@std@@V?$allocator@D@2@@std@@QEBA_KXZ ; std::basic_string<char,std::char_traits<char>,std::allocator<char> >::size
PUBLIC	?max_size@?$basic_string@DU?$char_traits@D@std@@V?$allocator@D@2@@std@@QEBA_KXZ ; std::basic_string<char,std::char_traits<char>,std::allocator<char> >::max_size
PUBLIC	?resize@?$basic_string@DU?$char_traits@D@std@@V?$allocator@D@2@@std@@QEAAX_KD@Z ; std::basic_string<char,std::char_traits<char>,std::allocator<char> >::resize
PUBLIC	?reserve@?$basic_string@DU?$char_traits@D@std@@V?$allocator@D@2@@std@@QEAAX_K@Z ; std::basic_string<char,std::char_traits<char>,std::allocator<char> >::reserve
PUBLIC	?empty@?$basic_string@DU?$char_traits@D@std@@V?$allocator@D@2@@std@@QEBA_NXZ ; std::basic_string<char,std::char_traits<char>,std::allocator<char> >::empty
PUBLIC	?_Equal@?$basic_string@DU?$char_traits@D@std@@V?$allocator@D@2@@std@@QEBA_NAEBV12@@Z ; std::basic_string<char,std::char_traits<char>,std::allocator<char> >::_Equal
PUBLIC	?_Equal@?$basic_string@DU?$char_traits@D@std@@V?$allocator@D@2@@std@@QEBA_NQEBD@Z ; std::basic_string<char,std::char_traits<char>,std::allocator<char> >::_Equal
PUBLIC	?_Calculate_growth@?$basic_string@DU?$char_traits@D@std@@V?$allocator@D@2@@std@@CA_K_K00@Z ; std::basic_string<char,std::char_traits<char>,std::allocator<char> >::_Calculate_growth
PUBLIC	?_Calculate_growth@?$basic_string@DU?$char_traits@D@std@@V?$allocator@D@2@@std@@AEBA_K_K@Z ; std::basic_string<char,std::char_traits<char>,std::allocator<char> >::_Calculate_growth
PUBLIC	?_Eos@?$basic_string@DU?$char_traits@D@std@@V?$allocator@D@2@@std@@AEAAX_K@Z ; std::basic_string<char,std::char_traits<char>,std::allocator<char> >::_Eos
PUBLIC	?_Tidy_init@?$basic_string@DU?$char_traits@D@std@@V?$allocator@D@2@@std@@AEAAXXZ ; std::basic_string<char,std::char_traits<char>,std::allocator<char> >::_Tidy_init
PUBLIC	?_Tidy_deallocate@?$basic_string@DU?$char_traits@D@std@@V?$allocator@D@2@@std@@AEAAXXZ ; std::basic_string<char,std::char_traits<char>,std::allocator<char> >::_Tidy_deallocate
PUBLIC	?_Swap_proxy_and_iterators@?$basic_string@DU?$char_traits@D@std@@V?$allocator@D@2@@std@@AEAAXAEAV12@@Z ; std::basic_string<char,std::char_traits<char>,std::allocator<char> >::_Swap_proxy_and_iterators
PUBLIC	?_Getal@?$basic_string@DU?$char_traits@D@std@@V?$allocator@D@2@@std@@AEAAAEAV?$allocator@D@2@XZ ; std::basic_string<char,std::char_traits<char>,std::allocator<char> >::_Getal
PUBLIC	?_Getal@?$basic_string@DU?$char_traits@D@std@@V?$allocator@D@2@@std@@AEBAAEBV?$allocator@D@2@XZ ; std::basic_string<char,std::char_traits<char>,std::allocator<char> >::_Getal
PUBLIC	?_Get_first@?$_Compressed_pair@V?$allocator@D@std@@V?$_String_val@U?$_Simple_types@D@std@@@2@$00@std@@QEAAAEAV?$allocator@D@2@XZ ; std::_Compressed_pair<std::allocator<char>,std::_String_val<std::_Simple_types<char> >,1>::_Get_first
PUBLIC	?_Get_first@?$_Compressed_pair@V?$allocator@D@std@@V?$_String_val@U?$_Simple_types@D@std@@@2@$00@std@@QEBAAEBV?$allocator@D@2@XZ ; std::_Compressed_pair<std::allocator<char>,std::_String_val<std::_Simple_types<char> >,1>::_Get_first
PUBLIC	??1?$_Compressed_pair@V?$allocator@D@std@@V?$_String_val@U?$_Simple_types@D@std@@@2@$00@std@@QEAA@XZ ; std::_Compressed_pair<std::allocator<char>,std::_String_val<std::_Simple_types<char> >,1>::~_Compressed_pair<std::allocator<char>,std::_String_val<std::_Simple_types<char> >,1>
PUBLIC	??0?$allocator@_W@std@@QEAA@XZ			; std::allocator<wchar_t>::allocator<wchar_t>
PUBLIC	?deallocate@?$allocator@_W@std@@QEAAXQEA_W_K@Z	; std::allocator<wchar_t>::deallocate
PUBLIC	?allocate@?$allocator@_W@std@@QEAAPEA_W_K@Z	; std::allocator<wchar_t>::allocate
PUBLIC	?max_size@?$_Default_allocator_traits@V?$allocator@_W@std@@@std@@SA_KAEBV?$allocator@_W@2@@Z ; std::_Default_allocator_traits<std::allocator<wchar_t> >::max_size
PUBLIC	?select_on_container_copy_construction@?$_Default_allocator_traits@V?$allocator@_W@std@@@std@@SA?AV?$allocator@_W@2@AEBV32@@Z ; std::_Default_allocator_traits<std::allocator<wchar_t> >::select_on_container_copy_construction
PUBLIC	??0?$_String_val@U?$_Simple_types@_W@std@@@std@@QEAA@XZ ; std::_String_val<std::_Simple_types<wchar_t> >::_String_val<std::_Simple_types<wchar_t> >
PUBLIC	?_Myptr@?$_String_val@U?$_Simple_types@_W@std@@@std@@QEAAPEA_WXZ ; std::_String_val<std::_Simple_types<wchar_t> >::_Myptr
PUBLIC	?_Myptr@?$_String_val@U?$_Simple_types@_W@std@@@std@@QEBAPEB_WXZ ; std::_String_val<std::_Simple_types<wchar_t> >::_Myptr
PUBLIC	?_Large_mode_engaged@?$_String_val@U?$_Simple_types@_W@std@@@std@@QEBA_NXZ ; std::_String_val<std::_Simple_types<wchar_t> >::_Large_mode_engaged
PUBLIC	?_Activate_SSO_buffer@?$_String_val@U?$_Simple_types@_W@std@@@std@@QEAAXXZ ; std::_String_val<std::_Simple_types<wchar_t> >::_Activate_SSO_buffer
PUBLIC	?_Check_offset@?$_String_val@U?$_Simple_types@_W@std@@@std@@QEBAX_K@Z ; std::_String_val<std::_Simple_types<wchar_t> >::_Check_offset
PUBLIC	?_Xran@?$_String_val@U?$_Simple_types@_W@std@@@std@@SAXXZ ; std::_String_val<std::_Simple_types<wchar_t> >::_Xran
PUBLIC	??0_Bxty@?$_String_val@U?$_Simple_types@_W@std@@@std@@QEAA@XZ ; std::_String_val<std::_Simple_types<wchar_t> >::_Bxty::_Bxty
PUBLIC	??1_Bxty@?$_String_val@U?$_Simple_types@_W@std@@@std@@QEAA@XZ ; std::_String_val<std::_Simple_types<wchar_t> >::_Bxty::~_Bxty
PUBLIC	??1?$_String_val@U?$_Simple_types@_W@std@@@std@@QEAA@XZ ; std::_String_val<std::_Simple_types<wchar_t> >::~_String_val<std::_Simple_types<wchar_t> >
PUBLIC	??0?$basic_string@_WU?$char_traits@_W@std@@V?$allocator@_W@2@@std@@QEAA@XZ ; std::basic_string<wchar_t,std::char_traits<wchar_t>,std::allocator<wchar_t> >::basic_string<wchar_t,std::char_traits<wchar_t>,std::allocator<wchar_t> >
PUBLIC	??0?$basic_string@_WU?$char_traits@_W@std@@V?$allocator@_W@2@@std@@QEAA@AEBV01@@Z ; std::basic_string<wchar_t,std::char_traits<wchar_t>,std::allocator<wchar_t> >::basic_string<wchar_t,std::char_traits<wchar_t>,std::allocator<wchar_t> >
PUBLIC	?_Deallocate_for_capacity@?$basic_string@_WU?$char_traits@_W@std@@V?$allocator@_W@2@@std@@CAXAEAV?$allocator@_W@2@QEA_W_K@Z ; std::basic_string<wchar_t,std::char_traits<wchar_t>,std::allocator<wchar_t> >::_Deallocate_for_capacity
PUBLIC	??4?$basic_string@_WU?$char_traits@_W@std@@V?$allocator@_W@2@@std@@QEAAAEAV01@$$QEAV01@@Z ; std::basic_string<wchar_t,std::char_traits<wchar_t>,std::allocator<wchar_t> >::operator=
PUBLIC	?_Memcpy_val_from@?$basic_string@_WU?$char_traits@_W@std@@V?$allocator@_W@2@@std@@AEAAXAEBV12@@Z ; std::basic_string<wchar_t,std::char_traits<wchar_t>,std::allocator<wchar_t> >::_Memcpy_val_from
PUBLIC	?_Take_contents@?$basic_string@_WU?$char_traits@_W@std@@V?$allocator@_W@2@@std@@AEAAXAEAV12@@Z ; std::basic_string<wchar_t,std::char_traits<wchar_t>,std::allocator<wchar_t> >::_Take_contents
PUBLIC	??1?$basic_string@_WU?$char_traits@_W@std@@V?$allocator@_W@2@@std@@QEAA@XZ ; std::basic_string<wchar_t,std::char_traits<wchar_t>,std::allocator<wchar_t> >::~basic_string<wchar_t,std::char_traits<wchar_t>,std::allocator<wchar_t> >
PUBLIC	??4?$basic_string@_WU?$char_traits@_W@std@@V?$allocator@_W@2@@std@@QEAAAEAV01@AEBV01@@Z ; std::basic_string<wchar_t,std::char_traits<wchar_t>,std::allocator<wchar_t> >::operator=
PUBLIC	?append@?$basic_string@_WU?$char_traits@_W@std@@V?$allocator@_W@2@@std@@QEAAAEAV12@QEB_W_K@Z ; std::basic_string<wchar_t,std::char_traits<wchar_t>,std::allocator<wchar_t> >::append
PUBLIC	?append@?$basic_string@_WU?$char_traits@_W@std@@V?$allocator@_W@2@@std@@QEAAAEAV12@_K_W@Z ; std::basic_string<wchar_t,std::char_traits<wchar_t>,std::allocator<wchar_t> >::append
PUBLIC	?assign@?$basic_string@_WU?$char_traits@_W@std@@V?$allocator@_W@2@@std@@QEAAAEAV12@QEB_W_K@Z ; std::basic_string<wchar_t,std::char_traits<wchar_t>,std::allocator<wchar_t> >::assign
PUBLIC	?erase@?$basic_string@_WU?$char_traits@_W@std@@V?$allocator@_W@2@@std@@QEAAAEAV12@_K@Z ; std::basic_string<wchar_t,std::char_traits<wchar_t>,std::allocator<wchar_t> >::erase
PUBLIC	??B?$basic_string@_WU?$char_traits@_W@std@@V?$allocator@_W@2@@std@@QEBA?AV?$basic_string_view@_WU?$char_traits@_W@std@@@1@XZ ; std::basic_string<wchar_t,std::char_traits<wchar_t>,std::allocator<wchar_t> >::operator std::basic_string_view<wchar_t,std::char_traits<wchar_t> >
PUBLIC	?push_back@?$basic_string@_WU?$char_traits@_W@std@@V?$allocator@_W@2@@std@@QEAAX_W@Z ; std::basic_string<wchar_t,std::char_traits<wchar_t>,std::allocator<wchar_t> >::push_back
PUBLIC	?c_str@?$basic_string@_WU?$char_traits@_W@std@@V?$allocator@_W@2@@std@@QEBAPEB_WXZ ; std::basic_string<wchar_t,std::char_traits<wchar_t>,std::allocator<wchar_t> >::c_str
PUBLIC	?data@?$basic_string@_WU?$char_traits@_W@std@@V?$allocator@_W@2@@std@@QEBAPEB_WXZ ; std::basic_string<wchar_t,std::char_traits<wchar_t>,std::allocator<wchar_t> >::data
PUBLIC	?data@?$basic_string@_WU?$char_traits@_W@std@@V?$allocator@_W@2@@std@@QEAAPEA_WXZ ; std::basic_string<wchar_t,std::char_traits<wchar_t>,std::allocator<wchar_t> >::data
PUBLIC	?size@?$basic_string@_WU?$char_traits@_W@std@@V?$allocator@_W@2@@std@@QEBA_KXZ ; std::basic_string<wchar_t,std::char_traits<wchar_t>,std::allocator<wchar_t> >::size
PUBLIC	?max_size@?$basic_string@_WU?$char_traits@_W@std@@V?$allocator@_W@2@@std@@QEBA_KXZ ; std::basic_string<wchar_t,std::char_traits<wchar_t>,std::allocator<wchar_t> >::max_size
PUBLIC	?resize@?$basic_string@_WU?$char_traits@_W@std@@V?$allocator@_W@2@@std@@QEAAX_K_W@Z ; std::basic_string<wchar_t,std::char_traits<wchar_t>,std::allocator<wchar_t> >::resize
PUBLIC	?_Calculate_growth@?$basic_string@_WU?$char_traits@_W@std@@V?$allocator@_W@2@@std@@CA_K_K00@Z ; std::basic_string<wchar_t,std::char_traits<wchar_t>,std::allocator<wchar_t> >::_Calculate_growth
PUBLIC	?_Calculate_growth@?$basic_string@_WU?$char_traits@_W@std@@V?$allocator@_W@2@@std@@AEBA_K_K@Z ; std::basic_string<wchar_t,std::char_traits<wchar_t>,std::allocator<wchar_t> >::_Calculate_growth
PUBLIC	?_Eos@?$basic_string@_WU?$char_traits@_W@std@@V?$allocator@_W@2@@std@@AEAAX_K@Z ; std::basic_string<wchar_t,std::char_traits<wchar_t>,std::allocator<wchar_t> >::_Eos
PUBLIC	?_Tidy_init@?$basic_string@_WU?$char_traits@_W@std@@V?$allocator@_W@2@@std@@AEAAXXZ ; std::basic_string<wchar_t,std::char_traits<wchar_t>,std::allocator<wchar_t> >::_Tidy_init
PUBLIC	?_Tidy_deallocate@?$basic_string@_WU?$char_traits@_W@std@@V?$allocator@_W@2@@std@@AEAAXXZ ; std::basic_string<wchar_t,std::char_traits<wchar_t>,std::allocator<wchar_t> >::_Tidy_deallocate
PUBLIC	?_Orphan_all@?$basic_string@_WU?$char_traits@_W@std@@V?$allocator@_W@2@@std@@QEAAXXZ ; std::basic_string<wchar_t,std::char_traits<wchar_t>,std::allocator<wchar_t> >::_Orphan_all
PUBLIC	?_Swap_proxy_and_iterators@?$basic_string@_WU?$char_traits@_W@std@@V?$allocator@_W@2@@std@@AEAAXAEAV12@@Z ; std::basic_string<wchar_t,std::char_traits<wchar_t>,std::allocator<wchar_t> >::_Swap_proxy_and_iterators
PUBLIC	?_Getal@?$basic_string@_WU?$char_traits@_W@std@@V?$allocator@_W@2@@std@@AEAAAEAV?$allocator@_W@2@XZ ; std::basic_string<wchar_t,std::char_traits<wchar_t>,std::allocator<wchar_t> >::_Getal
PUBLIC	?_Getal@?$basic_string@_WU?$char_traits@_W@std@@V?$allocator@_W@2@@std@@AEBAAEBV?$allocator@_W@2@XZ ; std::basic_string<wchar_t,std::char_traits<wchar_t>,std::allocator<wchar_t> >::_Getal
PUBLIC	?_Get_first@?$_Compressed_pair@V?$allocator@_W@std@@V?$_String_val@U?$_Simple_types@_W@std@@@2@$00@std@@QEAAAEAV?$allocator@_W@2@XZ ; std::_Compressed_pair<std::allocator<wchar_t>,std::_String_val<std::_Simple_types<wchar_t> >,1>::_Get_first
PUBLIC	?_Get_first@?$_Compressed_pair@V?$allocator@_W@std@@V?$_String_val@U?$_Simple_types@_W@std@@@2@$00@std@@QEBAAEBV?$allocator@_W@2@XZ ; std::_Compressed_pair<std::allocator<wchar_t>,std::_String_val<std::_Simple_types<wchar_t> >,1>::_Get_first
PUBLIC	??1?$_Compressed_pair@V?$allocator@_W@std@@V?$_String_val@U?$_Simple_types@_W@std@@@2@$00@std@@QEAA@XZ ; std::_Compressed_pair<std::allocator<wchar_t>,std::_String_val<std::_Simple_types<wchar_t> >,1>::~_Compressed_pair<std::allocator<wchar_t>,std::_String_val<std::_Simple_types<wchar_t> >,1>
PUBLIC	??0runtime_error@std@@QEAA@AEBV?$basic_string@DU?$char_traits@D@std@@V?$allocator@D@2@@1@@Z ; std::runtime_error::runtime_error
PUBLIC	??1runtime_error@std@@UEAA@XZ			; std::runtime_error::~runtime_error
PUBLIC	??0runtime_error@std@@QEAA@AEBV01@@Z		; std::runtime_error::runtime_error
PUBLIC	??_Gruntime_error@std@@UEAAPEAXI@Z		; std::runtime_error::`scalar deleting destructor'
PUBLIC	?generic_category@std@@YAAEBVerror_category@1@XZ ; std::generic_category
PUBLIC	?system_category@std@@YAAEBVerror_category@1@XZ	; std::system_category
PUBLIC	??1error_category@std@@UEAA@XZ			; std::error_category::~error_category
PUBLIC	?default_error_condition@error_category@std@@UEBA?AVerror_condition@2@H@Z ; std::error_category::default_error_condition
PUBLIC	?equivalent@error_category@std@@UEBA_NHAEBVerror_condition@2@@Z ; std::error_category::equivalent
PUBLIC	?equivalent@error_category@std@@UEBA_NAEBVerror_code@2@H@Z ; std::error_category::equivalent
PUBLIC	??8error_category@std@@QEBA_NAEBV01@@Z		; std::error_category::operator==
PUBLIC	??$_Bit_cast@_KT_Addr_storage@error_category@std@@$0A@@std@@YA_KAEBT_Addr_storage@error_category@0@@Z ; std::_Bit_cast<unsigned __int64,std::error_category::_Addr_storage,0>
PUBLIC	??0error_code@std@@QEAA@HAEBVerror_category@1@@Z ; std::error_code::error_code
PUBLIC	?value@error_code@std@@QEBAHXZ			; std::error_code::value
PUBLIC	?category@error_code@std@@QEBAAEBVerror_category@2@XZ ; std::error_code::category
PUBLIC	?message@error_code@std@@QEBA?AV?$basic_string@DU?$char_traits@D@std@@V?$allocator@D@2@@2@XZ ; std::error_code::message
PUBLIC	??0error_condition@std@@QEAA@HAEBVerror_category@1@@Z ; std::error_condition::error_condition
PUBLIC	?value@error_condition@std@@QEBAHXZ		; std::error_condition::value
PUBLIC	?category@error_condition@std@@QEBAAEBVerror_category@2@XZ ; std::error_condition::category
PUBLIC	??8std@@YA_NAEBVerror_condition@0@0@Z		; std::operator==
PUBLIC	?make_error_code@std@@YA?AVerror_code@1@W4errc@1@@Z ; std::make_error_code
PUBLIC	?_Makestr@_System_error@std@@CA?AV?$basic_string@DU?$char_traits@D@std@@V?$allocator@D@2@@2@Verror_code@2@V32@@Z ; std::_System_error::_Makestr
PUBLIC	??0_System_error@std@@IEAA@Verror_code@1@@Z	; std::_System_error::_System_error
PUBLIC	??0_System_error@std@@IEAA@Verror_code@1@AEBV?$basic_string@DU?$char_traits@D@std@@V?$allocator@D@2@@1@@Z ; std::_System_error::_System_error
PUBLIC	??1_System_error@std@@UEAA@XZ			; std::_System_error::~_System_error
PUBLIC	??0_System_error@std@@QEAA@AEBV01@@Z		; std::_System_error::_System_error
PUBLIC	??_G_System_error@std@@UEAAPEAXI@Z		; std::_System_error::`scalar deleting destructor'
PUBLIC	??0system_error@std@@QEAA@Verror_code@1@@Z	; std::system_error::system_error
PUBLIC	??0system_error@std@@QEAA@Verror_code@1@AEBV?$basic_string@DU?$char_traits@D@std@@V?$allocator@D@2@@1@@Z ; std::system_error::system_error
PUBLIC	??1system_error@std@@UEAA@XZ			; std::system_error::~system_error
PUBLIC	??0system_error@std@@QEAA@AEBV01@@Z		; std::system_error::system_error
PUBLIC	??_Gsystem_error@std@@UEAAPEAXI@Z		; std::system_error::`scalar deleting destructor'
PUBLIC	?_Throw_system_error@std@@YAXW4errc@1@@Z	; std::_Throw_system_error
PUBLIC	??0_System_error_message@std@@QEAA@K@Z		; std::_System_error_message::_System_error_message
PUBLIC	??1_System_error_message@std@@QEAA@XZ		; std::_System_error_message::~_System_error_message
PUBLIC	?name@_Generic_error_category@std@@UEBAPEBDXZ	; std::_Generic_error_category::name
PUBLIC	?message@_Generic_error_category@std@@UEBA?AV?$basic_string@DU?$char_traits@D@std@@V?$allocator@D@2@@2@H@Z ; std::_Generic_error_category::message
PUBLIC	??1_Generic_error_category@std@@UEAA@XZ		; std::_Generic_error_category::~_Generic_error_category
PUBLIC	??_G_Generic_error_category@std@@UEAAPEAXI@Z	; std::_Generic_error_category::`scalar deleting destructor'
PUBLIC	?name@_System_error_category@std@@UEBAPEBDXZ	; std::_System_error_category::name
PUBLIC	?message@_System_error_category@std@@UEBA?AV?$basic_string@DU?$char_traits@D@std@@V?$allocator@D@2@@2@H@Z ; std::_System_error_category::message
PUBLIC	?default_error_condition@_System_error_category@std@@UEBA?AVerror_condition@2@H@Z ; std::_System_error_category::default_error_condition
PUBLIC	??1_System_error_category@std@@UEAA@XZ		; std::_System_error_category::~_System_error_category
PUBLIC	??_G_System_error_category@std@@UEAAPEAXI@Z	; std::_System_error_category::`scalar deleting destructor'
PUBLIC	??$_Immortalize_memcpy_image@V_Generic_error_category@std@@@std@@YAAEBV_Generic_error_category@0@XZ ; std::_Immortalize_memcpy_image<std::_Generic_error_category>
PUBLIC	??$_Immortalize_memcpy_image@V_System_error_category@std@@@std@@YAAEBV_System_error_category@0@XZ ; std::_Immortalize_memcpy_image<std::_System_error_category>
PUBLIC	?_Make_ec@std@@YA?AVerror_code@1@W4__std_win_error@@@Z ; std::_Make_ec
PUBLIC	?_Throw_system_error_from_std_win_error@std@@YAXW4__std_win_error@@@Z ; std::_Throw_system_error_from_std_win_error
PUBLIC	??0bad_cast@std@@QEAA@XZ			; std::bad_cast::bad_cast
PUBLIC	??1bad_cast@std@@UEAA@XZ			; std::bad_cast::~bad_cast
PUBLIC	??0bad_cast@std@@QEAA@AEBV01@@Z			; std::bad_cast::bad_cast
PUBLIC	??_Gbad_cast@std@@UEAAPEAXI@Z			; std::bad_cast::`scalar deleting destructor'
PUBLIC	?_Throw_bad_cast@std@@YAXXZ			; std::_Throw_bad_cast
PUBLIC	??0_Ref_count_base@std@@IEAA@XZ			; std::_Ref_count_base::_Ref_count_base
PUBLIC	??1_Ref_count_base@std@@UEAA@XZ			; std::_Ref_count_base::~_Ref_count_base
PUBLIC	?_Incref@_Ref_count_base@std@@QEAAXXZ		; std::_Ref_count_base::_Incref
PUBLIC	?_Decref@_Ref_count_base@std@@QEAAXXZ		; std::_Ref_count_base::_Decref
PUBLIC	?_Decwref@_Ref_count_base@std@@QEAAXXZ		; std::_Ref_count_base::_Decwref
PUBLIC	?_Get_deleter@_Ref_count_base@std@@UEBAPEAXAEBVtype_info@@@Z ; std::_Ref_count_base::_Get_deleter
PUBLIC	??1locale@std@@QEAA@XZ				; std::locale::~locale
PUBLIC	?_Getfacet@locale@std@@QEBAPEBVfacet@12@_K@Z	; std::locale::_Getfacet
PUBLIC	??$_Maklocstr@_W@std@@YAPEA_WPEBDPEA_WAEBU_Cvtvec@@@Z ; std::_Maklocstr<wchar_t>
PUBLIC	??$_Adl_verify_range@PEB_WPEB_W@std@@YAXAEBQEB_W0@Z ; std::_Adl_verify_range<wchar_t const *,wchar_t const *>
PUBLIC	??$_Fgetc@D@std@@YA_NAEADPEAU_iobuf@@@Z		; std::_Fgetc<char>
PUBLIC	??$_Fputc@D@std@@YA_NDPEAU_iobuf@@@Z		; std::_Fputc<char>
PUBLIC	??$_Ungetc@D@std@@YA_NAEBDPEAU_iobuf@@@Z	; std::_Ungetc<char>
PUBLIC	?_Maklocwcs@std@@YAPEA_WPEB_W@Z			; std::_Maklocwcs
PUBLIC	??$_Maklocstr@D@std@@YAPEADPEBDPEADAEBU_Cvtvec@@@Z ; std::_Maklocstr<char>
PUBLIC	__std_is_file_not_found
PUBLIC	??I@YA?AW4__std_fs_file_attr@@W40@0@Z		; operator&
PUBLIC	??U@YA?AW4__std_fs_stats_flags@@W40@0@Z		; operator|
PUBLIC	??_5@YAAEAW4__std_fs_stats_flags@@AEAW40@W40@@Z	; operator|=
PUBLIC	??$_Getvals@_W@?$time_get@DV?$istreambuf_iterator@DU?$char_traits@D@std@@@std@@@std@@IEAAX_WAEBV_Locinfo@1@@Z ; std::time_get<char,std::istreambuf_iterator<char,std::char_traits<char> > >::_Getvals<wchar_t>
PUBLIC	??$_Getvals@_W@?$time_get@_WV?$istreambuf_iterator@_WU?$char_traits@_W@std@@@std@@@std@@IEAAX_WAEBV_Locinfo@1@@Z ; std::time_get<wchar_t,std::istreambuf_iterator<wchar_t,std::char_traits<wchar_t> > >::_Getvals<wchar_t>
PUBLIC	?_Check_convert_result@std@@YAHU__std_fs_convert_result@@@Z ; std::_Check_convert_result
PUBLIC	??$max@_K@std@@YAAEB_KAEB_K0@Z			; std::max<unsigned __int64>
PUBLIC	?_Convert_narrow_to_wide@filesystem@std@@YA?AV?$basic_string@_WU?$char_traits@_W@std@@V?$allocator@_W@2@@2@W4__std_code_page@@V?$basic_string_view@DU?$char_traits@D@std@@@2@@Z ; std::filesystem::_Convert_narrow_to_wide
PUBLIC	??$_Unfancy@_W@std@@YAPEA_WPEA_W@Z		; std::_Unfancy<wchar_t>
PUBLIC	??R_Is_slash_oper@filesystem@std@@QEBA_N_W@Z	; std::filesystem::_Is_slash_oper::operator()
PUBLIC	?_Is_drive_prefix@filesystem@std@@YA_NQEB_W@Z	; std::filesystem::_Is_drive_prefix
PUBLIC	??$_Unaligned_load@I@filesystem@std@@YAIPEBX@Z	; std::filesystem::_Unaligned_load<unsigned int>
PUBLIC	?_Has_drive_letter_prefix@filesystem@std@@YA_NQEB_W0@Z ; std::filesystem::_Has_drive_letter_prefix
PUBLIC	?_Find_root_name_end@filesystem@std@@YAPEB_WQEB_W0@Z ; std::filesystem::_Find_root_name_end
PUBLIC	??$find_if@PEB_WU_Is_slash_oper@filesystem@std@@@std@@YAPEB_WPEB_WQEB_WU_Is_slash_oper@filesystem@0@@Z ; std::find_if<wchar_t const *,std::filesystem::_Is_slash_oper>
PUBLIC	?_Find_relative_path@filesystem@std@@YAPEB_WQEB_W0@Z ; std::filesystem::_Find_relative_path
PUBLIC	??$find_if_not@PEB_WU_Is_slash_oper@filesystem@std@@@std@@YAPEB_WPEB_WQEB_WU_Is_slash_oper@filesystem@0@@Z ; std::find_if_not<wchar_t const *,std::filesystem::_Is_slash_oper>
PUBLIC	?_Find_filename@filesystem@std@@YAPEB_WQEB_WPEB_W@Z ; std::filesystem::_Find_filename
PUBLIC	?_Find_extension@filesystem@std@@YAPEB_WQEB_W0@Z ; std::filesystem::_Find_extension
PUBLIC	??$find@PEB_W_W@std@@YAPEB_WPEB_WQEB_WAEB_W@Z	; std::find<wchar_t const *,wchar_t>
PUBLIC	?_Parse_extension@filesystem@std@@YA?AV?$basic_string_view@_WU?$char_traits@_W@std@@@2@V32@@Z ; std::filesystem::_Parse_extension
PUBLIC	?_Range_compare@filesystem@std@@YAHQEB_W000@Z	; std::filesystem::_Range_compare
PUBLIC	??$_Traits_compare@U?$char_traits@_W@std@@@std@@YAHQEB_W_K01@Z ; std::_Traits_compare<std::char_traits<wchar_t> >
PUBLIC	?_Is_dot_or_dotdot@filesystem@std@@YA_NAEBU__std_fs_find_data@@@Z ; std::filesystem::_Is_dot_or_dotdot
PUBLIC	??0_Find_file_handle@filesystem@std@@QEAA@XZ	; std::filesystem::_Find_file_handle::_Find_file_handle
PUBLIC	??0_Find_file_handle@filesystem@std@@QEAA@$$QEAU012@@Z ; std::filesystem::_Find_file_handle::_Find_file_handle
PUBLIC	??4_Find_file_handle@filesystem@std@@QEAAAEAU012@$$QEAU012@@Z ; std::filesystem::_Find_file_handle::operator=
PUBLIC	?_Open@_Find_file_handle@filesystem@std@@QEAA?AW4__std_win_error@@PEB_WPEAU__std_fs_find_data@@@Z ; std::filesystem::_Find_file_handle::_Open
PUBLIC	??1_Find_file_handle@filesystem@std@@QEAA@XZ	; std::filesystem::_Find_file_handle::~_Find_file_handle
PUBLIC	??_G_Find_file_handle@filesystem@std@@QEAAPEAXI@Z ; std::filesystem::_Find_file_handle::`scalar deleting destructor'
PUBLIC	??$exchange@W4__std_fs_dir_handle@@W41@@std@@YA?AW4__std_fs_dir_handle@@AEAW41@$$QEAW41@@Z ; std::exchange<enum __std_fs_dir_handle,enum __std_fs_dir_handle>
PUBLIC	??$exchange@W4__std_fs_dir_handle@@AEAW41@@std@@YA?AW4__std_fs_dir_handle@@AEAW41@0@Z ; std::exchange<enum __std_fs_dir_handle,enum __std_fs_dir_handle &>
PUBLIC	??0path@filesystem@std@@QEAA@XZ			; std::filesystem::path::path
PUBLIC	??0path@filesystem@std@@QEAA@AEBV012@@Z		; std::filesystem::path::path
PUBLIC	??1path@filesystem@std@@QEAA@XZ			; std::filesystem::path::~path
PUBLIC	??4path@filesystem@std@@QEAAAEAV012@AEBV012@@Z	; std::filesystem::path::operator=
PUBLIC	??4path@filesystem@std@@QEAAAEAV012@$$QEAV012@@Z ; std::filesystem::path::operator=
PUBLIC	??_0path@filesystem@std@@QEAAAEAV012@AEBV012@@Z	; std::filesystem::path::operator/=
PUBLIC	?remove_filename@path@filesystem@std@@QEAAAEAV123@XZ ; std::filesystem::path::remove_filename
PUBLIC	?_Remove_filename_and_separator@path@filesystem@std@@QEAAXXZ ; std::filesystem::path::_Remove_filename_and_separator
PUBLIC	?replace_filename@path@filesystem@std@@QEAAAEAV123@AEBV123@@Z ; std::filesystem::path::replace_filename
PUBLIC	?native@path@filesystem@std@@QEBAAEBV?$basic_string@_WU?$char_traits@_W@std@@V?$allocator@_W@2@@3@XZ ; std::filesystem::path::native
PUBLIC	?c_str@path@filesystem@std@@QEBAPEB_WXZ		; std::filesystem::path::c_str
PUBLIC	?string@path@filesystem@std@@QEBA?AV?$basic_string@DU?$char_traits@D@std@@V?$allocator@D@2@@3@XZ ; std::filesystem::path::string
PUBLIC	?extension@path@filesystem@std@@QEBA?AV123@XZ	; std::filesystem::path::extension
PUBLIC	?is_absolute@path@filesystem@std@@QEBA_NXZ	; std::filesystem::path::is_absolute
PUBLIC	??0?$reverse_iterator@PEB_W@std@@QEAA@PEB_W@Z	; std::reverse_iterator<wchar_t const *>::reverse_iterator<wchar_t const *>
PUBLIC	??D?$reverse_iterator@PEB_W@std@@QEBAAEB_WXZ	; std::reverse_iterator<wchar_t const *>::operator*
PUBLIC	??E?$reverse_iterator@PEB_W@std@@QEAAAEAV01@XZ	; std::reverse_iterator<wchar_t const *>::operator++
PUBLIC	?_Get_current@?$reverse_iterator@PEB_W@std@@QEBAAEBQEB_WXZ ; std::reverse_iterator<wchar_t const *>::_Get_current
PUBLIC	?__autoclassinit2@?$reverse_iterator@PEB_W@std@@QEAAX_K@Z ; std::reverse_iterator<wchar_t const *>::__autoclassinit2
PUBLIC	??$find_if@V?$reverse_iterator@PEB_W@std@@U_Is_slash_oper@filesystem@2@@std@@YA?AV?$reverse_iterator@PEB_W@0@V10@V10@U_Is_slash_oper@filesystem@0@@Z ; std::find_if<std::reverse_iterator<wchar_t const *>,std::filesystem::_Is_slash_oper>
PUBLIC	??$find_if_not@V?$reverse_iterator@PEB_W@std@@U_Is_slash_oper@filesystem@2@@std@@YA?AV?$reverse_iterator@PEB_W@0@V10@V10@U_Is_slash_oper@filesystem@0@@Z ; std::find_if_not<std::reverse_iterator<wchar_t const *>,std::filesystem::_Is_slash_oper>
PUBLIC	??$?GPEB_WPEB_W@std@@YA_JAEBV?$reverse_iterator@PEB_W@0@0@Z ; std::operator-<wchar_t const *,wchar_t const *>
PUBLIC	??$string@DU?$char_traits@D@std@@V?$allocator@D@2@$0A@@path@filesystem@std@@QEBA?AV?$basic_string@DU?$char_traits@D@std@@V?$allocator@D@2@@2@AEBV?$allocator@D@2@@Z ; std::filesystem::path::string<char,std::char_traits<char>,std::allocator<char>,0>
PUBLIC	??$?0V?$basic_string_view@_WU?$char_traits@_W@std@@@std@@$0A@@path@filesystem@std@@QEAA@AEBV?$basic_string_view@_WU?$char_traits@_W@std@@@2@W4format@012@@Z ; std::filesystem::path::path<std::basic_string_view<wchar_t,std::char_traits<wchar_t> >,0>
PUBLIC	??$?_0V?$basic_string_view@_WU?$char_traits@_W@std@@@std@@$0A@@path@filesystem@std@@QEAAAEAV012@AEBV?$basic_string_view@_WU?$char_traits@_W@std@@@2@@Z ; std::filesystem::path::operator/=<std::basic_string_view<wchar_t,std::char_traits<wchar_t> >,0>
PUBLIC	??0filesystem_error@filesystem@std@@QEAA@AEBV?$basic_string@DU?$char_traits@D@std@@V?$allocator@D@2@@2@Verror_code@2@@Z ; std::filesystem::filesystem_error::filesystem_error
PUBLIC	??0filesystem_error@filesystem@std@@QEAA@AEBV?$basic_string@DU?$char_traits@D@std@@V?$allocator@D@2@@2@AEBVpath@12@Verror_code@2@@Z ; std::filesystem::filesystem_error::filesystem_error
PUBLIC	?what@filesystem_error@filesystem@std@@UEBAPEBDXZ ; std::filesystem::filesystem_error::what
PUBLIC	?_Pretty_message@filesystem_error@filesystem@std@@CA?AV?$basic_string@DU?$char_traits@D@std@@V?$allocator@D@2@@3@V?$basic_string_view@DU?$char_traits@D@std@@@3@AEBVpath@23@1@Z ; std::filesystem::filesystem_error::_Pretty_message
PUBLIC	??1filesystem_error@filesystem@std@@UEAA@XZ	; std::filesystem::filesystem_error::~filesystem_error
PUBLIC	??0filesystem_error@filesystem@std@@QEAA@AEBV012@@Z ; std::filesystem::filesystem_error::filesystem_error
PUBLIC	??_Gfilesystem_error@filesystem@std@@UEAAPEAXI@Z ; std::filesystem::filesystem_error::`scalar deleting destructor'
PUBLIC	??$_Convert_wide_to_narrow_replace_chars@U?$char_traits@D@std@@V?$allocator@D@2@@filesystem@std@@YA?AV?$basic_string@DU?$char_traits@D@std@@V?$allocator@D@2@@1@W4__std_code_page@@V?$basic_string_view@_WU?$char_traits@_W@std@@@1@AEBV?$allocator@D@1@@Z ; std::filesystem::_Convert_wide_to_narrow_replace_chars<std::char_traits<char>,std::allocator<char> >
PUBLIC	??$?YV?$basic_string_view@DU?$char_traits@D@std@@@std@@$0A@@?$basic_string@DU?$char_traits@D@std@@V?$allocator@D@2@@std@@QEAAAEAV01@AEBV?$basic_string_view@DU?$char_traits@D@std@@@1@@Z ; std::basic_string<char,std::char_traits<char>,std::allocator<char> >::operator+=<std::basic_string_view<char,std::char_traits<char> >,0>
PUBLIC	?_Throw_fs_error@filesystem@std@@YAXPEBDW4__std_win_error@@@Z ; std::filesystem::_Throw_fs_error
PUBLIC	?_Throw_fs_error@filesystem@std@@YAXPEBDW4__std_win_error@@AEBVpath@12@@Z ; std::filesystem::_Throw_fs_error
PUBLIC	??0file_status@filesystem@std@@QEAA@XZ		; std::filesystem::file_status::file_status
PUBLIC	?type@file_status@filesystem@std@@QEAAXW4file_type@23@@Z ; std::filesystem::file_status::type
PUBLIC	?permissions@file_status@filesystem@std@@QEAAXW4perms@23@@Z ; std::filesystem::file_status::permissions
PUBLIC	?type@file_status@filesystem@std@@QEBA?AW4file_type@23@XZ ; std::filesystem::file_status::type
PUBLIC	?_Refresh@file_status@filesystem@std@@QEAAXW4__std_win_error@@AEBU__std_fs_stats@@@Z ; std::filesystem::file_status::_Refresh
PUBLIC	??$_Bitmask_includes_any@W4__std_fs_file_attr@@@std@@YA_NW4__std_fs_file_attr@@0@Z ; std::_Bitmask_includes_any<enum __std_fs_file_attr>
PUBLIC	?is_regular_file@filesystem@std@@YA_NVfile_status@12@@Z ; std::filesystem::is_regular_file
PUBLIC	?_Not_good@_File_status_and_error@filesystem@std@@QEBA_NXZ ; std::filesystem::_File_status_and_error::_Not_good
PUBLIC	??0_File_status_and_error@filesystem@std@@QEAA@XZ ; std::filesystem::_File_status_and_error::_File_status_and_error
PUBLIC	??0directory_entry@filesystem@std@@QEAA@XZ	; std::filesystem::directory_entry::directory_entry
PUBLIC	??1directory_entry@filesystem@std@@QEAA@XZ	; std::filesystem::directory_entry::~directory_entry
PUBLIC	?_Has_cached_attribute@directory_entry@filesystem@std@@AEBA_NW4__std_fs_file_attr@@@Z ; std::filesystem::directory_entry::_Has_cached_attribute
PUBLIC	?path@directory_entry@filesystem@std@@QEBAAEBV023@XZ ; std::filesystem::directory_entry::path
PUBLIC	??Bdirectory_entry@filesystem@std@@QEBAAEBVpath@12@XZ ; std::filesystem::directory_entry::operator std::filesystem::path const &
PUBLIC	?_Is_symlink_or_junction@directory_entry@filesystem@std@@QEBA_NXZ ; std::filesystem::directory_entry::_Is_symlink_or_junction
PUBLIC	?_Refresh@directory_entry@filesystem@std@@AEAAXAEBU__std_fs_find_data@@@Z ; std::filesystem::directory_entry::_Refresh
PUBLIC	??Ifilesystem@std@@YA?AW4directory_options@01@W4201@0@Z ; std::filesystem::operator&
PUBLIC	?_Skip_dots@_Dir_enum_impl@filesystem@std@@SA?AW4__std_win_error@@W4__std_fs_dir_handle@@AEAU__std_fs_find_data@@@Z ; std::filesystem::_Dir_enum_impl::_Skip_dots
PUBLIC	?_Open_dir@_Dir_enum_impl@filesystem@std@@SA?AW4__std_win_error@@AEAVpath@23@W4directory_options@23@AEAU_Find_file_handle@23@AEAU__std_fs_find_data@@@Z ; std::filesystem::_Dir_enum_impl::_Open_dir
PUBLIC	??0_Creator@_Dir_enum_impl@filesystem@std@@QEAA@AEBVpath@23@W4directory_options@23@@Z ; std::filesystem::_Dir_enum_impl::_Creator::_Creator
PUBLIC	??1_Creator@_Dir_enum_impl@filesystem@std@@QEAA@XZ ; std::filesystem::_Dir_enum_impl::_Creator::~_Creator
PUBLIC	?_Refresh@_Dir_enum_impl@filesystem@std@@QEAAXAEBU__std_fs_find_data@@@Z ; std::filesystem::_Dir_enum_impl::_Refresh
PUBLIC	??0_Dir_enum_impl@filesystem@std@@QEAA@$$QEAU_Creator@012@W4directory_options@12@@Z ; std::filesystem::_Dir_enum_impl::_Dir_enum_impl
PUBLIC	??1_Dir_enum_impl@filesystem@std@@QEAA@XZ	; std::filesystem::_Dir_enum_impl::~_Dir_enum_impl
PUBLIC	??$_Bitmask_includes_any@W4directory_options@filesystem@std@@@std@@YA_NW4directory_options@filesystem@0@0@Z ; std::_Bitmask_includes_any<enum std::filesystem::directory_options>
PUBLIC	??0?$allocator@U_Find_file_handle@filesystem@std@@@std@@QEAA@XZ ; std::allocator<std::filesystem::_Find_file_handle>::allocator<std::filesystem::_Find_file_handle>
PUBLIC	?deallocate@?$allocator@U_Find_file_handle@filesystem@std@@@std@@QEAAXQEAU_Find_file_handle@filesystem@2@_K@Z ; std::allocator<std::filesystem::_Find_file_handle>::deallocate
PUBLIC	?allocate@?$allocator@U_Find_file_handle@filesystem@std@@@std@@QEAAPEAU_Find_file_handle@filesystem@2@_K@Z ; std::allocator<std::filesystem::_Find_file_handle>::allocate
PUBLIC	?max_size@?$_Default_allocator_traits@V?$allocator@U_Find_file_handle@filesystem@std@@@std@@@std@@SA_KAEBV?$allocator@U_Find_file_handle@filesystem@std@@@2@@Z ; std::_Default_allocator_traits<std::allocator<std::filesystem::_Find_file_handle> >::max_size
PUBLIC	??0?$vector@U_Find_file_handle@filesystem@std@@V?$allocator@U_Find_file_handle@filesystem@std@@@3@@std@@QEAA@XZ ; std::vector<std::filesystem::_Find_file_handle,std::allocator<std::filesystem::_Find_file_handle> >::vector<std::filesystem::_Find_file_handle,std::allocator<std::filesystem::_Find_file_handle> >
PUBLIC	??1?$vector@U_Find_file_handle@filesystem@std@@V?$allocator@U_Find_file_handle@filesystem@std@@@3@@std@@QEAA@XZ ; std::vector<std::filesystem::_Find_file_handle,std::allocator<std::filesystem::_Find_file_handle> >::~vector<std::filesystem::_Find_file_handle,std::allocator<std::filesystem::_Find_file_handle> >
PUBLIC	?push_back@?$vector@U_Find_file_handle@filesystem@std@@V?$allocator@U_Find_file_handle@filesystem@std@@@3@@std@@QEAAX$$QEAU_Find_file_handle@filesystem@2@@Z ; std::vector<std::filesystem::_Find_file_handle,std::allocator<std::filesystem::_Find_file_handle> >::push_back
PUBLIC	?pop_back@?$vector@U_Find_file_handle@filesystem@std@@V?$allocator@U_Find_file_handle@filesystem@std@@@3@@std@@QEAAXXZ ; std::vector<std::filesystem::_Find_file_handle,std::allocator<std::filesystem::_Find_file_handle> >::pop_back
PUBLIC	?empty@?$vector@U_Find_file_handle@filesystem@std@@V?$allocator@U_Find_file_handle@filesystem@std@@@3@@std@@QEBA_NXZ ; std::vector<std::filesystem::_Find_file_handle,std::allocator<std::filesystem::_Find_file_handle> >::empty
PUBLIC	?max_size@?$vector@U_Find_file_handle@filesystem@std@@V?$allocator@U_Find_file_handle@filesystem@std@@@3@@std@@QEBA_KXZ ; std::vector<std::filesystem::_Find_file_handle,std::allocator<std::filesystem::_Find_file_handle> >::max_size
PUBLIC	?capacity@?$vector@U_Find_file_handle@filesystem@std@@V?$allocator@U_Find_file_handle@filesystem@std@@@3@@std@@QEBA_KXZ ; std::vector<std::filesystem::_Find_file_handle,std::allocator<std::filesystem::_Find_file_handle> >::capacity
PUBLIC	?back@?$vector@U_Find_file_handle@filesystem@std@@V?$allocator@U_Find_file_handle@filesystem@std@@@3@@std@@QEAAAEAU_Find_file_handle@filesystem@2@XZ ; std::vector<std::filesystem::_Find_file_handle,std::allocator<std::filesystem::_Find_file_handle> >::back
PUBLIC	?_Calculate_growth@?$vector@U_Find_file_handle@filesystem@std@@V?$allocator@U_Find_file_handle@filesystem@std@@@3@@std@@AEBA_K_K@Z ; std::vector<std::filesystem::_Find_file_handle,std::allocator<std::filesystem::_Find_file_handle> >::_Calculate_growth
PUBLIC	?_Change_array@?$vector@U_Find_file_handle@filesystem@std@@V?$allocator@U_Find_file_handle@filesystem@std@@@3@@std@@AEAAXQEAU_Find_file_handle@filesystem@2@_K1@Z ; std::vector<std::filesystem::_Find_file_handle,std::allocator<std::filesystem::_Find_file_handle> >::_Change_array
PUBLIC	?_Tidy@?$vector@U_Find_file_handle@filesystem@std@@V?$allocator@U_Find_file_handle@filesystem@std@@@3@@std@@AEAAXXZ ; std::vector<std::filesystem::_Find_file_handle,std::allocator<std::filesystem::_Find_file_handle> >::_Tidy
PUBLIC	?_Xlength@?$vector@U_Find_file_handle@filesystem@std@@V?$allocator@U_Find_file_handle@filesystem@std@@@3@@std@@CAXXZ ; std::vector<std::filesystem::_Find_file_handle,std::allocator<std::filesystem::_Find_file_handle> >::_Xlength
PUBLIC	?_Orphan_range_unlocked@?$vector@U_Find_file_handle@filesystem@std@@V?$allocator@U_Find_file_handle@filesystem@std@@@3@@std@@AEBAXPEAU_Find_file_handle@filesystem@2@0@Z ; std::vector<std::filesystem::_Find_file_handle,std::allocator<std::filesystem::_Find_file_handle> >::_Orphan_range_unlocked
PUBLIC	?_Orphan_range_locked@?$vector@U_Find_file_handle@filesystem@std@@V?$allocator@U_Find_file_handle@filesystem@std@@@3@@std@@AEBAXPEAU_Find_file_handle@filesystem@2@0@Z ; std::vector<std::filesystem::_Find_file_handle,std::allocator<std::filesystem::_Find_file_handle> >::_Orphan_range_locked
PUBLIC	?_Orphan_range@?$vector@U_Find_file_handle@filesystem@std@@V?$allocator@U_Find_file_handle@filesystem@std@@@3@@std@@AEBAXPEAU_Find_file_handle@filesystem@2@0@Z ; std::vector<std::filesystem::_Find_file_handle,std::allocator<std::filesystem::_Find_file_handle> >::_Orphan_range
PUBLIC	?_Getal@?$vector@U_Find_file_handle@filesystem@std@@V?$allocator@U_Find_file_handle@filesystem@std@@@3@@std@@AEAAAEAV?$allocator@U_Find_file_handle@filesystem@std@@@2@XZ ; std::vector<std::filesystem::_Find_file_handle,std::allocator<std::filesystem::_Find_file_handle> >::_Getal
PUBLIC	?_Getal@?$vector@U_Find_file_handle@filesystem@std@@V?$allocator@U_Find_file_handle@filesystem@std@@@3@@std@@AEBAAEBV?$allocator@U_Find_file_handle@filesystem@std@@@2@XZ ; std::vector<std::filesystem::_Find_file_handle,std::allocator<std::filesystem::_Find_file_handle> >::_Getal
PUBLIC	??0?$_Vector_val@U?$_Simple_types@U_Find_file_handle@filesystem@std@@@std@@@std@@QEAA@XZ ; std::_Vector_val<std::_Simple_types<std::filesystem::_Find_file_handle> >::_Vector_val<std::_Simple_types<std::filesystem::_Find_file_handle> >
PUBLIC	?_Get_first@?$_Compressed_pair@V?$allocator@U_Find_file_handle@filesystem@std@@@std@@V?$_Vector_val@U?$_Simple_types@U_Find_file_handle@filesystem@std@@@std@@@2@$00@std@@QEAAAEAV?$allocator@U_Find_file_handle@filesystem@std@@@2@XZ ; std::_Compressed_pair<std::allocator<std::filesystem::_Find_file_handle>,std::_Vector_val<std::_Simple_types<std::filesystem::_Find_file_handle> >,1>::_Get_first
PUBLIC	?_Get_first@?$_Compressed_pair@V?$allocator@U_Find_file_handle@filesystem@std@@@std@@V?$_Vector_val@U?$_Simple_types@U_Find_file_handle@filesystem@std@@@std@@@2@$00@std@@QEBAAEBV?$allocator@U_Find_file_handle@filesystem@std@@@2@XZ ; std::_Compressed_pair<std::allocator<std::filesystem::_Find_file_handle>,std::_Vector_val<std::_Simple_types<std::filesystem::_Find_file_handle> >,1>::_Get_first
PUBLIC	?_Should_recurse@_Recursive_dir_enum_impl@filesystem@std@@QEBA?AU_Should_recurse_result@23@XZ ; std::filesystem::_Recursive_dir_enum_impl::_Should_recurse
PUBLIC	?_Advance_and_skip_dots@_Recursive_dir_enum_impl@filesystem@std@@QEAA?AW4__std_win_error@@AEAU__std_fs_find_data@@@Z ; std::filesystem::_Recursive_dir_enum_impl::_Advance_and_skip_dots
PUBLIC	?_Advance_and_reset_if_no_more_files@_Recursive_dir_enum_impl@filesystem@std@@SA?AW4__std_win_error@@AEAV?$shared_ptr@U_Recursive_dir_enum_impl@filesystem@std@@@3@@Z ; std::filesystem::_Recursive_dir_enum_impl::_Advance_and_reset_if_no_more_files
PUBLIC	??0_Recursive_dir_enum_impl@filesystem@std@@QEAA@$$QEAU_Creator@_Dir_enum_impl@12@W4directory_options@12@@Z ; std::filesystem::_Recursive_dir_enum_impl::_Recursive_dir_enum_impl
PUBLIC	??1_Recursive_dir_enum_impl@filesystem@std@@QEAA@XZ ; std::filesystem::_Recursive_dir_enum_impl::~_Recursive_dir_enum_impl
PUBLIC	??_G_Recursive_dir_enum_impl@filesystem@std@@QEAAPEAXI@Z ; std::filesystem::_Recursive_dir_enum_impl::`scalar deleting destructor'
PUBLIC	?get@?$_Ptr_base@U_Recursive_dir_enum_impl@filesystem@std@@@std@@IEBAPEAU_Recursive_dir_enum_impl@filesystem@2@XZ ; std::_Ptr_base<std::filesystem::_Recursive_dir_enum_impl>::get
PUBLIC	??0?$_Ptr_base@U_Recursive_dir_enum_impl@filesystem@std@@@std@@IEAA@XZ ; std::_Ptr_base<std::filesystem::_Recursive_dir_enum_impl>::_Ptr_base<std::filesystem::_Recursive_dir_enum_impl>
PUBLIC	?_Incref@?$_Ptr_base@U_Recursive_dir_enum_impl@filesystem@std@@@std@@IEBAXXZ ; std::_Ptr_base<std::filesystem::_Recursive_dir_enum_impl>::_Incref
PUBLIC	?_Decref@?$_Ptr_base@U_Recursive_dir_enum_impl@filesystem@std@@@std@@IEAAXXZ ; std::_Ptr_base<std::filesystem::_Recursive_dir_enum_impl>::_Decref
PUBLIC	?_Swap@?$_Ptr_base@U_Recursive_dir_enum_impl@filesystem@std@@@std@@IEAAXAEAV12@@Z ; std::_Ptr_base<std::filesystem::_Recursive_dir_enum_impl>::_Swap
PUBLIC	??0?$shared_ptr@U_Recursive_dir_enum_impl@filesystem@std@@@std@@QEAA@XZ ; std::shared_ptr<std::filesystem::_Recursive_dir_enum_impl>::shared_ptr<std::filesystem::_Recursive_dir_enum_impl>
PUBLIC	??0?$shared_ptr@U_Recursive_dir_enum_impl@filesystem@std@@@std@@QEAA@AEBV01@@Z ; std::shared_ptr<std::filesystem::_Recursive_dir_enum_impl>::shared_ptr<std::filesystem::_Recursive_dir_enum_impl>
PUBLIC	??0?$shared_ptr@U_Recursive_dir_enum_impl@filesystem@std@@@std@@QEAA@$$QEAV01@@Z ; std::shared_ptr<std::filesystem::_Recursive_dir_enum_impl>::shared_ptr<std::filesystem::_Recursive_dir_enum_impl>
PUBLIC	??1?$shared_ptr@U_Recursive_dir_enum_impl@filesystem@std@@@std@@QEAA@XZ ; std::shared_ptr<std::filesystem::_Recursive_dir_enum_impl>::~shared_ptr<std::filesystem::_Recursive_dir_enum_impl>
PUBLIC	??4?$shared_ptr@U_Recursive_dir_enum_impl@filesystem@std@@@std@@QEAAAEAV01@$$QEAV01@@Z ; std::shared_ptr<std::filesystem::_Recursive_dir_enum_impl>::operator=
PUBLIC	?swap@?$shared_ptr@U_Recursive_dir_enum_impl@filesystem@std@@@std@@QEAAXAEAV12@@Z ; std::shared_ptr<std::filesystem::_Recursive_dir_enum_impl>::swap
PUBLIC	?reset@?$shared_ptr@U_Recursive_dir_enum_impl@filesystem@std@@@std@@QEAAXXZ ; std::shared_ptr<std::filesystem::_Recursive_dir_enum_impl>::reset
PUBLIC	?__autoclassinit2@?$shared_ptr@U_Recursive_dir_enum_impl@filesystem@std@@@std@@QEAAX_K@Z ; std::shared_ptr<std::filesystem::_Recursive_dir_enum_impl>::__autoclassinit2
PUBLIC	??$?DU_Recursive_dir_enum_impl@filesystem@std@@$0A@@?$shared_ptr@U_Recursive_dir_enum_impl@filesystem@std@@@std@@QEBAAEAU_Recursive_dir_enum_impl@filesystem@1@XZ ; std::shared_ptr<std::filesystem::_Recursive_dir_enum_impl>::operator*<std::filesystem::_Recursive_dir_enum_impl,0>
PUBLIC	??0recursive_directory_iterator@filesystem@std@@QEAA@XZ ; std::filesystem::recursive_directory_iterator::recursive_directory_iterator
PUBLIC	??0recursive_directory_iterator@filesystem@std@@QEAA@AEBVpath@12@@Z ; std::filesystem::recursive_directory_iterator::recursive_directory_iterator
PUBLIC	??0recursive_directory_iterator@filesystem@std@@QEAA@AEBV012@@Z ; std::filesystem::recursive_directory_iterator::recursive_directory_iterator
PUBLIC	??0recursive_directory_iterator@filesystem@std@@QEAA@$$QEAV012@@Z ; std::filesystem::recursive_directory_iterator::recursive_directory_iterator
PUBLIC	??1recursive_directory_iterator@filesystem@std@@QEAA@XZ ; std::filesystem::recursive_directory_iterator::~recursive_directory_iterator
PUBLIC	??Drecursive_directory_iterator@filesystem@std@@QEBAAEBVdirectory_entry@12@XZ ; std::filesystem::recursive_directory_iterator::operator*
PUBLIC	??Erecursive_directory_iterator@filesystem@std@@QEAAAEAV012@XZ ; std::filesystem::recursive_directory_iterator::operator++
PUBLIC	??8recursive_directory_iterator@filesystem@std@@QEBA_NAEBV012@@Z ; std::filesystem::recursive_directory_iterator::operator==
PUBLIC	?__autoclassinit2@recursive_directory_iterator@filesystem@std@@QEAAX_K@Z ; std::filesystem::recursive_directory_iterator::__autoclassinit2
PUBLIC	??$_Initialize_dir_enum@U_Recursive_dir_enum_impl@filesystem@std@@@_Dir_enum_impl@filesystem@std@@SA?AW4__std_win_error@@AEAV?$shared_ptr@U_Recursive_dir_enum_impl@filesystem@std@@@2@AEBVpath@12@W4directory_options@12@@Z ; std::filesystem::_Dir_enum_impl::_Initialize_dir_enum<std::filesystem::_Recursive_dir_enum_impl>
PUBLIC	??$?CU_Recursive_dir_enum_impl@filesystem@std@@$0A@@?$shared_ptr@U_Recursive_dir_enum_impl@filesystem@std@@@std@@QEBAPEAU_Recursive_dir_enum_impl@filesystem@1@XZ ; std::shared_ptr<std::filesystem::_Recursive_dir_enum_impl>::operator-><std::filesystem::_Recursive_dir_enum_impl,0>
PUBLIC	??$?8U_Recursive_dir_enum_impl@filesystem@std@@U012@@std@@YA_NAEBV?$shared_ptr@U_Recursive_dir_enum_impl@filesystem@std@@@0@0@Z ; std::operator==<std::filesystem::_Recursive_dir_enum_impl,std::filesystem::_Recursive_dir_enum_impl>
PUBLIC	?begin@filesystem@std@@YA?AVrecursive_directory_iterator@12@V312@@Z ; std::filesystem::begin
PUBLIC	?end@filesystem@std@@YA?AVrecursive_directory_iterator@12@V312@@Z ; std::filesystem::end
PUBLIC	?status@filesystem@std@@YA?AVfile_status@12@AEBVpath@12@@Z ; std::filesystem::status
PUBLIC	?_File_size@filesystem@std@@YA?AW4__std_win_error@@AEBVpath@12@AEA_K@Z ; std::filesystem::_File_size
PUBLIC	?file_size@filesystem@std@@YA_KAEBVpath@12@@Z	; std::filesystem::file_size
PUBLIC	?is_regular_file@filesystem@std@@YA_NAEBVpath@12@@Z ; std::filesystem::is_regular_file
PUBLIC	?_Get_any_status@filesystem@std@@YA?AU_File_status_and_error@12@AEBVpath@12@W4__std_fs_stats_flags@@@Z ; std::filesystem::_Get_any_status
PUBLIC	?hardware_concurrency@thread@std@@SAIXZ		; std::thread::hardware_concurrency
PUBLIC	??0_Mutex_base@std@@QEAA@H@Z			; std::_Mutex_base::_Mutex_base
PUBLIC	??1_Mutex_base@std@@QEAA@XZ			; std::_Mutex_base::~_Mutex_base
PUBLIC	?lock@_Mutex_base@std@@QEAAXXZ			; std::_Mutex_base::lock
PUBLIC	?unlock@_Mutex_base@std@@QEAAXXZ		; std::_Mutex_base::unlock
PUBLIC	?_Verify_ownership_levels@_Mutex_base@std@@IEAA_NXZ ; std::_Mutex_base::_Verify_ownership_levels
PUBLIC	?_Mymtx@_Mutex_base@std@@AEAAPEAU_Mtx_internal_imp_t@@XZ ; std::_Mutex_base::_Mymtx
PUBLIC	??0mutex@std@@QEAA@XZ				; std::mutex::mutex
PUBLIC	??1mutex@std@@QEAA@XZ				; std::mutex::~mutex
PUBLIC	??0?$lock_guard@Vmutex@std@@@std@@QEAA@AEAVmutex@1@@Z ; std::lock_guard<std::mutex>::lock_guard<std::mutex>
PUBLIC	??1?$lock_guard@Vmutex@std@@@std@@QEAA@XZ	; std::lock_guard<std::mutex>::~lock_guard<std::mutex>
PUBLIC	??0?$_Func_class@X$$V@std@@QEAA@XZ		; std::_Func_class<void>::_Func_class<void>
PUBLIC	??1?$_Func_class@X$$V@std@@QEAA@XZ		; std::_Func_class<void>::~_Func_class<void>
PUBLIC	?_Empty@?$_Func_class@X$$V@std@@IEBA_NXZ	; std::_Func_class<void>::_Empty
PUBLIC	?_Tidy@?$_Func_class@X$$V@std@@IEAAXXZ		; std::_Func_class<void>::_Tidy
PUBLIC	?_Local@?$_Func_class@X$$V@std@@AEBA_NXZ	; std::_Func_class<void>::_Local
PUBLIC	?_Getimpl@?$_Func_class@X$$V@std@@AEBAPEAV?$_Func_base@X$$V@2@XZ ; std::_Func_class<void>::_Getimpl
PUBLIC	?_Set@?$_Func_class@X$$V@std@@AEAAXPEAV?$_Func_base@X$$V@2@@Z ; std::_Func_class<void>::_Set
PUBLIC	?__autoclassinit2@thread_pool@@QEAAX_K@Z	; thread_pool::__autoclassinit2
PUBLIC	?get@?$_Ptr_base@V?$basic_ifstream@DU?$char_traits@D@std@@@std@@@std@@IEBAPEAV?$basic_ifstream@DU?$char_traits@D@std@@@2@XZ ; std::_Ptr_base<std::basic_ifstream<char,std::char_traits<char> > >::get
PUBLIC	??0?$_Ptr_base@V?$basic_ifstream@DU?$char_traits@D@std@@@std@@@std@@IEAA@XZ ; std::_Ptr_base<std::basic_ifstream<char,std::char_traits<char> > >::_Ptr_base<std::basic_ifstream<char,std::char_traits<char> > >
PUBLIC	?_Incref@?$_Ptr_base@V?$basic_ifstream@DU?$char_traits@D@std@@@std@@@std@@IEBAXXZ ; std::_Ptr_base<std::basic_ifstream<char,std::char_traits<char> > >::_Incref
PUBLIC	?_Decref@?$_Ptr_base@V?$basic_ifstream@DU?$char_traits@D@std@@@std@@@std@@IEAAXXZ ; std::_Ptr_base<std::basic_ifstream<char,std::char_traits<char> > >::_Decref
PUBLIC	?_Swap@?$_Ptr_base@V?$basic_ifstream@DU?$char_traits@D@std@@@std@@@std@@IEAAXAEAV12@@Z ; std::_Ptr_base<std::basic_ifstream<char,std::char_traits<char> > >::_Swap
PUBLIC	??0?$shared_ptr@V?$basic_ifstream@DU?$char_traits@D@std@@@std@@@std@@QEAA@XZ ; std::shared_ptr<std::basic_ifstream<char,std::char_traits<char> > >::shared_ptr<std::basic_ifstream<char,std::char_traits<char> > >
PUBLIC	??0?$shared_ptr@V?$basic_ifstream@DU?$char_traits@D@std@@@std@@@std@@QEAA@$$T@Z ; std::shared_ptr<std::basic_ifstream<char,std::char_traits<char> > >::shared_ptr<std::basic_ifstream<char,std::char_traits<char> > >
PUBLIC	??0?$shared_ptr@V?$basic_ifstream@DU?$char_traits@D@std@@@std@@@std@@QEAA@AEBV01@@Z ; std::shared_ptr<std::basic_ifstream<char,std::char_traits<char> > >::shared_ptr<std::basic_ifstream<char,std::char_traits<char> > >
PUBLIC	??0?$shared_ptr@V?$basic_ifstream@DU?$char_traits@D@std@@@std@@@std@@QEAA@$$QEAV01@@Z ; std::shared_ptr<std::basic_ifstream<char,std::char_traits<char> > >::shared_ptr<std::basic_ifstream<char,std::char_traits<char> > >
PUBLIC	??1?$shared_ptr@V?$basic_ifstream@DU?$char_traits@D@std@@@std@@@std@@QEAA@XZ ; std::shared_ptr<std::basic_ifstream<char,std::char_traits<char> > >::~shared_ptr<std::basic_ifstream<char,std::char_traits<char> > >
PUBLIC	??4?$shared_ptr@V?$basic_ifstream@DU?$char_traits@D@std@@@std@@@std@@QEAAAEAV01@AEBV01@@Z ; std::shared_ptr<std::basic_ifstream<char,std::char_traits<char> > >::operator=
PUBLIC	?swap@?$shared_ptr@V?$basic_ifstream@DU?$char_traits@D@std@@@std@@@std@@QEAAXAEAV12@@Z ; std::shared_ptr<std::basic_ifstream<char,std::char_traits<char> > >::swap
PUBLIC	?__autoclassinit2@?$shared_ptr@V?$basic_ifstream@DU?$char_traits@D@std@@@std@@@std@@QEAAX_K@Z ; std::shared_ptr<std::basic_ifstream<char,std::char_traits<char> > >::__autoclassinit2
PUBLIC	??0file_task@@QEAA@V?$shared_ptr@V?$basic_ifstream@DU?$char_traits@D@std@@@std@@@std@@_N_K@Z ; file_task::file_task
PUBLIC	??1file_task@@QEAA@XZ				; file_task::~file_task
PUBLIC	??0file_task@@QEAA@$$QEAU0@@Z			; file_task::file_task
PUBLIC	??_Gfile_task@@QEAAPEAXI@Z			; file_task::`scalar deleting destructor'
PUBLIC	??0?$allocator@Ufile_task@@@std@@QEAA@XZ	; std::allocator<file_task>::allocator<file_task>
PUBLIC	?deallocate@?$allocator@Ufile_task@@@std@@QEAAXQEAUfile_task@@_K@Z ; std::allocator<file_task>::deallocate
PUBLIC	?allocate@?$allocator@Ufile_task@@@std@@QEAAPEAUfile_task@@_K@Z ; std::allocator<file_task>::allocate
PUBLIC	?max_size@?$_Default_allocator_traits@V?$allocator@Ufile_task@@@std@@@std@@SA_KAEBV?$allocator@Ufile_task@@@2@@Z ; std::_Default_allocator_traits<std::allocator<file_task> >::max_size
PUBLIC	??0?$vector@Ufile_task@@V?$allocator@Ufile_task@@@std@@@std@@QEAA@XZ ; std::vector<file_task,std::allocator<file_task> >::vector<file_task,std::allocator<file_task> >
PUBLIC	??1?$vector@Ufile_task@@V?$allocator@Ufile_task@@@std@@@std@@QEAA@XZ ; std::vector<file_task,std::allocator<file_task> >::~vector<file_task,std::allocator<file_task> >
PUBLIC	?_Unchecked_begin@?$vector@Ufile_task@@V?$allocator@Ufile_task@@@std@@@std@@QEAAPEAUfile_task@@XZ ; std::vector<file_task,std::allocator<file_task> >::_Unchecked_begin
PUBLIC	?_Unchecked_begin@?$vector@Ufile_task@@V?$allocator@Ufile_task@@@std@@@std@@QEBAPEBUfile_task@@XZ ; std::vector<file_task,std::allocator<file_task> >::_Unchecked_begin
PUBLIC	?_Unchecked_end@?$vector@Ufile_task@@V?$allocator@Ufile_task@@@std@@@std@@QEAAPEAUfile_task@@XZ ; std::vector<file_task,std::allocator<file_task> >::_Unchecked_end
PUBLIC	?_Unchecked_end@?$vector@Ufile_task@@V?$allocator@Ufile_task@@@std@@@std@@QEBAPEBUfile_task@@XZ ; std::vector<file_task,std::allocator<file_task> >::_Unchecked_end
PUBLIC	?size@?$vector@Ufile_task@@V?$allocator@Ufile_task@@@std@@@std@@QEBA_KXZ ; std::vector<file_task,std::allocator<file_task> >::size
PUBLIC	?max_size@?$vector@Ufile_task@@V?$allocator@Ufile_task@@@std@@@std@@QEBA_KXZ ; std::vector<file_task,std::allocator<file_task> >::max_size
PUBLIC	?capacity@?$vector@Ufile_task@@V?$allocator@Ufile_task@@@std@@@std@@QEBA_KXZ ; std::vector<file_task,std::allocator<file_task> >::capacity
PUBLIC	?_Calculate_growth@?$vector@Ufile_task@@V?$allocator@Ufile_task@@@std@@@std@@AEBA_K_K@Z ; std::vector<file_task,std::allocator<file_task> >::_Calculate_growth
PUBLIC	?_Change_array@?$vector@Ufile_task@@V?$allocator@Ufile_task@@@std@@@std@@AEAAXQEAUfile_task@@_K1@Z ; std::vector<file_task,std::allocator<file_task> >::_Change_array
PUBLIC	?_Tidy@?$vector@Ufile_task@@V?$allocator@Ufile_task@@@std@@@std@@AEAAXXZ ; std::vector<file_task,std::allocator<file_task> >::_Tidy
PUBLIC	?_Xlength@?$vector@Ufile_task@@V?$allocator@Ufile_task@@@std@@@std@@CAXXZ ; std::vector<file_task,std::allocator<file_task> >::_Xlength
PUBLIC	?_Orphan_range_unlocked@?$vector@Ufile_task@@V?$allocator@Ufile_task@@@std@@@std@@AEBAXPEAUfile_task@@0@Z ; std::vector<file_task,std::allocator<file_task> >::_Orphan_range_unlocked
PUBLIC	?_Orphan_range_locked@?$vector@Ufile_task@@V?$allocator@Ufile_task@@@std@@@std@@AEBAXPEAUfile_task@@0@Z ; std::vector<file_task,std::allocator<file_task> >::_Orphan_range_locked
PUBLIC	?_Orphan_range@?$vector@Ufile_task@@V?$allocator@Ufile_task@@@std@@@std@@AEBAXPEAUfile_task@@0@Z ; std::vector<file_task,std::allocator<file_task> >::_Orphan_range
PUBLIC	?_Getal@?$vector@Ufile_task@@V?$allocator@Ufile_task@@@std@@@std@@AEAAAEAV?$allocator@Ufile_task@@@2@XZ ; std::vector<file_task,std::allocator<file_task> >::_Getal
PUBLIC	?_Getal@?$vector@Ufile_task@@V?$allocator@Ufile_task@@@std@@@std@@AEBAAEBV?$allocator@Ufile_task@@@2@XZ ; std::vector<file_task,std::allocator<file_task> >::_Getal
PUBLIC	??0?$_Vector_val@U?$_Simple_types@Ufile_task@@@std@@@std@@QEAA@XZ ; std::_Vector_val<std::_Simple_types<file_task> >::_Vector_val<std::_Simple_types<file_task> >
PUBLIC	?_Get_first@?$_Compressed_pair@V?$allocator@Ufile_task@@@std@@V?$_Vector_val@U?$_Simple_types@Ufile_task@@@std@@@2@$00@std@@QEAAAEAV?$allocator@Ufile_task@@@2@XZ ; std::_Compressed_pair<std::allocator<file_task>,std::_Vector_val<std::_Simple_types<file_task> >,1>::_Get_first
PUBLIC	?_Get_first@?$_Compressed_pair@V?$allocator@Ufile_task@@@std@@V?$_Vector_val@U?$_Simple_types@Ufile_task@@@std@@@2@$00@std@@QEBAAEBV?$allocator@Ufile_task@@@2@XZ ; std::_Compressed_pair<std::allocator<file_task>,std::_Vector_val<std::_Simple_types<file_task> >,1>::_Get_first
PUBLIC	?open_file@filemanip@@AEBA?AUfile_task@@AEBV?$basic_string@DU?$char_traits@D@std@@V?$allocator@D@2@@std@@_K@Z ; filemanip::open_file
PUBLIC	?process_dictionary@filemanip@@AEAA_NAEAUfile_task@@@Z ; filemanip::process_dictionary
PUBLIC	??0filemanip@@QEAA@V?$basic_string@DU?$char_traits@D@std@@V?$allocator@D@2@@std@@0@Z ; filemanip::filemanip
PUBLIC	?dir_traversal@filemanip@@QEAAXXZ		; filemanip::dir_traversal
PUBLIC	?bruteforce@filemanip@@QEAAXH@Z			; filemanip::bruteforce
PUBLIC	?print_dir_files_info@filemanip@@QEBAXXZ	; filemanip::print_dir_files_info
PUBLIC	?get_total_dir_size@filemanip@@QEBANXZ		; filemanip::get_total_dir_size
PUBLIC	?get_count_of_files@filemanip@@QEBAHXZ		; filemanip::get_count_of_files
PUBLIC	?print_progress@filemanip@@QEBAXXZ		; filemanip::print_progress
PUBLIC	??$?CV?$basic_ifstream@DU?$char_traits@D@std@@@std@@$0A@@?$shared_ptr@V?$basic_ifstream@DU?$char_traits@D@std@@@std@@@std@@QEBAPEAV?$basic_ifstream@DU?$char_traits@D@std@@@1@XZ ; std::shared_ptr<std::basic_ifstream<char,std::char_traits<char> > >::operator-><std::basic_ifstream<char,std::char_traits<char> >,0>
PUBLIC	??0?$basic_ifstream@DU?$char_traits@D@std@@@std@@QEAA@PEBDHH@Z ; std::basic_ifstream<char,std::char_traits<char> >::basic_ifstream<char,std::char_traits<char> >
PUBLIC	??0?$basic_ifstream@DU?$char_traits@D@std@@@std@@QEAA@AEBV?$basic_string@DU?$char_traits@D@std@@V?$allocator@D@2@@1@HH@Z ; std::basic_ifstream<char,std::char_traits<char> >::basic_ifstream<char,std::char_traits<char> >
PUBLIC	??1?$basic_ifstream@DU?$char_traits@D@std@@@std@@UEAA@XZ ; std::basic_ifstream<char,std::char_traits<char> >::~basic_ifstream<char,std::char_traits<char> >
PUBLIC	?is_open@?$basic_ifstream@DU?$char_traits@D@std@@@std@@QEBA_NXZ ; std::basic_ifstream<char,std::char_traits<char> >::is_open
PUBLIC	??0?$basic_filebuf@DU?$char_traits@D@std@@@std@@QEAA@XZ ; std::basic_filebuf<char,std::char_traits<char> >::basic_filebuf<char,std::char_traits<char> >
PUBLIC	??1?$basic_filebuf@DU?$char_traits@D@std@@@std@@UEAA@XZ ; std::basic_filebuf<char,std::char_traits<char> >::~basic_filebuf<char,std::char_traits<char> >
PUBLIC	?is_open@?$basic_filebuf@DU?$char_traits@D@std@@@std@@QEBA_NXZ ; std::basic_filebuf<char,std::char_traits<char> >::is_open
PUBLIC	?open@?$basic_filebuf@DU?$char_traits@D@std@@@std@@QEAAPEAV12@PEBDHH@Z ; std::basic_filebuf<char,std::char_traits<char> >::open
PUBLIC	?close@?$basic_filebuf@DU?$char_traits@D@std@@@std@@QEAAPEAV12@XZ ; std::basic_filebuf<char,std::char_traits<char> >::close
PUBLIC	?_Lock@?$basic_filebuf@DU?$char_traits@D@std@@@std@@UEAAXXZ ; std::basic_filebuf<char,std::char_traits<char> >::_Lock
PUBLIC	?_Unlock@?$basic_filebuf@DU?$char_traits@D@std@@@std@@UEAAXXZ ; std::basic_filebuf<char,std::char_traits<char> >::_Unlock
PUBLIC	?overflow@?$basic_filebuf@DU?$char_traits@D@std@@@std@@MEAAHH@Z ; std::basic_filebuf<char,std::char_traits<char> >::overflow
PUBLIC	?pbackfail@?$basic_filebuf@DU?$char_traits@D@std@@@std@@MEAAHH@Z ; std::basic_filebuf<char,std::char_traits<char> >::pbackfail
PUBLIC	?underflow@?$basic_filebuf@DU?$char_traits@D@std@@@std@@MEAAHXZ ; std::basic_filebuf<char,std::char_traits<char> >::underflow
PUBLIC	?uflow@?$basic_filebuf@DU?$char_traits@D@std@@@std@@MEAAHXZ ; std::basic_filebuf<char,std::char_traits<char> >::uflow
PUBLIC	?xsgetn@?$basic_filebuf@DU?$char_traits@D@std@@@std@@MEAA_JPEAD_J@Z ; std::basic_filebuf<char,std::char_traits<char> >::xsgetn
PUBLIC	?xsputn@?$basic_filebuf@DU?$char_traits@D@std@@@std@@MEAA_JPEBD_J@Z ; std::basic_filebuf<char,std::char_traits<char> >::xsputn
PUBLIC	?seekoff@?$basic_filebuf@DU?$char_traits@D@std@@@std@@MEAA?AV?$fpos@U_Mbstatet@@@2@_JHH@Z ; std::basic_filebuf<char,std::char_traits<char> >::seekoff
PUBLIC	?seekpos@?$basic_filebuf@DU?$char_traits@D@std@@@std@@MEAA?AV?$fpos@U_Mbstatet@@@2@V32@H@Z ; std::basic_filebuf<char,std::char_traits<char> >::seekpos
PUBLIC	?setbuf@?$basic_filebuf@DU?$char_traits@D@std@@@std@@MEAAPEAV?$basic_streambuf@DU?$char_traits@D@std@@@2@PEAD_J@Z ; std::basic_filebuf<char,std::char_traits<char> >::setbuf
PUBLIC	?sync@?$basic_filebuf@DU?$char_traits@D@std@@@std@@MEAAHXZ ; std::basic_filebuf<char,std::char_traits<char> >::sync
PUBLIC	?imbue@?$basic_filebuf@DU?$char_traits@D@std@@@std@@MEAAXAEBVlocale@2@@Z ; std::basic_filebuf<char,std::char_traits<char> >::imbue
PUBLIC	?_Init@?$basic_filebuf@DU?$char_traits@D@std@@@std@@IEAAXPEAU_iobuf@@W4_Initfl@12@@Z ; std::basic_filebuf<char,std::char_traits<char> >::_Init
PUBLIC	?_Endwrite@?$basic_filebuf@DU?$char_traits@D@std@@@std@@IEAA_NXZ ; std::basic_filebuf<char,std::char_traits<char> >::_Endwrite
PUBLIC	?_Initcvt@?$basic_filebuf@DU?$char_traits@D@std@@@std@@IEAAXAEBV?$codecvt@DDU_Mbstatet@@@2@@Z ; std::basic_filebuf<char,std::char_traits<char> >::_Initcvt
PUBLIC	?_Reset_back@?$basic_filebuf@DU?$char_traits@D@std@@@std@@AEAAXXZ ; std::basic_filebuf<char,std::char_traits<char> >::_Reset_back
PUBLIC	?_Set_back@?$basic_filebuf@DU?$char_traits@D@std@@@std@@AEAAXXZ ; std::basic_filebuf<char,std::char_traits<char> >::_Set_back
PUBLIC	??_G?$basic_filebuf@DU?$char_traits@D@std@@@std@@UEAAPEAXI@Z ; std::basic_filebuf<char,std::char_traits<char> >::`scalar deleting destructor'
PUBLIC	??_G?$basic_ifstream@DU?$char_traits@D@std@@@std@@UEAAPEAXI@Z ; std::basic_ifstream<char,std::char_traits<char> >::`scalar deleting destructor'
PUBLIC	??_D?$basic_ifstream@DU?$char_traits@D@std@@@std@@QEAAXXZ ; std::basic_ifstream<char,std::char_traits<char> >::`vbase destructor'
PUBLIC	??$?0V?$basic_string@DU?$char_traits@D@std@@V?$allocator@D@2@@std@@$0A@@path@filesystem@std@@QEAA@AEBV?$basic_string@DU?$char_traits@D@std@@V?$allocator@D@2@@2@W4format@012@@Z ; std::filesystem::path::path<std::basic_string<char,std::char_traits<char>,std::allocator<char> >,0>
PUBLIC	??0?$_String_const_iterator@V?$_String_val@U?$_Simple_types@D@std@@@std@@@std@@QEAA@PEBDPEBU_Container_base12@1@@Z ; std::_String_const_iterator<std::_String_val<std::_Simple_types<char> > >::_String_const_iterator<std::_String_val<std::_Simple_types<char> > >
PUBLIC	?_Verify_offset@?$_String_const_iterator@V?$_String_val@U?$_Simple_types@D@std@@@std@@@std@@QEBAX_J@Z ; std::_String_const_iterator<std::_String_val<std::_Simple_types<char> > >::_Verify_offset
PUBLIC	?_Verify_range@std@@YAXAEBV?$_String_const_iterator@V?$_String_val@U?$_Simple_types@D@std@@@std@@@1@0@Z ; std::_Verify_range
PUBLIC	?_Seek_to@?$_String_const_iterator@V?$_String_val@U?$_Simple_types@D@std@@@std@@@std@@QEAAXPEBD@Z ; std::_String_const_iterator<std::_String_val<std::_Simple_types<char> > >::_Seek_to
PUBLIC	??1?$_String_const_iterator@V?$_String_val@U?$_Simple_types@D@std@@@std@@@std@@QEAA@XZ ; std::_String_const_iterator<std::_String_val<std::_Simple_types<char> > >::~_String_const_iterator<std::_String_val<std::_Simple_types<char> > >
PUBLIC	??0?$_String_const_iterator@V?$_String_val@U?$_Simple_types@D@std@@@std@@@std@@QEAA@$$QEAV01@@Z ; std::_String_const_iterator<std::_String_val<std::_Simple_types<char> > >::_String_const_iterator<std::_String_val<std::_Simple_types<char> > >
PUBLIC	?_Unwrapped@?$_String_iterator@V?$_String_val@U?$_Simple_types@D@std@@@std@@@std@@QEBAPEADXZ ; std::_String_iterator<std::_String_val<std::_Simple_types<char> > >::_Unwrapped
PUBLIC	??1?$_String_iterator@V?$_String_val@U?$_Simple_types@D@std@@@std@@@std@@QEAA@XZ ; std::_String_iterator<std::_String_val<std::_Simple_types<char> > >::~_String_iterator<std::_String_val<std::_Simple_types<char> > >
PUBLIC	??0?$_String_iterator@V?$_String_val@U?$_Simple_types@D@std@@@std@@@std@@QEAA@$$QEAV01@@Z ; std::_String_iterator<std::_String_val<std::_Simple_types<char> > >::_String_iterator<std::_String_val<std::_Simple_types<char> > >
PUBLIC	??0?$_String_iterator@V?$_String_val@U?$_Simple_types@D@std@@@std@@@std@@QEAA@PEBDPEBU_Container_base12@1@@Z ; std::_String_iterator<std::_String_val<std::_Simple_types<char> > >::_String_iterator<std::_String_val<std::_Simple_types<char> > >
PUBLIC	??$transform@V?$_String_iterator@V?$_String_val@U?$_Simple_types@D@std@@@std@@@std@@V12@P6AHH@Z@std@@YA?AV?$_String_iterator@V?$_String_val@U?$_Simple_types@D@std@@@std@@@0@V10@0V10@P6AHH@Z@Z ; std::transform<std::_String_iterator<std::_String_val<std::_Simple_types<char> > >,std::_String_iterator<std::_String_val<std::_Simple_types<char> > >,int (__cdecl*)(int)>
PUBLIC	??$?8DU?$char_traits@D@std@@V?$allocator@D@1@@std@@YA_NAEBV?$basic_string@DU?$char_traits@D@std@@V?$allocator@D@2@@0@QEBD@Z ; std::operator==<char,std::char_traits<char>,std::allocator<char> >
PUBLIC	??$emplace_back@Ufile_task@@@?$vector@Ufile_task@@V?$allocator@Ufile_task@@@std@@@std@@QEAA?A_T$$QEAUfile_task@@@Z ; std::vector<file_task,std::allocator<file_task> >::emplace_back<file_task>
PUBLIC	??$_Emplace_one_at_back@Ufile_task@@@?$vector@Ufile_task@@V?$allocator@Ufile_task@@@std@@@std@@AEAAAEAUfile_task@@$$QEAU2@@Z ; std::vector<file_task,std::allocator<file_task> >::_Emplace_one_at_back<file_task>
PUBLIC	??$make_shared@V?$basic_ifstream@DU?$char_traits@D@std@@@std@@AEBV?$basic_string@DU?$char_traits@D@std@@V?$allocator@D@2@@2@@std@@YA?AV?$shared_ptr@V?$basic_ifstream@DU?$char_traits@D@std@@@std@@@0@AEBV?$basic_string@DU?$char_traits@D@std@@V?$allocator@D@2@@0@@Z ; std::make_shared<std::basic_ifstream<char,std::char_traits<char> >,std::basic_string<char,std::char_traits<char>,std::allocator<char> > const &>
PUBLIC	??$?DV?$basic_ifstream@DU?$char_traits@D@std@@@std@@$0A@@?$shared_ptr@V?$basic_ifstream@DU?$char_traits@D@std@@@std@@@std@@QEBAAEAV?$basic_ifstream@DU?$char_traits@D@std@@@1@XZ ; std::shared_ptr<std::basic_ifstream<char,std::char_traits<char> > >::operator*<std::basic_ifstream<char,std::char_traits<char> >,0>
PUBLIC	??$getline@DU?$char_traits@D@std@@V?$allocator@D@2@@std@@YAAEAV?$basic_istream@DU?$char_traits@D@std@@@0@AEAV10@AEAV?$basic_string@DU?$char_traits@D@std@@V?$allocator@D@2@@0@@Z ; std::getline<char,std::char_traits<char>,std::allocator<char> >
PUBLIC	??$?8DU?$char_traits@D@std@@V?$allocator@D@1@@std@@YA_NAEBV?$basic_string@DU?$char_traits@D@std@@V?$allocator@D@2@@0@0@Z ; std::operator==<char,std::char_traits<char>,std::allocator<char> >
PUBLIC	??$?6U?$char_traits@D@std@@@std@@YAAEAV?$basic_ostream@DU?$char_traits@D@std@@@0@AEAV10@PEBD@Z ; std::operator<<<std::char_traits<char> >
PUBLIC	??$?6DU?$char_traits@D@std@@V?$allocator@D@1@@std@@YAAEAV?$basic_ostream@DU?$char_traits@D@std@@@0@AEAV10@AEBV?$basic_string@DU?$char_traits@D@std@@V?$allocator@D@2@@0@@Z ; std::operator<<<char,std::char_traits<char>,std::allocator<char> >
PUBLIC	??$?6DU?$char_traits@D@std@@V?$basic_ifstream@DU?$char_traits@D@std@@@1@@std@@YAAEAV?$basic_ostream@DU?$char_traits@D@std@@@0@AEAV10@AEBV?$shared_ptr@V?$basic_ifstream@DU?$char_traits@D@std@@@std@@@0@@Z ; std::operator<<<char,std::char_traits<char>,std::basic_ifstream<char,std::char_traits<char> > >
PUBLIC	??$flush@DU?$char_traits@D@std@@@std@@YAAEAV?$basic_ostream@DU?$char_traits@D@std@@@0@AEAV10@@Z ; std::flush<char,std::char_traits<char> >
PUBLIC	??$use_facet@V?$codecvt@DDU_Mbstatet@@@std@@@std@@YAAEBV?$codecvt@DDU_Mbstatet@@@0@AEBVlocale@0@@Z ; std::use_facet<std::codecvt<char,char,_Mbstatet> >
PUBLIC	??0?$fpos@U_Mbstatet@@@std@@QEAA@_J@Z		; std::fpos<_Mbstatet>::fpos<_Mbstatet>
PUBLIC	??0?$fpos@U_Mbstatet@@@std@@QEAA@U_Mbstatet@@_J@Z ; std::fpos<_Mbstatet>::fpos<_Mbstatet>
PUBLIC	?state@?$fpos@U_Mbstatet@@@std@@QEBA?AU_Mbstatet@@XZ ; std::fpos<_Mbstatet>::state
PUBLIC	??B?$fpos@U_Mbstatet@@@std@@QEBA_JXZ		; std::fpos<_Mbstatet>::operator __int64
PUBLIC	??$min@_K@std@@YAAEB_KAEB_K0@Z			; std::min<unsigned __int64>
PUBLIC	?deallocate@?$allocator@U_Container_proxy@std@@@std@@QEAAXQEAU_Container_proxy@2@_K@Z ; std::allocator<std::_Container_proxy>::deallocate
PUBLIC	?allocate@?$allocator@U_Container_proxy@std@@@std@@QEAAPEAU_Container_proxy@2@_K@Z ; std::allocator<std::_Container_proxy>::allocate
PUBLIC	??$?0Ufile_task@@@?$allocator@U_Container_proxy@std@@@std@@QEAA@AEBV?$allocator@Ufile_task@@@1@@Z ; std::allocator<std::_Container_proxy>::allocator<std::_Container_proxy><file_task>
PUBLIC	??$exchange@PEAU_Container_proxy@std@@$$T@std@@YAPEAU_Container_proxy@0@AEAPEAU10@$$QEA$$T@Z ; std::exchange<std::_Container_proxy *,std::nullptr_t>
PUBLIC	??$_Delete_plain_internal@V?$allocator@U_Container_proxy@std@@@std@@@std@@YAXAEAV?$allocator@U_Container_proxy@std@@@0@QEAU_Container_proxy@0@@Z ; std::_Delete_plain_internal<std::allocator<std::_Container_proxy> >
PUBLIC	??$?0$$V@?$_Compressed_pair@V?$allocator@Ufile_task@@@std@@V?$_Vector_val@U?$_Simple_types@Ufile_task@@@std@@@2@$00@std@@QEAA@U_Zero_then_variadic_args_t@1@@Z ; std::_Compressed_pair<std::allocator<file_task>,std::_Vector_val<std::_Simple_types<file_task> >,1>::_Compressed_pair<std::allocator<file_task>,std::_Vector_val<std::_Simple_types<file_task> >,1><>
PUBLIC	??$_Alloc_proxy@V?$allocator@U_Container_proxy@std@@@std@@@_Container_base12@std@@QEAAX$$QEAV?$allocator@U_Container_proxy@std@@@1@@Z ; std::_Container_base12::_Alloc_proxy<std::allocator<std::_Container_proxy> >
PUBLIC	??$_Copy_construct_from@V?$basic_ifstream@DU?$char_traits@D@std@@@std@@@?$_Ptr_base@V?$basic_ifstream@DU?$char_traits@D@std@@@std@@@std@@IEAAXAEBV?$shared_ptr@V?$basic_ifstream@DU?$char_traits@D@std@@@std@@@1@@Z ; std::_Ptr_base<std::basic_ifstream<char,std::char_traits<char> > >::_Copy_construct_from<std::basic_ifstream<char,std::char_traits<char> > >
PUBLIC	??$_Move_construct_from@U_Recursive_dir_enum_impl@filesystem@std@@@?$_Ptr_base@U_Recursive_dir_enum_impl@filesystem@std@@@std@@IEAAX$$QEAV01@@Z ; std::_Ptr_base<std::filesystem::_Recursive_dir_enum_impl>::_Move_construct_from<std::filesystem::_Recursive_dir_enum_impl>
PUBLIC	??$_Copy_construct_from@U_Recursive_dir_enum_impl@filesystem@std@@@?$_Ptr_base@U_Recursive_dir_enum_impl@filesystem@std@@@std@@IEAAXAEBV?$shared_ptr@U_Recursive_dir_enum_impl@filesystem@std@@@1@@Z ; std::_Ptr_base<std::filesystem::_Recursive_dir_enum_impl>::_Copy_construct_from<std::filesystem::_Recursive_dir_enum_impl>
PUBLIC	??$_Unfancy@U_Find_file_handle@filesystem@std@@@std@@YAPEAU_Find_file_handle@filesystem@0@PEAU120@@Z ; std::_Unfancy<std::filesystem::_Find_file_handle>
PUBLIC	??$destroy@U_Find_file_handle@filesystem@std@@@?$_Default_allocator_traits@V?$allocator@U_Find_file_handle@filesystem@std@@@std@@@std@@SAXAEAV?$allocator@U_Find_file_handle@filesystem@std@@@1@QEAU_Find_file_handle@filesystem@1@@Z ; std::_Default_allocator_traits<std::allocator<std::filesystem::_Find_file_handle> >::destroy<std::filesystem::_Find_file_handle>
PUBLIC	??$_Emplace_one_at_back@U_Find_file_handle@filesystem@std@@@?$vector@U_Find_file_handle@filesystem@std@@V?$allocator@U_Find_file_handle@filesystem@std@@@3@@std@@AEAAAEAU_Find_file_handle@filesystem@1@$$QEAU231@@Z ; std::vector<std::filesystem::_Find_file_handle,std::allocator<std::filesystem::_Find_file_handle> >::_Emplace_one_at_back<std::filesystem::_Find_file_handle>
PUBLIC	??$?0U_Find_file_handle@filesystem@std@@@?$allocator@U_Container_proxy@std@@@std@@QEAA@AEBV?$allocator@U_Find_file_handle@filesystem@std@@@1@@Z ; std::allocator<std::_Container_proxy>::allocator<std::_Container_proxy><std::filesystem::_Find_file_handle>
PUBLIC	??$?0$$V@?$_Compressed_pair@V?$allocator@U_Find_file_handle@filesystem@std@@@std@@V?$_Vector_val@U?$_Simple_types@U_Find_file_handle@filesystem@std@@@std@@@2@$00@std@@QEAA@U_Zero_then_variadic_args_t@1@@Z ; std::_Compressed_pair<std::allocator<std::filesystem::_Find_file_handle>,std::_Vector_val<std::_Simple_types<std::filesystem::_Find_file_handle> >,1>::_Compressed_pair<std::allocator<std::filesystem::_Find_file_handle>,std::_Vector_val<std::_Simple_types<std::filesystem::_Find_file_handle> >,1><>
PUBLIC	??$_Allocate_at_least_helper@V?$allocator@D@std@@@std@@YAPEADAEAV?$allocator@D@0@AEA_K@Z ; std::_Allocate_at_least_helper<std::allocator<char> >
PUBLIC	??$_Unfancy@D@std@@YAPEADPEAD@Z			; std::_Unfancy<char>
PUBLIC	??0_Sentry_base@?$basic_istream@DU?$char_traits@D@std@@@std@@QEAA@AEAV12@@Z ; std::basic_istream<char,std::char_traits<char> >::_Sentry_base::_Sentry_base
PUBLIC	??1_Sentry_base@?$basic_istream@DU?$char_traits@D@std@@@std@@QEAA@XZ ; std::basic_istream<char,std::char_traits<char> >::_Sentry_base::~_Sentry_base
PUBLIC	??0sentry@?$basic_istream@DU?$char_traits@D@std@@@std@@QEAA@AEAV12@_N@Z ; std::basic_istream<char,std::char_traits<char> >::sentry::sentry
PUBLIC	??Bsentry@?$basic_istream@DU?$char_traits@D@std@@@std@@QEBA_NXZ ; std::basic_istream<char,std::char_traits<char> >::sentry::operator bool
PUBLIC	??1sentry@?$basic_istream@DU?$char_traits@D@std@@@std@@QEAA@XZ ; std::basic_istream<char,std::char_traits<char> >::sentry::~sentry
PUBLIC	??0_Sentry_base@?$basic_ostream@DU?$char_traits@D@std@@@std@@QEAA@AEAV12@@Z ; std::basic_ostream<char,std::char_traits<char> >::_Sentry_base::_Sentry_base
PUBLIC	??1_Sentry_base@?$basic_ostream@DU?$char_traits@D@std@@@std@@QEAA@XZ ; std::basic_ostream<char,std::char_traits<char> >::_Sentry_base::~_Sentry_base
PUBLIC	??0sentry@?$basic_ostream@DU?$char_traits@D@std@@@std@@QEAA@AEAV12@@Z ; std::basic_ostream<char,std::char_traits<char> >::sentry::sentry
PUBLIC	??1sentry@?$basic_ostream@DU?$char_traits@D@std@@@std@@QEAA@XZ ; std::basic_ostream<char,std::char_traits<char> >::sentry::~sentry
PUBLIC	??Bsentry@?$basic_ostream@DU?$char_traits@D@std@@@std@@QEBA_NXZ ; std::basic_ostream<char,std::char_traits<char> >::sentry::operator bool
PUBLIC	??$addressof@V?$basic_string@_WU?$char_traits@_W@std@@V?$allocator@_W@2@@std@@@std@@YAPEAV?$basic_string@_WU?$char_traits@_W@std@@V?$allocator@_W@2@@0@AEAV10@@Z ; std::addressof<std::basic_string<wchar_t,std::char_traits<wchar_t>,std::allocator<wchar_t> > >
PUBLIC	??R<lambda_1>@?1??push_back@?$basic_string@_WU?$char_traits@_W@std@@V?$allocator@_W@2@@std@@QEAAX_W@Z@QEBA@QEA_WQEB_W_K0@Z ; `std::basic_string<wchar_t,std::char_traits<wchar_t>,std::allocator<wchar_t> >::push_back'::`2'::<lambda_1>::operator()
PUBLIC	??$_Reallocate_grow_by@V<lambda_1>@?1??push_back@?$basic_string@_WU?$char_traits@_W@std@@V?$allocator@_W@2@@std@@QEAAX_W@Z@_W@?$basic_string@_WU?$char_traits@_W@std@@V?$allocator@_W@2@@std@@AEAAAEAV01@_KV<lambda_1>@?1??push_back@01@QEAAX_W@Z@_W@Z ; std::basic_string<wchar_t,std::char_traits<wchar_t>,std::allocator<wchar_t> >::_Reallocate_grow_by<`std::basic_string<wchar_t,std::char_traits<wchar_t>,std::allocator<wchar_t> >::push_back'::`2'::<lambda_1>,wchar_t>
PUBLIC	??$addressof@$$CBV?$_String_val@U?$_Simple_types@_W@std@@@std@@@std@@YAPEBV?$_String_val@U?$_Simple_types@_W@std@@@0@AEBV10@@Z ; std::addressof<std::_String_val<std::_Simple_types<wchar_t> > const >
PUBLIC	??$addressof@V?$_String_val@U?$_Simple_types@_W@std@@@std@@@std@@YAPEAV?$_String_val@U?$_Simple_types@_W@std@@@0@AEAV10@@Z ; std::addressof<std::_String_val<std::_Simple_types<wchar_t> > >
PUBLIC	??R<lambda_1>@?1??assign@?$basic_string@_WU?$char_traits@_W@std@@V?$allocator@_W@2@@std@@QEAAAEAV23@QEB_W_K@Z@QEBA@QEA_W10@Z ; `std::basic_string<wchar_t,std::char_traits<wchar_t>,std::allocator<wchar_t> >::assign'::`2'::<lambda_1>::operator()
PUBLIC	??$_Reallocate_for@V<lambda_1>@?1??assign@?$basic_string@_WU?$char_traits@_W@std@@V?$allocator@_W@2@@std@@QEAAAEAV34@QEB_W_K@Z@PEB_W@?$basic_string@_WU?$char_traits@_W@std@@V?$allocator@_W@2@@std@@AEAAAEAV01@_KV<lambda_1>@?1??assign@01@QEAAAEAV01@QEB_W0@Z@PEB_W@Z ; std::basic_string<wchar_t,std::char_traits<wchar_t>,std::allocator<wchar_t> >::_Reallocate_for<`std::basic_string<wchar_t,std::char_traits<wchar_t>,std::allocator<wchar_t> >::assign'::`2'::<lambda_1>,wchar_t const *>
PUBLIC	??R<lambda_1>@?1??append@?$basic_string@_WU?$char_traits@_W@std@@V?$allocator@_W@2@@std@@QEAAAEAV23@QEB_W_K@Z@QEBA@QEA_W0101@Z ; `std::basic_string<wchar_t,std::char_traits<wchar_t>,std::allocator<wchar_t> >::append'::`2'::<lambda_1>::operator()
PUBLIC	??$_Reallocate_grow_by@V<lambda_1>@?1??append@?$basic_string@_WU?$char_traits@_W@std@@V?$allocator@_W@2@@std@@QEAAAEAV34@QEB_W_K@Z@PEB_W_K@?$basic_string@_WU?$char_traits@_W@std@@V?$allocator@_W@2@@std@@AEAAAEAV01@_KV<lambda_1>@?1??append@01@QEAAAEAV01@QEB_W0@Z@PEB_W_K@Z ; std::basic_string<wchar_t,std::char_traits<wchar_t>,std::allocator<wchar_t> >::_Reallocate_grow_by<`std::basic_string<wchar_t,std::char_traits<wchar_t>,std::allocator<wchar_t> >::append'::`2'::<lambda_1>,wchar_t const *,unsigned __int64>
PUBLIC	??$addressof@$$CBV?$basic_string@_WU?$char_traits@_W@std@@V?$allocator@_W@2@@std@@@std@@YAPEBV?$basic_string@_WU?$char_traits@_W@std@@V?$allocator@_W@2@@0@AEBV10@@Z ; std::addressof<std::basic_string<wchar_t,std::char_traits<wchar_t>,std::allocator<wchar_t> > const >
PUBLIC	??$_Pocca@V?$allocator@_W@std@@@std@@YAXAEAV?$allocator@_W@0@AEBV10@@Z ; std::_Pocca<std::allocator<wchar_t> >
PUBLIC	??$?0_W@?$allocator@U_Container_proxy@std@@@std@@QEAA@AEBV?$allocator@_W@1@@Z ; std::allocator<std::_Container_proxy>::allocator<std::_Container_proxy><wchar_t>
PUBLIC	??$_Pocma@V?$allocator@_W@std@@@std@@YAXAEAV?$allocator@_W@0@0@Z ; std::_Pocma<std::allocator<wchar_t> >
PUBLIC	??$?0V?$allocator@_W@std@@$$V@?$_Compressed_pair@V?$allocator@_W@std@@V?$_String_val@U?$_Simple_types@_W@std@@@2@$00@std@@QEAA@U_One_then_variadic_args_t@1@$$QEAV?$allocator@_W@1@@Z ; std::_Compressed_pair<std::allocator<wchar_t>,std::_String_val<std::_Simple_types<wchar_t> >,1>::_Compressed_pair<std::allocator<wchar_t>,std::_String_val<std::_Simple_types<wchar_t> >,1><std::allocator<wchar_t> >
PUBLIC	??$?0$$V@?$_Compressed_pair@V?$allocator@_W@std@@V?$_String_val@U?$_Simple_types@_W@std@@@2@$00@std@@QEAA@U_Zero_then_variadic_args_t@1@@Z ; std::_Compressed_pair<std::allocator<wchar_t>,std::_String_val<std::_Simple_types<wchar_t> >,1>::_Compressed_pair<std::allocator<wchar_t>,std::_String_val<std::_Simple_types<wchar_t> >,1><>
PUBLIC	??$_Construct@$00PEB_W@?$basic_string@_WU?$char_traits@_W@std@@V?$allocator@_W@2@@std@@AEAAXQEB_W_K@Z ; std::basic_string<wchar_t,std::char_traits<wchar_t>,std::allocator<wchar_t> >::_Construct<1,wchar_t const *>
PUBLIC	??$_Construct@$01PEB_W@?$basic_string@_WU?$char_traits@_W@std@@V?$allocator@_W@2@@std@@AEAAXQEB_W_K@Z ; std::basic_string<wchar_t,std::char_traits<wchar_t>,std::allocator<wchar_t> >::_Construct<2,wchar_t const *>
PUBLIC	??R<lambda_1>@?1??reserve@?$basic_string@DU?$char_traits@D@std@@V?$allocator@D@2@@std@@QEAAX_K@Z@QEBA@QEADQEBD0@Z ; `std::basic_string<char,std::char_traits<char>,std::allocator<char> >::reserve'::`2'::<lambda_1>::operator()
PUBLIC	??$_Reallocate_grow_by@V<lambda_1>@?1??reserve@?$basic_string@DU?$char_traits@D@std@@V?$allocator@D@2@@std@@QEAAX_K@Z@$$V@?$basic_string@DU?$char_traits@D@std@@V?$allocator@D@2@@std@@AEAAAEAV01@_KV<lambda_1>@?1??reserve@01@QEAAX0@Z@@Z ; std::basic_string<char,std::char_traits<char>,std::allocator<char> >::_Reallocate_grow_by<`std::basic_string<char,std::char_traits<char>,std::allocator<char> >::reserve'::`2'::<lambda_1> >
PUBLIC	??$_Refancy@PEAD$0A@@std@@YAPEADPEAD@Z		; std::_Refancy<char *,0>
PUBLIC	??$addressof@V?$_String_val@U?$_Simple_types@D@std@@@std@@@std@@YAPEAV?$_String_val@U?$_Simple_types@D@std@@@0@AEAV10@@Z ; std::addressof<std::_String_val<std::_Simple_types<char> > >
PUBLIC	??$_Convert_size@_K_K@std@@YA_K_K@Z		; std::_Convert_size<unsigned __int64,unsigned __int64>
PUBLIC	??$?0D@?$allocator@U_Container_proxy@std@@@std@@QEAA@AEBV?$allocator@D@1@@Z ; std::allocator<std::_Container_proxy>::allocator<std::_Container_proxy><char>
PUBLIC	??$addressof@V?$basic_string@DU?$char_traits@D@std@@V?$allocator@D@2@@std@@@std@@YAPEAV?$basic_string@DU?$char_traits@D@std@@V?$allocator@D@2@@0@AEAV10@@Z ; std::addressof<std::basic_string<char,std::char_traits<char>,std::allocator<char> > >
PUBLIC	??$_Pocma@V?$allocator@D@std@@@std@@YAXAEAV?$allocator@D@0@0@Z ; std::_Pocma<std::allocator<char> >
PUBLIC	??$?0V?$allocator@D@std@@$$V@?$_Compressed_pair@V?$allocator@D@std@@V?$_String_val@U?$_Simple_types@D@std@@@2@$00@std@@QEAA@U_One_then_variadic_args_t@1@$$QEAV?$allocator@D@1@@Z ; std::_Compressed_pair<std::allocator<char>,std::_String_val<std::_Simple_types<char> >,1>::_Compressed_pair<std::allocator<char>,std::_String_val<std::_Simple_types<char> >,1><std::allocator<char> >
PUBLIC	??$?0$$V@?$_Compressed_pair@V?$allocator@D@std@@V?$_String_val@U?$_Simple_types@D@std@@@2@$00@std@@QEAA@U_Zero_then_variadic_args_t@1@@Z ; std::_Compressed_pair<std::allocator<char>,std::_String_val<std::_Simple_types<char> >,1>::_Compressed_pair<std::allocator<char>,std::_String_val<std::_Simple_types<char> >,1><>
PUBLIC	??$_Construct@$00PEBD@?$basic_string@DU?$char_traits@D@std@@V?$allocator@D@2@@std@@AEAAXQEBD_K@Z ; std::basic_string<char,std::char_traits<char>,std::allocator<char> >::_Construct<1,char const *>
PUBLIC	??$_Construct@$01PEBD@?$basic_string@DU?$char_traits@D@std@@V?$allocator@D@2@@std@@AEAAXQEBD_K@Z ; std::basic_string<char,std::char_traits<char>,std::allocator<char> >::_Construct<2,char const *>
PUBLIC	??$addressof@D@std@@YAPEADAEAD@Z		; std::addressof<char>
PUBLIC	??$addressof@$$CBV?$codecvt@DDU_Mbstatet@@@std@@@std@@YAPEBV?$codecvt@DDU_Mbstatet@@@0@AEBV10@@Z ; std::addressof<std::codecvt<char,char,_Mbstatet> const >
PUBLIC	??$_Destroy_range@V?$allocator@Ufile_task@@@std@@@std@@YAXPEAUfile_task@@QEAU1@AEAV?$allocator@Ufile_task@@@0@@Z ; std::_Destroy_range<std::allocator<file_task> >
PUBLIC	??0?$_Func_base@X$$V@std@@QEAA@XZ		; std::_Func_base<void>::_Func_base<void>
PUBLIC	??$_Destroy_range@V?$allocator@U_Find_file_handle@filesystem@std@@@std@@@std@@YAXPEAU_Find_file_handle@filesystem@0@QEAU120@AEAV?$allocator@U_Find_file_handle@filesystem@std@@@0@@Z ; std::_Destroy_range<std::allocator<std::filesystem::_Find_file_handle> >
PUBLIC	??$_Destroy_in_place@PEA_W@std@@YAXAEAPEA_W@Z	; std::_Destroy_in_place<wchar_t *>
PUBLIC	??R<lambda_1>@?1??append@?$basic_string@_WU?$char_traits@_W@std@@V?$allocator@_W@2@@std@@QEAAAEAV23@_K_W@Z@QEBA@QEA_WQEB_W001@Z ; `std::basic_string<wchar_t,std::char_traits<wchar_t>,std::allocator<wchar_t> >::append'::`2'::<lambda_1>::operator()
PUBLIC	??$_Reallocate_grow_by@V<lambda_1>@?1??append@?$basic_string@_WU?$char_traits@_W@std@@V?$allocator@_W@2@@std@@QEAAAEAV34@_K_W@Z@_K_W@?$basic_string@_WU?$char_traits@_W@std@@V?$allocator@_W@2@@std@@AEAAAEAV01@_KV<lambda_1>@?1??append@01@QEAAAEAV01@0_W@Z@_K_W@Z ; std::basic_string<wchar_t,std::char_traits<wchar_t>,std::allocator<wchar_t> >::_Reallocate_grow_by<`std::basic_string<wchar_t,std::char_traits<wchar_t>,std::allocator<wchar_t> >::append'::`2'::<lambda_1>,unsigned __int64,wchar_t>
PUBLIC	??$_Construct_in_place@PEA_WAEAPEA_W@std@@YAXAEAPEA_W0@Z ; std::_Construct_in_place<wchar_t *,wchar_t * &>
PUBLIC	??$_Destroy_in_place@PEAD@std@@YAXAEAPEAD@Z	; std::_Destroy_in_place<char *>
PUBLIC	??R<lambda_1>@?1??push_back@?$basic_string@DU?$char_traits@D@std@@V?$allocator@D@2@@std@@QEAAXD@Z@QEBA@QEADQEBD_KD@Z ; `std::basic_string<char,std::char_traits<char>,std::allocator<char> >::push_back'::`2'::<lambda_1>::operator()
PUBLIC	??$_Reallocate_grow_by@V<lambda_1>@?1??push_back@?$basic_string@DU?$char_traits@D@std@@V?$allocator@D@2@@std@@QEAAXD@Z@D@?$basic_string@DU?$char_traits@D@std@@V?$allocator@D@2@@std@@AEAAAEAV01@_KV<lambda_1>@?1??push_back@01@QEAAXD@Z@D@Z ; std::basic_string<char,std::char_traits<char>,std::allocator<char> >::_Reallocate_grow_by<`std::basic_string<char,std::char_traits<char>,std::allocator<char> >::push_back'::`2'::<lambda_1>,char>
PUBLIC	??R<lambda_1>@?1??append@?$basic_string@DU?$char_traits@D@std@@V?$allocator@D@2@@std@@QEAAAEAV23@_KD@Z@QEBA@QEADQEBD00D@Z ; `std::basic_string<char,std::char_traits<char>,std::allocator<char> >::append'::`2'::<lambda_1>::operator()
PUBLIC	??$_Reallocate_grow_by@V<lambda_1>@?1??append@?$basic_string@DU?$char_traits@D@std@@V?$allocator@D@2@@std@@QEAAAEAV34@_KD@Z@_KD@?$basic_string@DU?$char_traits@D@std@@V?$allocator@D@2@@std@@AEAAAEAV01@_KV<lambda_1>@?1??append@01@QEAAAEAV01@0D@Z@_KD@Z ; std::basic_string<char,std::char_traits<char>,std::allocator<char> >::_Reallocate_grow_by<`std::basic_string<char,std::char_traits<char>,std::allocator<char> >::append'::`2'::<lambda_1>,unsigned __int64,char>
PUBLIC	??R<lambda_1>@?1??append@?$basic_string@DU?$char_traits@D@std@@V?$allocator@D@2@@std@@QEAAAEAV23@QEBD_K@Z@QEBA@QEAD0101@Z ; `std::basic_string<char,std::char_traits<char>,std::allocator<char> >::append'::`2'::<lambda_1>::operator()
PUBLIC	??$_Reallocate_grow_by@V<lambda_1>@?1??append@?$basic_string@DU?$char_traits@D@std@@V?$allocator@D@2@@std@@QEAAAEAV34@QEBD_K@Z@PEBD_K@?$basic_string@DU?$char_traits@D@std@@V?$allocator@D@2@@std@@AEAAAEAV01@_KV<lambda_1>@?1??append@01@QEAAAEAV01@QEBD0@Z@PEBD_K@Z ; std::basic_string<char,std::char_traits<char>,std::allocator<char> >::_Reallocate_grow_by<`std::basic_string<char,std::char_traits<char>,std::allocator<char> >::append'::`2'::<lambda_1>,char const *,unsigned __int64>
PUBLIC	??$_Construct_in_place@PEADAEAPEAD@std@@YAXAEAPEAD0@Z ; std::_Construct_in_place<char *,char * &>
PUBLIC	??$_Deallocate@$0BA@$0A@@std@@YAXPEAX_K@Z	; std::_Deallocate<16,0>
PUBLIC	??$_Unfancy@$$CBD@std@@YAPEBDPEBD@Z		; std::_Unfancy<char const >
PUBLIC	??$swap@PEAV?$basic_ifstream@DU?$char_traits@D@std@@@std@@$0A@@std@@YAXAEAPEAV?$basic_ifstream@DU?$char_traits@D@std@@@0@0@Z ; std::swap<std::basic_ifstream<char,std::char_traits<char> > *,0>
PUBLIC	??$swap@PEAV_Ref_count_base@std@@$0A@@std@@YAXAEAPEAV_Ref_count_base@0@0@Z ; std::swap<std::_Ref_count_base *,0>
PUBLIC	??$swap@PEAU_Recursive_dir_enum_impl@filesystem@std@@$0A@@std@@YAXAEAPEAU_Recursive_dir_enum_impl@filesystem@0@0@Z ; std::swap<std::filesystem::_Recursive_dir_enum_impl *,0>
PUBLIC	??$_Construct_in_place@PEA_WAEBQEA_W@std@@YAXAEAPEA_WAEBQEA_W@Z ; std::_Construct_in_place<wchar_t *,wchar_t * const &>
PUBLIC	??$addressof@$$CBV?$_String_val@U?$_Simple_types@D@std@@@std@@@std@@YAPEBV?$_String_val@U?$_Simple_types@D@std@@@0@AEBV10@@Z ; std::addressof<std::_String_val<std::_Simple_types<char> > const >
PUBLIC	??$addressof@_W@std@@YAPEA_WAEA_W@Z		; std::addressof<wchar_t>
PUBLIC	??$construct_at@_WAEB_W$0A@@std@@YAPEA_WQEA_WAEB_W@Z ; std::construct_at<wchar_t,wchar_t const &,0>
PUBLIC	??$construct_at@DAEBD$0A@@std@@YAPEADQEADAEBD@Z	; std::construct_at<char,char const &,0>
PUBLIC	??$addressof@U_Container_proxy@std@@@std@@YAPEAU_Container_proxy@0@AEAU10@@Z ; std::addressof<std::_Container_proxy>
PUBLIC	??$construct_at@U_Container_proxy@std@@PEAU_Container_base12@2@$0A@@std@@YAPEAU_Container_proxy@0@QEAU10@$$QEAPEAU_Container_base12@0@@Z ; std::construct_at<std::_Container_proxy,std::_Container_base12 *,0>
PUBLIC	??$_Verify_range@_W@std@@YAXQEB_W0@Z		; std::_Verify_range<wchar_t>
PUBLIC	??R?$default_delete@V_Facet_base@std@@@std@@QEBAXPEAV_Facet_base@1@@Z ; std::default_delete<std::_Facet_base>::operator()
PUBLIC	??1?$unique_ptr@V_Facet_base@std@@U?$default_delete@V_Facet_base@std@@@2@@std@@QEAA@XZ ; std::unique_ptr<std::_Facet_base,std::default_delete<std::_Facet_base> >::~unique_ptr<std::_Facet_base,std::default_delete<std::_Facet_base> >
PUBLIC	?release@?$unique_ptr@V_Facet_base@std@@U?$default_delete@V_Facet_base@std@@@2@@std@@QEAAPEAV_Facet_base@2@XZ ; std::unique_ptr<std::_Facet_base,std::default_delete<std::_Facet_base> >::release
PUBLIC	?_Get_first@?$_Compressed_pair@U?$default_delete@V_Facet_base@std@@@std@@PEAV_Facet_base@2@$00@std@@QEAAAEAU?$default_delete@V_Facet_base@std@@@2@XZ ; std::_Compressed_pair<std::default_delete<std::_Facet_base>,std::_Facet_base *,1>::_Get_first
PUBLIC	?__autoclassinit2@?$unique_ptr@V_Facet_base@std@@U?$default_delete@V_Facet_base@std@@@2@@std@@QEAAX_K@Z ; std::unique_ptr<std::_Facet_base,std::default_delete<std::_Facet_base> >::__autoclassinit2
PUBLIC	??$?0U?$default_delete@V_Facet_base@std@@@std@@$0A@@?$unique_ptr@V_Facet_base@std@@U?$default_delete@V_Facet_base@std@@@2@@std@@QEAA@PEAV_Facet_base@1@@Z ; std::unique_ptr<std::_Facet_base,std::default_delete<std::_Facet_base> >::unique_ptr<std::_Facet_base,std::default_delete<std::_Facet_base> ><std::default_delete<std::_Facet_base>,0>
PUBLIC	??$?0AEBV?$allocator@D@std@@$$V@?$_Compressed_pair@V?$allocator@D@std@@V?$_String_val@U?$_Simple_types@D@std@@@2@$00@std@@QEAA@U_One_then_variadic_args_t@1@AEBV?$allocator@D@1@@Z ; std::_Compressed_pair<std::allocator<char>,std::_String_val<std::_Simple_types<char> >,1>::_Compressed_pair<std::allocator<char>,std::_String_val<std::_Simple_types<char> >,1><std::allocator<char> const &>
PUBLIC	??$_Get_unwrapped@AEAPEB_W@std@@YA?A_TAEAPEB_W@Z ; std::_Get_unwrapped<wchar_t const * &>
PUBLIC	??$_Get_unwrapped@AEBQEB_W@std@@YA?A_TAEBQEB_W@Z ; std::_Get_unwrapped<wchar_t const * const &>
PUBLIC	??$_Seek_wrapped@PEB_WAEAPEB_W@std@@YAXAEAPEB_W0@Z ; std::_Seek_wrapped<wchar_t const *,wchar_t const * &>
PUBLIC	??$_Find_unchecked@PEB_W_W@std@@YAPEB_WPEB_WQEB_WAEB_W@Z ; std::_Find_unchecked<wchar_t const *,wchar_t>
PUBLIC	??$_Seek_wrapped@PEB_WPEB_W@std@@YAXAEAPEB_W$$QEAPEB_W@Z ; std::_Seek_wrapped<wchar_t const *,wchar_t const *>
PUBLIC	??$_Adl_verify_range@V?$reverse_iterator@PEB_W@std@@V12@@std@@YAXAEBV?$reverse_iterator@PEB_W@0@0@Z ; std::_Adl_verify_range<std::reverse_iterator<wchar_t const *>,std::reverse_iterator<wchar_t const *> >
PUBLIC	??$_Get_unwrapped@AEAV?$reverse_iterator@PEB_W@std@@@std@@YA?A_TAEAV?$reverse_iterator@PEB_W@0@@Z ; std::_Get_unwrapped<std::reverse_iterator<wchar_t const *> &>
PUBLIC	??$_Get_unwrapped@AEBV?$reverse_iterator@PEB_W@std@@@std@@YA?A_TAEBV?$reverse_iterator@PEB_W@0@@Z ; std::_Get_unwrapped<std::reverse_iterator<wchar_t const *> const &>
PUBLIC	??$?9PEB_WPEB_W@std@@YA_NAEBV?$reverse_iterator@PEB_W@0@0@Z ; std::operator!=<wchar_t const *,wchar_t const *>
PUBLIC	??$_Seek_wrapped@V?$reverse_iterator@PEB_W@std@@AEAV12@@std@@YAXAEAV?$reverse_iterator@PEB_W@0@0@Z ; std::_Seek_wrapped<std::reverse_iterator<wchar_t const *>,std::reverse_iterator<wchar_t const *> &>
PUBLIC	??$_Convert_wide_to@U?$char_traits@D@std@@V?$allocator@D@2@D@filesystem@std@@YA?AV?$basic_string@DU?$char_traits@D@std@@V?$allocator@D@2@@1@V?$basic_string_view@_WU?$char_traits@_W@std@@@1@AEBV?$allocator@D@1@@Z ; std::filesystem::_Convert_wide_to<std::char_traits<char>,std::allocator<char>,char>
PUBLIC	??$_Convert_Source_to_wide@V?$basic_string_view@_WU?$char_traits@_W@std@@@std@@U_Normal_conversion@filesystem@2@@filesystem@std@@YA?AV?$basic_string@_WU?$char_traits@_W@std@@V?$allocator@_W@2@@1@AEBV?$basic_string_view@_WU?$char_traits@_W@std@@@1@U_Normal_conversion@01@@Z ; std::filesystem::_Convert_Source_to_wide<std::basic_string_view<wchar_t,std::char_traits<wchar_t> >,std::filesystem::_Normal_conversion>
PUBLIC	??$?0AEBV?$allocator@_W@std@@$$V@?$_Compressed_pair@V?$allocator@_W@std@@V?$_String_val@U?$_Simple_types@_W@std@@@2@$00@std@@QEAA@U_One_then_variadic_args_t@1@AEBV?$allocator@_W@1@@Z ; std::_Compressed_pair<std::allocator<wchar_t>,std::_String_val<std::_Simple_types<wchar_t> >,1>::_Compressed_pair<std::allocator<wchar_t>,std::_String_val<std::_Simple_types<wchar_t> >,1><std::allocator<wchar_t> const &>
PUBLIC	??$append@V?$basic_string_view@DU?$char_traits@D@std@@@std@@$0A@@?$basic_string@DU?$char_traits@D@std@@V?$allocator@D@2@@std@@QEAAAEAV01@AEBV?$basic_string_view@DU?$char_traits@D@std@@@1@@Z ; std::basic_string<char,std::char_traits<char>,std::allocator<char> >::append<std::basic_string_view<char,std::char_traits<char> >,0>
PUBLIC	??$make_shared@U_Recursive_dir_enum_impl@filesystem@std@@U_Creator@_Dir_enum_impl@23@AEBW4directory_options@23@@std@@YA?AV?$shared_ptr@U_Recursive_dir_enum_impl@filesystem@std@@@0@$$QEAU_Creator@_Dir_enum_impl@filesystem@0@AEBW4directory_options@40@@Z ; std::make_shared<std::filesystem::_Recursive_dir_enum_impl,std::filesystem::_Dir_enum_impl::_Creator,enum std::filesystem::directory_options const &>
PUBLIC	??$_Convert_Source_to_wide@V?$basic_string@DU?$char_traits@D@std@@V?$allocator@D@2@@std@@U_Normal_conversion@filesystem@2@@filesystem@std@@YA?AV?$basic_string@_WU?$char_traits@_W@std@@V?$allocator@_W@2@@1@AEBV?$basic_string@DU?$char_traits@D@std@@V?$allocator@D@2@@1@U_Normal_conversion@01@@Z ; std::filesystem::_Convert_Source_to_wide<std::basic_string<char,std::char_traits<char>,std::allocator<char> >,std::filesystem::_Normal_conversion>
PUBLIC	??$_Adl_verify_range@V?$_String_iterator@V?$_String_val@U?$_Simple_types@D@std@@@std@@@std@@V12@@std@@YAXAEBV?$_String_iterator@V?$_String_val@U?$_Simple_types@D@std@@@std@@@0@0@Z ; std::_Adl_verify_range<std::_String_iterator<std::_String_val<std::_Simple_types<char> > >,std::_String_iterator<std::_String_val<std::_Simple_types<char> > > >
PUBLIC	??$_Get_unwrapped@AEBV?$_String_iterator@V?$_String_val@U?$_Simple_types@D@std@@@std@@@std@@@std@@YA?A_TAEBV?$_String_iterator@V?$_String_val@U?$_Simple_types@D@std@@@std@@@0@@Z ; std::_Get_unwrapped<std::_String_iterator<std::_String_val<std::_Simple_types<char> > > const &>
PUBLIC	??$_Idl_distance@V?$_String_iterator@V?$_String_val@U?$_Simple_types@D@std@@@std@@@std@@PEAD@std@@YA?A_PAEBQEAD0@Z ; std::_Idl_distance<std::_String_iterator<std::_String_val<std::_Simple_types<char> > >,char *>
PUBLIC	??$_Get_unwrapped_n@AEAV?$_String_iterator@V?$_String_val@U?$_Simple_types@D@std@@@std@@@std@@_J@std@@YA?A_TAEAV?$_String_iterator@V?$_String_val@U?$_Simple_types@D@std@@@std@@@0@_J@Z ; std::_Get_unwrapped_n<std::_String_iterator<std::_String_val<std::_Simple_types<char> > > &,__int64>
PUBLIC	??$_Seek_wrapped@V?$_String_iterator@V?$_String_val@U?$_Simple_types@D@std@@@std@@@std@@AEAPEAD@std@@YAXAEAV?$_String_iterator@V?$_String_val@U?$_Simple_types@D@std@@@std@@@0@AEAPEAD@Z ; std::_Seek_wrapped<std::_String_iterator<std::_String_val<std::_Simple_types<char> > >,char * &>
PUBLIC	??$_Emplace_back_with_unused_capacity@Ufile_task@@@?$vector@Ufile_task@@V?$allocator@Ufile_task@@@std@@@std@@AEAAAEAUfile_task@@$$QEAU2@@Z ; std::vector<file_task,std::allocator<file_task> >::_Emplace_back_with_unused_capacity<file_task>
PUBLIC	??$_Emplace_reallocate@Ufile_task@@@?$vector@Ufile_task@@V?$allocator@Ufile_task@@@std@@@std@@AEAAPEAUfile_task@@QEAU2@$$QEAU2@@Z ; std::vector<file_task,std::allocator<file_task> >::_Emplace_reallocate<file_task>
PUBLIC	??1?$_Ref_count_obj2@V?$basic_ifstream@DU?$char_traits@D@std@@@std@@@std@@UEAA@XZ ; std::_Ref_count_obj2<std::basic_ifstream<char,std::char_traits<char> > >::~_Ref_count_obj2<std::basic_ifstream<char,std::char_traits<char> > >
PUBLIC	?_Destroy@?$_Ref_count_obj2@V?$basic_ifstream@DU?$char_traits@D@std@@@std@@@std@@EEAAXXZ ; std::_Ref_count_obj2<std::basic_ifstream<char,std::char_traits<char> > >::_Destroy
PUBLIC	?_Delete_this@?$_Ref_count_obj2@V?$basic_ifstream@DU?$char_traits@D@std@@@std@@@std@@EEAAXXZ ; std::_Ref_count_obj2<std::basic_ifstream<char,std::char_traits<char> > >::_Delete_this
PUBLIC	??_G?$_Ref_count_obj2@V?$basic_ifstream@DU?$char_traits@D@std@@@std@@@std@@UEAAPEAXI@Z ; std::_Ref_count_obj2<std::basic_ifstream<char,std::char_traits<char> > >::`scalar deleting destructor'
PUBLIC	??$?0AEBV?$basic_string@DU?$char_traits@D@std@@V?$allocator@D@2@@std@@@?$_Ref_count_obj2@V?$basic_ifstream@DU?$char_traits@D@std@@@std@@@std@@QEAA@AEBV?$basic_string@DU?$char_traits@D@std@@V?$allocator@D@2@@1@@Z ; std::_Ref_count_obj2<std::basic_ifstream<char,std::char_traits<char> > >::_Ref_count_obj2<std::basic_ifstream<char,std::char_traits<char> > ><std::basic_string<char,std::char_traits<char>,std::allocator<char> > const &>
PUBLIC	??$addressof@V?$basic_ifstream@DU?$char_traits@D@std@@@std@@@std@@YAPEAV?$basic_ifstream@DU?$char_traits@D@std@@@0@AEAV10@@Z ; std::addressof<std::basic_ifstream<char,std::char_traits<char> > >
PUBLIC	??$_Set_ptr_rep_and_enable_shared@V?$basic_ifstream@DU?$char_traits@D@std@@@std@@@?$shared_ptr@V?$basic_ifstream@DU?$char_traits@D@std@@@std@@@std@@AEAAXQEAV?$basic_ifstream@DU?$char_traits@D@std@@@1@QEAV_Ref_count_base@1@@Z ; std::shared_ptr<std::basic_ifstream<char,std::char_traits<char> > >::_Set_ptr_rep_and_enable_shared<std::basic_ifstream<char,std::char_traits<char> > >
PUBLIC	??$getline@DU?$char_traits@D@std@@V?$allocator@D@2@@std@@YAAEAV?$basic_istream@DU?$char_traits@D@std@@@0@$$QEAV10@AEAV?$basic_string@DU?$char_traits@D@std@@V?$allocator@D@2@@0@D@Z ; std::getline<char,std::char_traits<char>,std::allocator<char> >
PUBLIC	??$_Insert_string@DU?$char_traits@D@std@@_K@std@@YAAEAV?$basic_ostream@DU?$char_traits@D@std@@@0@AEAV10@QEBD_K@Z ; std::_Insert_string<char,std::char_traits<char>,unsigned __int64>
PUBLIC	??$_Deallocate_plain@V?$allocator@U_Container_proxy@std@@@std@@@std@@YAXAEAV?$allocator@U_Container_proxy@std@@@0@QEAU_Container_proxy@0@@Z ; std::_Deallocate_plain<std::allocator<std::_Container_proxy> >
PUBLIC	??$_Unfancy@U_Container_proxy@std@@@std@@YAPEAU_Container_proxy@0@PEAU10@@Z ; std::_Unfancy<std::_Container_proxy>
PUBLIC	??$destroy_at@U_Find_file_handle@filesystem@std@@@std@@YAXQEAU_Find_file_handle@filesystem@0@@Z ; std::destroy_at<std::filesystem::_Find_file_handle>
PUBLIC	??$_Emplace_back_with_unused_capacity@U_Find_file_handle@filesystem@std@@@?$vector@U_Find_file_handle@filesystem@std@@V?$allocator@U_Find_file_handle@filesystem@std@@@3@@std@@AEAAAEAU_Find_file_handle@filesystem@1@$$QEAU231@@Z ; std::vector<std::filesystem::_Find_file_handle,std::allocator<std::filesystem::_Find_file_handle> >::_Emplace_back_with_unused_capacity<std::filesystem::_Find_file_handle>
PUBLIC	??$_Emplace_reallocate@U_Find_file_handle@filesystem@std@@@?$vector@U_Find_file_handle@filesystem@std@@V?$allocator@U_Find_file_handle@filesystem@std@@@3@@std@@AEAAPEAU_Find_file_handle@filesystem@1@QEAU231@$$QEAU231@@Z ; std::vector<std::filesystem::_Find_file_handle,std::allocator<std::filesystem::_Find_file_handle> >::_Emplace_reallocate<std::filesystem::_Find_file_handle>
PUBLIC	??0?$_Container_proxy_ptr12@V?$allocator@U_Container_proxy@std@@@std@@@std@@QEAA@AEAV?$allocator@U_Container_proxy@std@@@1@AEAU_Container_base12@1@@Z ; std::_Container_proxy_ptr12<std::allocator<std::_Container_proxy> >::_Container_proxy_ptr12<std::allocator<std::_Container_proxy> >
PUBLIC	??1?$_Container_proxy_ptr12@V?$allocator@U_Container_proxy@std@@@std@@@std@@QEAA@XZ ; std::_Container_proxy_ptr12<std::allocator<std::_Container_proxy> >::~_Container_proxy_ptr12<std::allocator<std::_Container_proxy> >
PUBLIC	??$_Allocate_for_capacity@$0A@@?$basic_string@_WU?$char_traits@_W@std@@V?$allocator@_W@2@@std@@CAPEA_WAEAV?$allocator@_W@1@AEA_K@Z ; std::basic_string<wchar_t,std::char_traits<wchar_t>,std::allocator<wchar_t> >::_Allocate_for_capacity<0>
PUBLIC	??$_Allocate_for_capacity@$0A@@?$basic_string@DU?$char_traits@D@std@@V?$allocator@D@2@@std@@CAPEADAEAV?$allocator@D@1@AEA_K@Z ; std::basic_string<char,std::char_traits<char>,std::allocator<char> >::_Allocate_for_capacity<0>
PUBLIC	??$_Construct_in_place@PEADAEBQEAD@std@@YAXAEAPEADAEBQEAD@Z ; std::_Construct_in_place<char *,char * const &>
PUBLIC	??$_Unfancy@Ufile_task@@@std@@YAPEAUfile_task@@PEAU1@@Z ; std::_Unfancy<file_task>
PUBLIC	??$destroy@Ufile_task@@@?$_Default_allocator_traits@V?$allocator@Ufile_task@@@std@@@std@@SAXAEAV?$allocator@Ufile_task@@@1@QEAUfile_task@@@Z ; std::_Default_allocator_traits<std::allocator<file_task> >::destroy<file_task>
PUBLIC	??$addressof@PEA_W@std@@YAPEAPEA_WAEAPEA_W@Z	; std::addressof<wchar_t *>
PUBLIC	??$construct_at@PEA_WAEAPEA_W$0A@@std@@YAPEAPEA_WQEAPEA_WAEAPEA_W@Z ; std::construct_at<wchar_t *,wchar_t * &,0>
PUBLIC	??$addressof@PEAD@std@@YAPEAPEADAEAPEAD@Z	; std::addressof<char *>
PUBLIC	??$construct_at@PEADAEAPEAD$0A@@std@@YAPEAPEADQEAPEADAEAPEAD@Z ; std::construct_at<char *,char * &,0>
PUBLIC	??$construct_at@PEA_WAEBQEA_W$0A@@std@@YAPEAPEA_WQEAPEA_WAEBQEA_W@Z ; std::construct_at<wchar_t *,wchar_t * const &,0>
PUBLIC	??$_Destroy_in_place@V?$basic_ifstream@DU?$char_traits@D@std@@@std@@@std@@YAXAEAV?$basic_ifstream@DU?$char_traits@D@std@@@0@@Z ; std::_Destroy_in_place<std::basic_ifstream<char,std::char_traits<char> > >
PUBLIC	??$exchange@PEAV_Facet_base@std@@$$T@std@@YAPEAV_Facet_base@0@AEAPEAV10@$$QEA$$T@Z ; std::exchange<std::_Facet_base *,std::nullptr_t>
PUBLIC	??$_Get_size_of_n@$0BA@@std@@YA_K_K@Z		; std::_Get_size_of_n<16>
PUBLIC	??$_Allocate@$0BA@U_Default_allocate_traits@std@@$0A@@std@@YAPEAX_K@Z ; std::_Allocate<16,std::_Default_allocate_traits,0>
PUBLIC	??$_Move_construct_from@V?$basic_ifstream@DU?$char_traits@D@std@@@std@@@?$_Ptr_base@V?$basic_ifstream@DU?$char_traits@D@std@@@std@@@std@@IEAAX$$QEAV01@@Z ; std::_Ptr_base<std::basic_ifstream<char,std::char_traits<char> > >::_Move_construct_from<std::basic_ifstream<char,std::char_traits<char> > >
PUBLIC	??$_Traits_equal@U?$char_traits@D@std@@@std@@YA_NQEBD_K01@Z ; std::_Traits_equal<std::char_traits<char> >
PUBLIC	??$_Get_size_of_n@$00@std@@YA_K_K@Z		; std::_Get_size_of_n<1>
PUBLIC	??$?0AEAPEAV_Facet_base@std@@@?$_Compressed_pair@U?$default_delete@V_Facet_base@std@@@std@@PEAV_Facet_base@2@$00@std@@QEAA@U_Zero_then_variadic_args_t@1@AEAPEAV_Facet_base@1@@Z ; std::_Compressed_pair<std::default_delete<std::_Facet_base>,std::_Facet_base *,1>::_Compressed_pair<std::default_delete<std::_Facet_base>,std::_Facet_base *,1><std::_Facet_base * &>
PUBLIC	??$_Could_compare_equal_to_value_type@PEB_W_W@std@@YA_NAEB_W@Z ; std::_Could_compare_equal_to_value_type<wchar_t const *,wchar_t>
PUBLIC	??$_To_address@PEB_W@std@@YA?A_PAEBQEB_W@Z	; std::_To_address<wchar_t const *>
PUBLIC	??$to_address@$$CB_W@std@@YAPEB_WQEB_W@Z	; std::to_address<wchar_t const >
PUBLIC	??$__std_find_trivial@$$CB_W_W@@YAPEB_WPEB_W0_W@Z ; __std_find_trivial<wchar_t const ,wchar_t>
PUBLIC	??$_Verify_range@PEB_W$0A@@std@@YAXAEBV?$reverse_iterator@PEB_W@0@0@Z ; std::_Verify_range<wchar_t const *,0>
PUBLIC	??$_Convert_wide_to_narrow@U?$char_traits@D@std@@V?$allocator@D@2@@std@@YA?AV?$basic_string@DU?$char_traits@D@std@@V?$allocator@D@2@@0@W4__std_code_page@@V?$basic_string_view@_WU?$char_traits@_W@std@@@0@AEBV?$allocator@D@0@@Z ; std::_Convert_wide_to_narrow<std::char_traits<char>,std::allocator<char> >
PUBLIC	??$_Stringoid_from_Source@_WU?$char_traits@_W@std@@@filesystem@std@@YA?A_PAEBV?$basic_string_view@_WU?$char_traits@_W@std@@@1@@Z ; std::filesystem::_Stringoid_from_Source<wchar_t,std::char_traits<wchar_t> >
PUBLIC	??$_Convert_stringoid_to_wide@U_Normal_conversion@filesystem@std@@@filesystem@std@@YA?AV?$basic_string@_WU?$char_traits@_W@std@@V?$allocator@_W@2@@1@V?$basic_string_view@_WU?$char_traits@_W@std@@@1@U_Normal_conversion@01@@Z ; std::filesystem::_Convert_stringoid_to_wide<std::filesystem::_Normal_conversion>
PUBLIC	??1?$_Ref_count_obj2@U_Recursive_dir_enum_impl@filesystem@std@@@std@@UEAA@XZ ; std::_Ref_count_obj2<std::filesystem::_Recursive_dir_enum_impl>::~_Ref_count_obj2<std::filesystem::_Recursive_dir_enum_impl>
PUBLIC	?_Destroy@?$_Ref_count_obj2@U_Recursive_dir_enum_impl@filesystem@std@@@std@@EEAAXXZ ; std::_Ref_count_obj2<std::filesystem::_Recursive_dir_enum_impl>::_Destroy
PUBLIC	?_Delete_this@?$_Ref_count_obj2@U_Recursive_dir_enum_impl@filesystem@std@@@std@@EEAAXXZ ; std::_Ref_count_obj2<std::filesystem::_Recursive_dir_enum_impl>::_Delete_this
PUBLIC	??_G?$_Ref_count_obj2@U_Recursive_dir_enum_impl@filesystem@std@@@std@@UEAAPEAXI@Z ; std::_Ref_count_obj2<std::filesystem::_Recursive_dir_enum_impl>::`scalar deleting destructor'
PUBLIC	??$?0U_Creator@_Dir_enum_impl@filesystem@std@@AEBW4directory_options@23@@?$_Ref_count_obj2@U_Recursive_dir_enum_impl@filesystem@std@@@std@@QEAA@$$QEAU_Creator@_Dir_enum_impl@filesystem@1@AEBW4directory_options@41@@Z ; std::_Ref_count_obj2<std::filesystem::_Recursive_dir_enum_impl>::_Ref_count_obj2<std::filesystem::_Recursive_dir_enum_impl><std::filesystem::_Dir_enum_impl::_Creator,enum std::filesystem::directory_options const &>
PUBLIC	??$addressof@U_Recursive_dir_enum_impl@filesystem@std@@@std@@YAPEAU_Recursive_dir_enum_impl@filesystem@0@AEAU120@@Z ; std::addressof<std::filesystem::_Recursive_dir_enum_impl>
PUBLIC	??$_Set_ptr_rep_and_enable_shared@U_Recursive_dir_enum_impl@filesystem@std@@@?$shared_ptr@U_Recursive_dir_enum_impl@filesystem@std@@@std@@AEAAXQEAU_Recursive_dir_enum_impl@filesystem@1@QEAV_Ref_count_base@1@@Z ; std::shared_ptr<std::filesystem::_Recursive_dir_enum_impl>::_Set_ptr_rep_and_enable_shared<std::filesystem::_Recursive_dir_enum_impl>
PUBLIC	??$_Stringoid_from_Source@DU?$char_traits@D@std@@V?$allocator@D@2@@filesystem@std@@YA?A_PAEBV?$basic_string@DU?$char_traits@D@std@@V?$allocator@D@2@@1@@Z ; std::filesystem::_Stringoid_from_Source<char,std::char_traits<char>,std::allocator<char> >
PUBLIC	??$_Convert_stringoid_to_wide@U_Normal_conversion@filesystem@std@@@filesystem@std@@YA?AV?$basic_string@_WU?$char_traits@_W@std@@V?$allocator@_W@2@@1@V?$basic_string_view@DU?$char_traits@D@std@@@1@U_Normal_conversion@01@@Z ; std::filesystem::_Convert_stringoid_to_wide<std::filesystem::_Normal_conversion>
PUBLIC	??$_Construct_in_place@Ufile_task@@U1@@std@@YAXAEAUfile_task@@$$QEAU1@@Z ; std::_Construct_in_place<file_task,file_task>
PUBLIC	??$_Allocate_at_least_helper@V?$allocator@Ufile_task@@@std@@@std@@YAPEAUfile_task@@AEAV?$allocator@Ufile_task@@@0@AEA_K@Z ; std::_Allocate_at_least_helper<std::allocator<file_task> >
PUBLIC	??$construct@Ufile_task@@U1@@?$_Default_allocator_traits@V?$allocator@Ufile_task@@@std@@@std@@SAXAEAV?$allocator@Ufile_task@@@1@QEAUfile_task@@$$QEAU3@@Z ; std::_Default_allocator_traits<std::allocator<file_task> >::construct<file_task,file_task>
PUBLIC	??$_Uninitialized_move@PEAUfile_task@@V?$allocator@Ufile_task@@@std@@@std@@YAPEAUfile_task@@QEAU1@0PEAU1@AEAV?$allocator@Ufile_task@@@0@@Z ; std::_Uninitialized_move<file_task *,std::allocator<file_task> >
PUBLIC	??$_Construct_in_place@V?$basic_ifstream@DU?$char_traits@D@std@@@std@@AEBV?$basic_string@DU?$char_traits@D@std@@V?$allocator@D@2@@2@@std@@YAXAEAV?$basic_ifstream@DU?$char_traits@D@std@@@0@AEBV?$basic_string@DU?$char_traits@D@std@@V?$allocator@D@2@@0@@Z ; std::_Construct_in_place<std::basic_ifstream<char,std::char_traits<char> >,std::basic_string<char,std::char_traits<char>,std::allocator<char> > const &>
PUBLIC	?deallocate@?$_Default_allocator_traits@V?$allocator@U_Container_proxy@std@@@std@@@std@@SAXAEAV?$allocator@U_Container_proxy@std@@@2@QEAU_Container_proxy@2@_K@Z ; std::_Default_allocator_traits<std::allocator<std::_Container_proxy> >::deallocate
PUBLIC	??$_Construct_in_place@U_Find_file_handle@filesystem@std@@U123@@std@@YAXAEAU_Find_file_handle@filesystem@0@$$QEAU120@@Z ; std::_Construct_in_place<std::filesystem::_Find_file_handle,std::filesystem::_Find_file_handle>
PUBLIC	??$_Allocate_at_least_helper@V?$allocator@U_Find_file_handle@filesystem@std@@@std@@@std@@YAPEAU_Find_file_handle@filesystem@0@AEAV?$allocator@U_Find_file_handle@filesystem@std@@@0@AEA_K@Z ; std::_Allocate_at_least_helper<std::allocator<std::filesystem::_Find_file_handle> >
PUBLIC	??$construct@U_Find_file_handle@filesystem@std@@U123@@?$_Default_allocator_traits@V?$allocator@U_Find_file_handle@filesystem@std@@@std@@@std@@SAXAEAV?$allocator@U_Find_file_handle@filesystem@std@@@1@QEAU_Find_file_handle@filesystem@1@$$QEAU341@@Z ; std::_Default_allocator_traits<std::allocator<std::filesystem::_Find_file_handle> >::construct<std::filesystem::_Find_file_handle,std::filesystem::_Find_file_handle>
PUBLIC	??$_Uninitialized_move@PEAU_Find_file_handle@filesystem@std@@V?$allocator@U_Find_file_handle@filesystem@std@@@3@@std@@YAPEAU_Find_file_handle@filesystem@0@QEAU120@0PEAU120@AEAV?$allocator@U_Find_file_handle@filesystem@std@@@0@@Z ; std::_Uninitialized_move<std::filesystem::_Find_file_handle *,std::allocator<std::filesystem::_Find_file_handle> >
PUBLIC	??$_Allocate_at_least_helper@V?$allocator@_W@std@@@std@@YAPEA_WAEAV?$allocator@_W@0@AEA_K@Z ; std::_Allocate_at_least_helper<std::allocator<wchar_t> >
PUBLIC	??$construct_at@_W$$V$0A@@std@@YAPEA_WQEA_W@Z	; std::construct_at<wchar_t,0>
PUBLIC	??$construct_at@D$$V$0A@@std@@YAPEADQEAD@Z	; std::construct_at<char,0>
PUBLIC	??$construct_at@PEADAEBQEAD$0A@@std@@YAPEAPEADQEAPEADAEBQEAD@Z ; std::construct_at<char *,char * const &,0>
PUBLIC	??$destroy_at@Ufile_task@@@std@@YAXQEAUfile_task@@@Z ; std::destroy_at<file_task>
PUBLIC	??$_Allocate_manually_vector_aligned@U_Default_allocate_traits@std@@@std@@YAPEAX_K@Z ; std::_Allocate_manually_vector_aligned<std::_Default_allocate_traits>
PUBLIC	??$_Deallocate@$07$0A@@std@@YAXPEAX_K@Z		; std::_Deallocate<8,0>
PUBLIC	??$_Destroy_in_place@U_Recursive_dir_enum_impl@filesystem@std@@@std@@YAXAEAU_Recursive_dir_enum_impl@filesystem@0@@Z ; std::_Destroy_in_place<std::filesystem::_Recursive_dir_enum_impl>
PUBLIC	??$_Refancy@PEBD$0A@@std@@YAPEBDPEBD@Z		; std::_Refancy<char const *,0>
PUBLIC	??$?0V?$basic_string_view@_WU?$char_traits@_W@std@@@std@@$0A@@?$basic_string@_WU?$char_traits@_W@std@@V?$allocator@_W@2@@std@@QEAA@AEBV?$basic_string_view@_WU?$char_traits@_W@std@@@1@AEBV?$allocator@_W@1@@Z ; std::basic_string<wchar_t,std::char_traits<wchar_t>,std::allocator<wchar_t> >::basic_string<wchar_t,std::char_traits<wchar_t>,std::allocator<wchar_t> ><std::basic_string_view<wchar_t,std::char_traits<wchar_t> >,0>
PUBLIC	??$_Construct_in_place@U_Recursive_dir_enum_impl@filesystem@std@@U_Creator@_Dir_enum_impl@23@AEBW4directory_options@23@@std@@YAXAEAU_Recursive_dir_enum_impl@filesystem@0@$$QEAU_Creator@_Dir_enum_impl@20@AEBW4directory_options@20@@Z ; std::_Construct_in_place<std::filesystem::_Recursive_dir_enum_impl,std::filesystem::_Dir_enum_impl::_Creator,enum std::filesystem::directory_options const &>
PUBLIC	??$addressof@Ufile_task@@@std@@YAPEAUfile_task@@AEAU1@@Z ; std::addressof<file_task>
PUBLIC	??$construct_at@Ufile_task@@U1@$0A@@std@@YAPEAUfile_task@@QEAU1@$$QEAU1@@Z ; std::construct_at<file_task,file_task,0>
PUBLIC	??$_Get_unwrapped@AEBQEAUfile_task@@@std@@YA?A_TAEBQEAUfile_task@@@Z ; std::_Get_unwrapped<file_task * const &>
PUBLIC	??0?$_Uninitialized_backout_al@V?$allocator@Ufile_task@@@std@@@std@@QEAA@PEAUfile_task@@AEAV?$allocator@Ufile_task@@@1@@Z ; std::_Uninitialized_backout_al<std::allocator<file_task> >::_Uninitialized_backout_al<std::allocator<file_task> >
PUBLIC	??1?$_Uninitialized_backout_al@V?$allocator@Ufile_task@@@std@@@std@@QEAA@XZ ; std::_Uninitialized_backout_al<std::allocator<file_task> >::~_Uninitialized_backout_al<std::allocator<file_task> >
PUBLIC	?_Release@?$_Uninitialized_backout_al@V?$allocator@Ufile_task@@@std@@@std@@QEAAPEAUfile_task@@XZ ; std::_Uninitialized_backout_al<std::allocator<file_task> >::_Release
PUBLIC	?__autoclassinit2@?$_Uninitialized_backout_al@V?$allocator@Ufile_task@@@std@@@std@@QEAAX_K@Z ; std::_Uninitialized_backout_al<std::allocator<file_task> >::__autoclassinit2
PUBLIC	??$_Emplace_back@Ufile_task@@@?$_Uninitialized_backout_al@V?$allocator@Ufile_task@@@std@@@std@@QEAAX$$QEAUfile_task@@@Z ; std::_Uninitialized_backout_al<std::allocator<file_task> >::_Emplace_back<file_task>
PUBLIC	??$construct_at@V?$basic_ifstream@DU?$char_traits@D@std@@@std@@AEBV?$basic_string@DU?$char_traits@D@std@@V?$allocator@D@2@@2@$0A@@std@@YAPEAV?$basic_ifstream@DU?$char_traits@D@std@@@0@QEAV10@AEBV?$basic_string@DU?$char_traits@D@std@@V?$allocator@D@2@@0@@Z ; std::construct_at<std::basic_ifstream<char,std::char_traits<char> >,std::basic_string<char,std::char_traits<char>,std::allocator<char> > const &,0>
PUBLIC	??$addressof@U_Find_file_handle@filesystem@std@@@std@@YAPEAU_Find_file_handle@filesystem@0@AEAU120@@Z ; std::addressof<std::filesystem::_Find_file_handle>
PUBLIC	??$construct_at@U_Find_file_handle@filesystem@std@@U123@$0A@@std@@YAPEAU_Find_file_handle@filesystem@0@QEAU120@$$QEAU120@@Z ; std::construct_at<std::filesystem::_Find_file_handle,std::filesystem::_Find_file_handle,0>
PUBLIC	??$_Get_unwrapped@AEBQEAU_Find_file_handle@filesystem@std@@@std@@YA?A_TAEBQEAU_Find_file_handle@filesystem@0@@Z ; std::_Get_unwrapped<std::filesystem::_Find_file_handle * const &>
PUBLIC	??0?$_Uninitialized_backout_al@V?$allocator@U_Find_file_handle@filesystem@std@@@std@@@std@@QEAA@PEAU_Find_file_handle@filesystem@1@AEAV?$allocator@U_Find_file_handle@filesystem@std@@@1@@Z ; std::_Uninitialized_backout_al<std::allocator<std::filesystem::_Find_file_handle> >::_Uninitialized_backout_al<std::allocator<std::filesystem::_Find_file_handle> >
PUBLIC	??1?$_Uninitialized_backout_al@V?$allocator@U_Find_file_handle@filesystem@std@@@std@@@std@@QEAA@XZ ; std::_Uninitialized_backout_al<std::allocator<std::filesystem::_Find_file_handle> >::~_Uninitialized_backout_al<std::allocator<std::filesystem::_Find_file_handle> >
PUBLIC	?_Release@?$_Uninitialized_backout_al@V?$allocator@U_Find_file_handle@filesystem@std@@@std@@@std@@QEAAPEAU_Find_file_handle@filesystem@2@XZ ; std::_Uninitialized_backout_al<std::allocator<std::filesystem::_Find_file_handle> >::_Release
PUBLIC	?__autoclassinit2@?$_Uninitialized_backout_al@V?$allocator@U_Find_file_handle@filesystem@std@@@std@@@std@@QEAAX_K@Z ; std::_Uninitialized_backout_al<std::allocator<std::filesystem::_Find_file_handle> >::__autoclassinit2
PUBLIC	??$_Emplace_back@U_Find_file_handle@filesystem@std@@@?$_Uninitialized_backout_al@V?$allocator@U_Find_file_handle@filesystem@std@@@std@@@std@@QEAAX$$QEAU_Find_file_handle@filesystem@1@@Z ; std::_Uninitialized_backout_al<std::allocator<std::filesystem::_Find_file_handle> >::_Emplace_back<std::filesystem::_Find_file_handle>
PUBLIC	??$_Get_size_of_n@$0CA@@std@@YA_K_K@Z		; std::_Get_size_of_n<32>
PUBLIC	??$_Get_size_of_n@$07@std@@YA_K_K@Z		; std::_Get_size_of_n<8>
PUBLIC	??$_Get_size_of_n@$01@std@@YA_K_K@Z		; std::_Get_size_of_n<2>
PUBLIC	??$addressof@V?$basic_filebuf@DU?$char_traits@D@std@@@std@@@std@@YAPEAV?$basic_filebuf@DU?$char_traits@D@std@@@0@AEAV10@@Z ; std::addressof<std::basic_filebuf<char,std::char_traits<char> > >
PUBLIC	??$construct_at@U_Recursive_dir_enum_impl@filesystem@std@@U_Creator@_Dir_enum_impl@23@AEBW4directory_options@23@$0A@@std@@YAPEAU_Recursive_dir_enum_impl@filesystem@0@QEAU120@$$QEAU_Creator@_Dir_enum_impl@20@AEBW4directory_options@20@@Z ; std::construct_at<std::filesystem::_Recursive_dir_enum_impl,std::filesystem::_Dir_enum_impl::_Creator,enum std::filesystem::directory_options const &,0>
PUBLIC	??_E?$basic_ifstream@DU?$char_traits@D@std@@@std@@$4PPPPPPPM@A@EAAPEAXI@Z ; std::basic_ifstream<char,std::char_traits<char> >::`vector deleting destructor'
PUBLIC	__JustMyCode_Default
PUBLIC	??_7exception@std@@6B@				; std::exception::`vftable'
PUBLIC	??_C@_0BC@EOODALEL@Unknown?5exception@		; `string'
PUBLIC	??_7bad_alloc@std@@6B@				; std::bad_alloc::`vftable'
PUBLIC	??_7bad_array_new_length@std@@6B@		; std::bad_array_new_length::`vftable'
PUBLIC	??_C@_0BF@KINCDENJ@bad?5array?5new?5length@	; `string'
PUBLIC	_TI3?AVbad_array_new_length@std@@
PUBLIC	_CTA3?AVbad_array_new_length@std@@
PUBLIC	??_R0?AVbad_array_new_length@std@@@8		; std::bad_array_new_length `RTTI Type Descriptor'
PUBLIC	_CT??_R0?AVbad_array_new_length@std@@@8??0bad_array_new_length@std@@QEAA@AEBV01@@Z24
PUBLIC	??_R0?AVbad_alloc@std@@@8			; std::bad_alloc `RTTI Type Descriptor'
PUBLIC	_CT??_R0?AVbad_alloc@std@@@8??0bad_alloc@std@@QEAA@AEBV01@@Z24
PUBLIC	??_R0?AVexception@std@@@8			; std::exception `RTTI Type Descriptor'
PUBLIC	_CT??_R0?AVexception@std@@@8??0exception@std@@QEAA@AEBV01@@Z24
PUBLIC	?__LINE__Var@?0??_Adjust_manually_vector_aligned@std@@YAXAEAPEAXAEA_K@Z@4JA ; `std::_Adjust_manually_vector_aligned'::`1'::__LINE__Var
PUBLIC	??_C@_0BB@FCMFBGOM@invalid?5argument@		; `string'
PUBLIC	??_C@_02DKCKIIND@?$CFs@				; `string'
PUBLIC	??_C@_0GC@MFPFMMDA@C?3?2Program?5Files?2Microsoft?5Visu@ ; `string'
PUBLIC	??_C@_1ME@HBHJKKLJ@?$AAC?$AA?3?$AA?2?$AAP?$AAr?$AAo?$AAg?$AAr?$AAa?$AAm?$AA?5?$AAF?$AAi?$AAl?$AAe@ ; `string'
PUBLIC	??_C@_11LOCGONAA@@				; `string'
PUBLIC	??_C@_1CG@JNLFBNGN@?$AA?$CC?$AAi?$AAn?$AAv?$AAa?$AAl?$AAi?$AAd?$AA?5?$AAa?$AAr?$AAg?$AAu?$AAm?$AAe@ ; `string'
PUBLIC	??_C@_0BJ@LFDBABJJ@ITERATOR?5LIST?5CORRUPTED?$CB@ ; `string'
PUBLIC	??_C@_1DG@PLBPCAEM@?$AA?$CC?$AAI?$AAT?$AAE?$AAR?$AAA?$AAT?$AAO?$AAR?$AA?5?$AAL?$AAI?$AAS?$AAT?$AA?5@ ; `string'
PUBLIC	??_C@_0BA@JFNIOLAK@string?5too?5long@		; `string'
PUBLIC	??_7runtime_error@std@@6B@			; std::runtime_error::`vftable'
PUBLIC	??_R0?AVruntime_error@std@@@8			; std::runtime_error `RTTI Type Descriptor'
PUBLIC	_CT??_R0?AVruntime_error@std@@@8??0runtime_error@std@@QEAA@AEBV01@@Z24
PUBLIC	??_7_System_error@std@@6B@			; std::_System_error::`vftable'
PUBLIC	??_C@_02LMMGGCAJ@?3?5@				; `string'
PUBLIC	??_7system_error@std@@6B@			; std::system_error::`vftable'
PUBLIC	_TI4?AVsystem_error@std@@
PUBLIC	_CTA4?AVsystem_error@std@@
PUBLIC	??_R0?AVsystem_error@std@@@8			; std::system_error `RTTI Type Descriptor'
PUBLIC	_CT??_R0?AVsystem_error@std@@@8??0system_error@std@@QEAA@AEBV01@@Z40
PUBLIC	??_R0?AV_System_error@std@@@8			; std::_System_error `RTTI Type Descriptor'
PUBLIC	_CT??_R0?AV_System_error@std@@@8??0_System_error@std@@QEAA@AEBV01@@Z40
PUBLIC	??_7_Generic_error_category@std@@6B@		; std::_Generic_error_category::`vftable'
PUBLIC	??_C@_07DCLBNMLN@generic@			; `string'
PUBLIC	??_7_System_error_category@std@@6B@		; std::_System_error_category::`vftable'
PUBLIC	??_C@_06FHFOAHML@system@			; `string'
PUBLIC	?_Unknown_error@?4??message@_System_error_category@std@@UEBA?AV?$basic_string@DU?$char_traits@D@std@@V?$allocator@D@2@@3@H@Z@4QBDB ; `std::_System_error_category::message'::`5'::_Unknown_error
PUBLIC	??_7bad_cast@std@@6B@				; std::bad_cast::`vftable'
PUBLIC	??_C@_08EPJLHIJG@bad?5cast@			; `string'
PUBLIC	_TI2?AVbad_cast@std@@
PUBLIC	_CTA2?AVbad_cast@std@@
PUBLIC	??_R0?AVbad_cast@std@@@8			; std::bad_cast `RTTI Type Descriptor'
PUBLIC	_CT??_R0?AVbad_cast@std@@@8??0bad_cast@std@@QEAA@AEBV01@@Z24
PUBLIC	??_C@_0GC@GNDJPOJH@C?3?2Program?5Files?2Microsoft?5Visu@ ; `string'
PUBLIC	?__LINE__Var@?0??_Maklocwcs@std@@YAPEA_WPEB_W@Z@4JA ; `std::_Maklocwcs'::`1'::__LINE__Var
PUBLIC	??_C@_0GC@OOHEPMDG@C?3?2Program?5Files?2Microsoft?5Visu@ ; `string'
PUBLIC	??_C@_0BJ@HAJGEHKO@transposed?5pointer?5range@	; `string'
PUBLIC	??_C@_0GD@OFOHMBDA@C?3?2Program?5Files?2Microsoft?5Visu@ ; `string'
PUBLIC	??_C@_1MG@OMEADHM@?$AAC?$AA?3?$AA?2?$AAP?$AAr?$AAo?$AAg?$AAr?$AAa?$AAm?$AA?5?$AAF?$AAi?$AAl?$AAe@ ; `string'
PUBLIC	??_C@_1DG@FJIKMGFD@?$AA?$CC?$AAt?$AAr?$AAa?$AAn?$AAs?$AAp?$AAo?$AAs?$AAe?$AAd?$AA?5?$AAp?$AAo?$AAi@ ; `string'
PUBLIC	?_Is_slash@filesystem@std@@3U_Is_slash_oper@12@B ; std::filesystem::_Is_slash
PUBLIC	??_C@_0BP@FCPKDACH@non?9zero?5size?5null?5string_view@ ; `string'
PUBLIC	??_C@_0GC@DMDIMANJ@C?3?2Program?5Files?2Microsoft?5Visu@ ; `string'
PUBLIC	??_C@_1ME@JPPFFDGI@?$AAC?$AA?3?$AA?2?$AAP?$AAr?$AAo?$AAg?$AAr?$AAa?$AAm?$AA?5?$AAF?$AAi?$AAl?$AAe@ ; `string'
PUBLIC	??_C@_1EC@EBKHCANC@?$AA?$CC?$AAn?$AAo?$AAn?$AA?9?$AAz?$AAe?$AAr?$AAo?$AA?5?$AAs?$AAi?$AAz?$AAe?$AA?5@ ; `string'
PUBLIC	??_7filesystem_error@filesystem@std@@6B@	; std::filesystem::filesystem_error::`vftable'
PUBLIC	??_C@_03NONCDIOG@?3?5?$CC@			; `string'
PUBLIC	??_C@_04PHMHGEMA@?$CC?0?5?$CC@			; `string'
PUBLIC	_TI5?AVfilesystem_error@filesystem@std@@
PUBLIC	_CTA5?AVfilesystem_error@filesystem@std@@
PUBLIC	??_R0?AVfilesystem_error@filesystem@std@@@8	; std::filesystem::filesystem_error `RTTI Type Descriptor'
PUBLIC	_CT??_R0?AVfilesystem_error@filesystem@std@@@8??0filesystem_error@filesystem@std@@QEAA@AEBV012@@Z160
PUBLIC	??_C@_13BBDEGPLJ@?$AA?$CK@			; `string'
PUBLIC	??_C@_0DL@FMJPNKHC@recursive_directory_iterator?3?3r@ ; `string'
PUBLIC	??_C@_0CJ@OMKENMFB@recursive_directory_iterator?3?3o@ ; `string'
PUBLIC	??_C@_09CKOOOICH@file_size@			; `string'
PUBLIC	??_C@_06DJIHEMFI@status@			; `string'
PUBLIC	?mtx@@3Vmutex@std@@A				; mtx
PUBLIC	??_7?$basic_filebuf@DU?$char_traits@D@std@@@std@@6B@ ; std::basic_filebuf<char,std::char_traits<char> >::`vftable'
PUBLIC	??_7?$basic_ifstream@DU?$char_traits@D@std@@@std@@6B@ ; std::basic_ifstream<char,std::char_traits<char> >::`vftable'
PUBLIC	??_8?$basic_ifstream@DU?$char_traits@D@std@@@std@@7B@ ; std::basic_ifstream<char,std::char_traits<char> >::`vbtable'
PUBLIC	??_C@_04LCMACLFG@?4txt@				; `string'
PUBLIC	??_C@_01EEMJAFIK@?6@				; `string'
PUBLIC	??_C@_0N@MLHBNDMD@Line?5found?3?5@		; `string'
PUBLIC	??_C@_08NECKHJEC@?5threads@			; `string'
PUBLIC	??_C@_0CB@MGLNBHFL@Invalid?5count?5of?5threads?4?5Using@ ; `string'
PUBLIC	??_C@_08GGNLKIFL@?5files?$CJ?5@			; `string'
PUBLIC	??_C@_03NIBMKKKC@?5?1?5@			; `string'
PUBLIC	??_C@_01ODHLEDKK@?$CI@				; `string'
PUBLIC	??_C@_02KLLMIGEE@?$CF?5@			; `string'
PUBLIC	??_C@_0M@JBDNNJEK@?$ANProgress?3?5@		; `string'
PUBLIC	??_C@_0BO@OKMPKPLD@back?$CI?$CJ?5called?5on?5empty?5vector@ ; `string'
PUBLIC	??_C@_0GB@HIBDFDKF@C?3?2Program?5Files?2Microsoft?5Visu@ ; `string'
PUBLIC	??_C@_1MC@KFOBHPLE@?$AAC?$AA?3?$AA?2?$AAP?$AAr?$AAo?$AAg?$AAr?$AAa?$AAm?$AA?5?$AAF?$AAi?$AAl?$AAe@ ; `string'
PUBLIC	??_C@_1EA@OBAHGFFK@?$AA?$CC?$AAb?$AAa?$AAc?$AAk?$AA?$CI?$AA?$CJ?$AA?5?$AAc?$AAa?$AAl?$AAl?$AAe?$AAd?$AA?5@ ; `string'
PUBLIC	??_C@_0BI@PJHAPDF@vector?5empty?5before?5pop@	; `string'
PUBLIC	??_C@_1DE@IPIBMNGD@?$AA?$CC?$AAv?$AAe?$AAc?$AAt?$AAo?$AAr?$AA?5?$AAe?$AAm?$AAp?$AAt?$AAy?$AA?5?$AAb@ ; `string'
PUBLIC	??_C@_0N@LPFKKEBD@?3AM?3am?3PM?3pm@		; `string'
PUBLIC	?_Stinit@?1??_Init@?$basic_filebuf@DU?$char_traits@D@std@@@std@@IEAAXPEAU_iobuf@@W4_Initfl@23@@Z@4U_Mbstatet@@A ; `std::basic_filebuf<char,std::char_traits<char> >::_Init'::`2'::_Stinit
PUBLIC	??_C@_0BA@FOIKENOD@vector?5too?5long@		; `string'
PUBLIC	??_C@_0BP@PFIPNLNI@front?$CI?$CJ?5called?5on?5empty?5string@ ; `string'
PUBLIC	??_C@_1EC@DINNLDHA@?$AA?$CC?$AAf?$AAr?$AAo?$AAn?$AAt?$AA?$CI?$AA?$CJ?$AA?5?$AAc?$AAa?$AAl?$AAl?$AAe?$AAd@ ; `string'
PUBLIC	??_C@_0DG@KGHKKGBC@null?5pointer?5cannot?5point?5to?5a?5@ ; `string'
PUBLIC	??_C@_1HA@FACCKGGH@?$AA?$CC?$AAn?$AAu?$AAl?$AAl?$AA?5?$AAp?$AAo?$AAi?$AAn?$AAt?$AAe?$AAr?$AA?5?$AAc@ ; `string'
PUBLIC	??_C@_0CO@HMKHBNHI@cannot?5seek?5value?9initialized?5s@ ; `string'
PUBLIC	??_C@_1GA@DPDCOHLH@?$AA?$CC?$AAc?$AAa?$AAn?$AAn?$AAo?$AAt?$AA?5?$AAs?$AAe?$AAe?$AAk?$AA?5?$AAv?$AAa@ ; `string'
PUBLIC	??_C@_0HL@FFBIGJOL@cannot?5seek?5string?5iterator?5bec@ ; `string'
PUBLIC	??_C@_1BAA@CKOBBKNE@?$AA?$CC?$AAc?$AAa?$AAn?$AAn?$AAo?$AAt?$AA?5?$AAs?$AAe?$AAe?$AAk?$AA?5?$AAs?$AAt@ ; `string'
PUBLIC	??_C@_0CJ@CGBGDMPO@cannot?5seek?5string?5iterator?5bef@ ; `string'
PUBLIC	??_C@_1FG@EJPDEFGL@?$AA?$CC?$AAc?$AAa?$AAn?$AAn?$AAo?$AAt?$AA?5?$AAs?$AAe?$AAe?$AAk?$AA?5?$AAs?$AAt@ ; `string'
PUBLIC	??_C@_0CG@BGNOMIGA@cannot?5seek?5string?5iterator?5aft@ ; `string'
PUBLIC	??_C@_1FA@POFOLIGA@?$AA?$CC?$AAc?$AAa?$AAn?$AAn?$AAo?$AAt?$AA?5?$AAs?$AAe?$AAe?$AAk?$AA?5?$AAs?$AAt@ ; `string'
PUBLIC	??_C@_0BI@CFPLBAOH@invalid?5string?5position@	; `string'
PUBLIC	?_Static@?1???$_Immortalize_memcpy_image@V_Generic_error_category@std@@@std@@YAAEBV_Generic_error_category@1@XZ@4V21@B ; `std::_Immortalize_memcpy_image<std::_Generic_error_category>'::`2'::_Static
PUBLIC	?_Static@?1???$_Immortalize_memcpy_image@V_System_error_category@std@@@std@@YAAEBV_System_error_category@1@XZ@4V21@B ; `std::_Immortalize_memcpy_image<std::_System_error_category>'::`2'::_Static
PUBLIC	??_C@_1BK@MHIKGOKE@?$AA?3?$AAA?$AAM?$AA?3?$AAa?$AAm?$AA?3?$AAP?$AAM?$AA?3?$AAp?$AAm@ ; `string'
PUBLIC	??_C@_0BB@KBEKGHFK@integer?5overflow@		; `string'
PUBLIC	??_C@_1CG@NMONALKO@?$AA?$CC?$AAi?$AAn?$AAt?$AAe?$AAg?$AAe?$AAr?$AA?5?$AAo?$AAv?$AAe?$AAr?$AAf?$AAl@ ; `string'
PUBLIC	??_7?$_Ref_count_obj2@V?$basic_ifstream@DU?$char_traits@D@std@@@std@@@std@@6B@ ; std::_Ref_count_obj2<std::basic_ifstream<char,std::char_traits<char> > >::`vftable'
PUBLIC	?_Psave@?$_Facetptr@V?$codecvt@DDU_Mbstatet@@@std@@@std@@2PEBVfacet@locale@2@EB ; std::_Facetptr<std::codecvt<char,char,_Mbstatet> >::_Psave
PUBLIC	??_C@_0DI@FIGNHEDK@string?5iterators?5in?5range?5are?5f@ ; `string'
PUBLIC	??_C@_1HE@MFNJODIC@?$AA?$CC?$AAs?$AAt?$AAr?$AAi?$AAn?$AAg?$AA?5?$AAi?$AAt?$AAe?$AAr?$AAa?$AAt?$AAo@ ; `string'
PUBLIC	??_C@_0CB@KDGGCAAF@string?5iterator?5range?5transpose@ ; `string'
PUBLIC	??_C@_1EG@NKDFABAL@?$AA?$CC?$AAs?$AAt?$AAr?$AAi?$AAn?$AAg?$AA?5?$AAi?$AAt?$AAe?$AAr?$AAa?$AAt?$AAo@ ; `string'
PUBLIC	??_7?$_Ref_count_obj2@U_Recursive_dir_enum_impl@filesystem@std@@@std@@6B@ ; std::_Ref_count_obj2<std::filesystem::_Recursive_dir_enum_impl>::`vftable'
PUBLIC	??_R4exception@std@@6B@				; std::exception::`RTTI Complete Object Locator'
PUBLIC	??_R3exception@std@@8				; std::exception::`RTTI Class Hierarchy Descriptor'
PUBLIC	??_R2exception@std@@8				; std::exception::`RTTI Base Class Array'
PUBLIC	??_R1A@?0A@EA@exception@std@@8			; std::exception::`RTTI Base Class Descriptor at (0,-1,0,64)'
PUBLIC	??_R4bad_alloc@std@@6B@				; std::bad_alloc::`RTTI Complete Object Locator'
PUBLIC	??_R3bad_alloc@std@@8				; std::bad_alloc::`RTTI Class Hierarchy Descriptor'
PUBLIC	??_R2bad_alloc@std@@8				; std::bad_alloc::`RTTI Base Class Array'
PUBLIC	??_R1A@?0A@EA@bad_alloc@std@@8			; std::bad_alloc::`RTTI Base Class Descriptor at (0,-1,0,64)'
PUBLIC	??_R4bad_array_new_length@std@@6B@		; std::bad_array_new_length::`RTTI Complete Object Locator'
PUBLIC	??_R3bad_array_new_length@std@@8		; std::bad_array_new_length::`RTTI Class Hierarchy Descriptor'
PUBLIC	??_R2bad_array_new_length@std@@8		; std::bad_array_new_length::`RTTI Base Class Array'
PUBLIC	??_R1A@?0A@EA@bad_array_new_length@std@@8	; std::bad_array_new_length::`RTTI Base Class Descriptor at (0,-1,0,64)'
PUBLIC	??_R1A@?0A@EA@?$basic_streambuf@DU?$char_traits@D@std@@@std@@8 ; std::basic_streambuf<char,std::char_traits<char> >::`RTTI Base Class Descriptor at (0,-1,0,64)'
PUBLIC	??_R0?AV?$basic_streambuf@DU?$char_traits@D@std@@@std@@@8 ; std::basic_streambuf<char,std::char_traits<char> > `RTTI Type Descriptor'
PUBLIC	??_R3?$basic_streambuf@DU?$char_traits@D@std@@@std@@8 ; std::basic_streambuf<char,std::char_traits<char> >::`RTTI Class Hierarchy Descriptor'
PUBLIC	??_R2?$basic_streambuf@DU?$char_traits@D@std@@@std@@8 ; std::basic_streambuf<char,std::char_traits<char> >::`RTTI Base Class Array'
PUBLIC	??_R1A@A@3FA@?$basic_ios@DU?$char_traits@D@std@@@std@@8 ; std::basic_ios<char,std::char_traits<char> >::`RTTI Base Class Descriptor at (0,0,4,80)'
PUBLIC	??_R0?AV?$basic_ios@DU?$char_traits@D@std@@@std@@@8 ; std::basic_ios<char,std::char_traits<char> > `RTTI Type Descriptor'
PUBLIC	??_R3?$basic_ios@DU?$char_traits@D@std@@@std@@8	; std::basic_ios<char,std::char_traits<char> >::`RTTI Class Hierarchy Descriptor'
PUBLIC	??_R2?$basic_ios@DU?$char_traits@D@std@@@std@@8	; std::basic_ios<char,std::char_traits<char> >::`RTTI Base Class Array'
PUBLIC	??_R1A@?0A@EA@?$basic_ios@DU?$char_traits@D@std@@@std@@8 ; std::basic_ios<char,std::char_traits<char> >::`RTTI Base Class Descriptor at (0,-1,0,64)'
PUBLIC	??_R1A@?0A@EA@ios_base@std@@8			; std::ios_base::`RTTI Base Class Descriptor at (0,-1,0,64)'
PUBLIC	??_R0?AVios_base@std@@@8			; std::ios_base `RTTI Type Descriptor'
PUBLIC	??_R3ios_base@std@@8				; std::ios_base::`RTTI Class Hierarchy Descriptor'
PUBLIC	??_R2ios_base@std@@8				; std::ios_base::`RTTI Base Class Array'
PUBLIC	??_R17?0A@EA@?$_Iosb@H@std@@8			; std::_Iosb<int>::`RTTI Base Class Descriptor at (8,-1,0,64)'
PUBLIC	??_R0?AV?$_Iosb@H@std@@@8			; std::_Iosb<int> `RTTI Type Descriptor'
PUBLIC	??_R3?$_Iosb@H@std@@8				; std::_Iosb<int>::`RTTI Class Hierarchy Descriptor'
PUBLIC	??_R2?$_Iosb@H@std@@8				; std::_Iosb<int>::`RTTI Base Class Array'
PUBLIC	??_R1A@?0A@EA@?$_Iosb@H@std@@8			; std::_Iosb<int>::`RTTI Base Class Descriptor at (0,-1,0,64)'
PUBLIC	??_R1A@A@3EA@ios_base@std@@8			; std::ios_base::`RTTI Base Class Descriptor at (0,0,4,64)'
PUBLIC	??_R17A@3EA@?$_Iosb@H@std@@8			; std::_Iosb<int>::`RTTI Base Class Descriptor at (8,0,4,64)'
PUBLIC	??_R4?$basic_filebuf@DU?$char_traits@D@std@@@std@@6B@ ; std::basic_filebuf<char,std::char_traits<char> >::`RTTI Complete Object Locator'
PUBLIC	??_R0?AV?$basic_filebuf@DU?$char_traits@D@std@@@std@@@8 ; std::basic_filebuf<char,std::char_traits<char> > `RTTI Type Descriptor'
PUBLIC	??_R3?$basic_filebuf@DU?$char_traits@D@std@@@std@@8 ; std::basic_filebuf<char,std::char_traits<char> >::`RTTI Class Hierarchy Descriptor'
PUBLIC	??_R2?$basic_filebuf@DU?$char_traits@D@std@@@std@@8 ; std::basic_filebuf<char,std::char_traits<char> >::`RTTI Base Class Array'
PUBLIC	??_R1A@?0A@EA@?$basic_filebuf@DU?$char_traits@D@std@@@std@@8 ; std::basic_filebuf<char,std::char_traits<char> >::`RTTI Base Class Descriptor at (0,-1,0,64)'
PUBLIC	??_R4?$basic_ifstream@DU?$char_traits@D@std@@@std@@6B@ ; std::basic_ifstream<char,std::char_traits<char> >::`RTTI Complete Object Locator'
PUBLIC	??_R0?AV?$basic_ifstream@DU?$char_traits@D@std@@@std@@@8 ; std::basic_ifstream<char,std::char_traits<char> > `RTTI Type Descriptor'
PUBLIC	??_R3?$basic_ifstream@DU?$char_traits@D@std@@@std@@8 ; std::basic_ifstream<char,std::char_traits<char> >::`RTTI Class Hierarchy Descriptor'
PUBLIC	??_R2?$basic_ifstream@DU?$char_traits@D@std@@@std@@8 ; std::basic_ifstream<char,std::char_traits<char> >::`RTTI Base Class Array'
PUBLIC	??_R1A@?0A@EA@?$basic_ifstream@DU?$char_traits@D@std@@@std@@8 ; std::basic_ifstream<char,std::char_traits<char> >::`RTTI Base Class Descriptor at (0,-1,0,64)'
PUBLIC	??_R1A@?0A@EA@?$basic_istream@DU?$char_traits@D@std@@@std@@8 ; std::basic_istream<char,std::char_traits<char> >::`RTTI Base Class Descriptor at (0,-1,0,64)'
PUBLIC	??_R0?AV?$basic_istream@DU?$char_traits@D@std@@@std@@@8 ; std::basic_istream<char,std::char_traits<char> > `RTTI Type Descriptor'
PUBLIC	??_R3?$basic_istream@DU?$char_traits@D@std@@@std@@8 ; std::basic_istream<char,std::char_traits<char> >::`RTTI Class Hierarchy Descriptor'
PUBLIC	??_R2?$basic_istream@DU?$char_traits@D@std@@@std@@8 ; std::basic_istream<char,std::char_traits<char> >::`RTTI Base Class Array'
PUBLIC	??_R4runtime_error@std@@6B@			; std::runtime_error::`RTTI Complete Object Locator'
PUBLIC	??_R3runtime_error@std@@8			; std::runtime_error::`RTTI Class Hierarchy Descriptor'
PUBLIC	??_R2runtime_error@std@@8			; std::runtime_error::`RTTI Base Class Array'
PUBLIC	??_R1A@?0A@EA@runtime_error@std@@8		; std::runtime_error::`RTTI Base Class Descriptor at (0,-1,0,64)'
PUBLIC	??_R0?AVerror_category@std@@@8			; std::error_category `RTTI Type Descriptor'
PUBLIC	??_R3error_category@std@@8			; std::error_category::`RTTI Class Hierarchy Descriptor'
PUBLIC	??_R2error_category@std@@8			; std::error_category::`RTTI Base Class Array'
PUBLIC	??_R1A@?0A@EA@error_category@std@@8		; std::error_category::`RTTI Base Class Descriptor at (0,-1,0,64)'
PUBLIC	??_R4_System_error@std@@6B@			; std::_System_error::`RTTI Complete Object Locator'
PUBLIC	??_R3_System_error@std@@8			; std::_System_error::`RTTI Class Hierarchy Descriptor'
PUBLIC	??_R2_System_error@std@@8			; std::_System_error::`RTTI Base Class Array'
PUBLIC	??_R1A@?0A@EA@_System_error@std@@8		; std::_System_error::`RTTI Base Class Descriptor at (0,-1,0,64)'
PUBLIC	??_R4system_error@std@@6B@			; std::system_error::`RTTI Complete Object Locator'
PUBLIC	??_R3system_error@std@@8			; std::system_error::`RTTI Class Hierarchy Descriptor'
PUBLIC	??_R2system_error@std@@8			; std::system_error::`RTTI Base Class Array'
PUBLIC	??_R1A@?0A@EA@system_error@std@@8		; std::system_error::`RTTI Base Class Descriptor at (0,-1,0,64)'
PUBLIC	??_R4_Generic_error_category@std@@6B@		; std::_Generic_error_category::`RTTI Complete Object Locator'
PUBLIC	??_R0?AV_Generic_error_category@std@@@8		; std::_Generic_error_category `RTTI Type Descriptor'
PUBLIC	??_R3_Generic_error_category@std@@8		; std::_Generic_error_category::`RTTI Class Hierarchy Descriptor'
PUBLIC	??_R2_Generic_error_category@std@@8		; std::_Generic_error_category::`RTTI Base Class Array'
PUBLIC	??_R1A@?0A@EA@_Generic_error_category@std@@8	; std::_Generic_error_category::`RTTI Base Class Descriptor at (0,-1,0,64)'
PUBLIC	??_R4_System_error_category@std@@6B@		; std::_System_error_category::`RTTI Complete Object Locator'
PUBLIC	??_R0?AV_System_error_category@std@@@8		; std::_System_error_category `RTTI Type Descriptor'
PUBLIC	??_R3_System_error_category@std@@8		; std::_System_error_category::`RTTI Class Hierarchy Descriptor'
PUBLIC	??_R2_System_error_category@std@@8		; std::_System_error_category::`RTTI Base Class Array'
PUBLIC	??_R1A@?0A@EA@_System_error_category@std@@8	; std::_System_error_category::`RTTI Base Class Descriptor at (0,-1,0,64)'
PUBLIC	??_R4bad_cast@std@@6B@				; std::bad_cast::`RTTI Complete Object Locator'
PUBLIC	??_R3bad_cast@std@@8				; std::bad_cast::`RTTI Class Hierarchy Descriptor'
PUBLIC	??_R2bad_cast@std@@8				; std::bad_cast::`RTTI Base Class Array'
PUBLIC	??_R1A@?0A@EA@bad_cast@std@@8			; std::bad_cast::`RTTI Base Class Descriptor at (0,-1,0,64)'
PUBLIC	??_R0?AV_Ref_count_base@std@@@8			; std::_Ref_count_base `RTTI Type Descriptor'
PUBLIC	??_R3_Ref_count_base@std@@8			; std::_Ref_count_base::`RTTI Class Hierarchy Descriptor'
PUBLIC	??_R2_Ref_count_base@std@@8			; std::_Ref_count_base::`RTTI Base Class Array'
PUBLIC	??_R1A@?0A@EA@_Ref_count_base@std@@8		; std::_Ref_count_base::`RTTI Base Class Descriptor at (0,-1,0,64)'
PUBLIC	??_R4filesystem_error@filesystem@std@@6B@	; std::filesystem::filesystem_error::`RTTI Complete Object Locator'
PUBLIC	??_R3filesystem_error@filesystem@std@@8		; std::filesystem::filesystem_error::`RTTI Class Hierarchy Descriptor'
PUBLIC	??_R2filesystem_error@filesystem@std@@8		; std::filesystem::filesystem_error::`RTTI Base Class Array'
PUBLIC	??_R1A@?0A@EA@filesystem_error@filesystem@std@@8 ; std::filesystem::filesystem_error::`RTTI Base Class Descriptor at (0,-1,0,64)'
PUBLIC	??_R0?AV?$_Func_base@X$$V@std@@@8		; std::_Func_base<void> `RTTI Type Descriptor'
PUBLIC	??_R3?$_Func_base@X$$V@std@@8			; std::_Func_base<void>::`RTTI Class Hierarchy Descriptor'
PUBLIC	??_R2?$_Func_base@X$$V@std@@8			; std::_Func_base<void>::`RTTI Base Class Array'
PUBLIC	??_R1A@?0A@EA@?$_Func_base@X$$V@std@@8		; std::_Func_base<void>::`RTTI Base Class Descriptor at (0,-1,0,64)'
PUBLIC	??_R4?$_Ref_count_obj2@V?$basic_ifstream@DU?$char_traits@D@std@@@std@@@std@@6B@ ; std::_Ref_count_obj2<std::basic_ifstream<char,std::char_traits<char> > >::`RTTI Complete Object Locator'
PUBLIC	??_R0?AV?$_Ref_count_obj2@V?$basic_ifstream@DU?$char_traits@D@std@@@std@@@std@@@8 ; std::_Ref_count_obj2<std::basic_ifstream<char,std::char_traits<char> > > `RTTI Type Descriptor'
PUBLIC	??_R3?$_Ref_count_obj2@V?$basic_ifstream@DU?$char_traits@D@std@@@std@@@std@@8 ; std::_Ref_count_obj2<std::basic_ifstream<char,std::char_traits<char> > >::`RTTI Class Hierarchy Descriptor'
PUBLIC	??_R2?$_Ref_count_obj2@V?$basic_ifstream@DU?$char_traits@D@std@@@std@@@std@@8 ; std::_Ref_count_obj2<std::basic_ifstream<char,std::char_traits<char> > >::`RTTI Base Class Array'
PUBLIC	??_R1A@?0A@EA@?$_Ref_count_obj2@V?$basic_ifstream@DU?$char_traits@D@std@@@std@@@std@@8 ; std::_Ref_count_obj2<std::basic_ifstream<char,std::char_traits<char> > >::`RTTI Base Class Descriptor at (0,-1,0,64)'
PUBLIC	??_R4?$_Ref_count_obj2@U_Recursive_dir_enum_impl@filesystem@std@@@std@@6B@ ; std::_Ref_count_obj2<std::filesystem::_Recursive_dir_enum_impl>::`RTTI Complete Object Locator'
PUBLIC	??_R0?AV?$_Ref_count_obj2@U_Recursive_dir_enum_impl@filesystem@std@@@std@@@8 ; std::_Ref_count_obj2<std::filesystem::_Recursive_dir_enum_impl> `RTTI Type Descriptor'
PUBLIC	??_R3?$_Ref_count_obj2@U_Recursive_dir_enum_impl@filesystem@std@@@std@@8 ; std::_Ref_count_obj2<std::filesystem::_Recursive_dir_enum_impl>::`RTTI Class Hierarchy Descriptor'
PUBLIC	??_R2?$_Ref_count_obj2@U_Recursive_dir_enum_impl@filesystem@std@@@std@@8 ; std::_Ref_count_obj2<std::filesystem::_Recursive_dir_enum_impl>::`RTTI Base Class Array'
PUBLIC	??_R1A@?0A@EA@?$_Ref_count_obj2@U_Recursive_dir_enum_impl@filesystem@std@@@std@@8 ; std::_Ref_count_obj2<std::filesystem::_Recursive_dir_enum_impl>::`RTTI Base Class Descriptor at (0,-1,0,64)'
EXTRN	??2@YAPEAX_K@Z:PROC				; operator new
EXTRN	??3@YAXPEAX@Z:PROC				; operator delete
EXTRN	??3@YAXPEAX_K@Z:PROC				; operator delete
EXTRN	atexit:PROC
EXTRN	__imp__invalid_parameter:PROC
EXTRN	__imp__calloc_dbg:PROC
EXTRN	__imp__CrtDbgReport:PROC
EXTRN	__imp_??0_Lockit@std@@QEAA@H@Z:PROC
EXTRN	__imp_??1_Lockit@std@@QEAA@XZ:PROC
EXTRN	__imp__get_stream_buffer_pointers:PROC
EXTRN	__imp_fclose:PROC
EXTRN	__imp_fflush:PROC
EXTRN	__imp_fgetc:PROC
EXTRN	__imp_fgetpos:PROC
EXTRN	__imp_fputc:PROC
EXTRN	__imp_fread:PROC
EXTRN	__imp_fsetpos:PROC
EXTRN	__imp__fseeki64:PROC
EXTRN	__imp_fwrite:PROC
EXTRN	__imp_setvbuf:PROC
EXTRN	__imp_ungetc:PROC
EXTRN	__imp__lock_file:PROC
EXTRN	__imp__unlock_file:PROC
EXTRN	__std_system_error_allocate_message:PROC
EXTRN	__std_system_error_deallocate_message:PROC
EXTRN	?uncaught_exceptions@std@@YAHXZ:PROC		; std::uncaught_exceptions
EXTRN	__std_exception_copy:PROC
EXTRN	__std_exception_destroy:PROC
EXTRN	??_Eexception@std@@UEAAPEAXI@Z:PROC		; std::exception::`vector deleting destructor'
EXTRN	??_Ebad_alloc@std@@UEAAPEAXI@Z:PROC		; std::bad_alloc::`vector deleting destructor'
EXTRN	??_Ebad_array_new_length@std@@UEAAPEAXI@Z:PROC	; std::bad_array_new_length::`vector deleting destructor'
EXTRN	memcpy:PROC
EXTRN	memmove:PROC
EXTRN	memset:PROC
EXTRN	__imp_wcslen:PROC
EXTRN	strlen:PROC
EXTRN	__std_find_trivial_2:PROC
EXTRN	?_Xbad_alloc@std@@YAXXZ:PROC			; std::_Xbad_alloc
EXTRN	?_Xlength_error@std@@YAXPEBD@Z:PROC		; std::_Xlength_error
EXTRN	?_Xout_of_range@std@@YAXPEBD@Z:PROC		; std::_Xout_of_range
EXTRN	??_Eruntime_error@std@@UEAAPEAXI@Z:PROC		; std::runtime_error::`vector deleting destructor'
EXTRN	_Thrd_hardware_concurrency:PROC
EXTRN	_Mtx_init_in_situ:PROC
EXTRN	_Mtx_destroy_in_situ:PROC
EXTRN	_Mtx_lock:PROC
EXTRN	_Mtx_unlock:PROC
EXTRN	?_Throw_Cpp_error@std@@YAXH@Z:PROC		; std::_Throw_Cpp_error
EXTRN	??_E_System_error@std@@UEAAPEAXI@Z:PROC		; std::_System_error::`vector deleting destructor'
EXTRN	??_Esystem_error@std@@UEAAPEAXI@Z:PROC		; std::system_error::`vector deleting destructor'
EXTRN	?_Syserror_map@std@@YAPEBDH@Z:PROC		; std::_Syserror_map
EXTRN	?_Winerror_map@std@@YAHH@Z:PROC			; std::_Winerror_map
EXTRN	??_E_Generic_error_category@std@@UEAAPEAXI@Z:PROC ; std::_Generic_error_category::`vector deleting destructor'
EXTRN	??_E_System_error_category@std@@UEAAPEAXI@Z:PROC ; std::_System_error_category::`vector deleting destructor'
EXTRN	??_Ebad_cast@std@@UEAAPEAXI@Z:PROC		; std::bad_cast::`vector deleting destructor'
EXTRN	?_Facet_Register@std@@YAXPEAV_Facet_base@1@@Z:PROC ; std::_Facet_Register
EXTRN	__imp_tolower:PROC
EXTRN	_Mbrtowc:PROC
EXTRN	__imp_?_Getcvt@_Locinfo@std@@QEBA?AU_Cvtvec@@XZ:PROC
EXTRN	__imp_?_Getdays@_Locinfo@std@@QEBAPEBDXZ:PROC
EXTRN	__imp_?_Getmonths@_Locinfo@std@@QEBAPEBDXZ:PROC
EXTRN	__imp_?_W_Getdays@_Locinfo@std@@QEBAPEBGXZ:PROC
EXTRN	__imp_?_W_Getmonths@_Locinfo@std@@QEBAPEBGXZ:PROC
EXTRN	__imp_??Bid@locale@std@@QEAA_KXZ:PROC
EXTRN	?_Getgloballocale@locale@std@@CAPEAV_Locimp@12@XZ:PROC ; std::locale::_Getgloballocale
EXTRN	__imp_?always_noconv@codecvt_base@std@@QEBA_NXZ:PROC
EXTRN	__imp_?in@?$codecvt@DDU_Mbstatet@@@std@@QEBAHAEAU_Mbstatet@@PEBD1AEAPEBDPEAD3AEAPEAD@Z:PROC
EXTRN	__imp_?out@?$codecvt@DDU_Mbstatet@@@std@@QEBAHAEAU_Mbstatet@@PEBD1AEAPEBDPEAD3AEAPEAD@Z:PROC
EXTRN	__imp_?unshift@?$codecvt@DDU_Mbstatet@@@std@@QEBAHAEAU_Mbstatet@@PEAD1AEAPEAD@Z:PROC
EXTRN	__imp_?_Getcat@?$codecvt@DDU_Mbstatet@@@std@@SA_KPEAPEBVfacet@locale@2@PEBV42@@Z:PROC
EXTRN	__imp_??Bios_base@std@@QEBA_NXZ:PROC
EXTRN	__imp_?good@ios_base@std@@QEBA_NXZ:PROC
EXTRN	__imp_?flags@ios_base@std@@QEBAHXZ:PROC
EXTRN	__imp_?width@ios_base@std@@QEBA_JXZ:PROC
EXTRN	__imp_?width@ios_base@std@@QEAA_J_J@Z:PROC
EXTRN	__imp_??0?$basic_streambuf@DU?$char_traits@D@std@@@std@@IEAA@XZ:PROC
EXTRN	__imp_??1?$basic_streambuf@DU?$char_traits@D@std@@@std@@UEAA@XZ:PROC
EXTRN	__imp_?getloc@?$basic_streambuf@DU?$char_traits@D@std@@@std@@QEBA?AVlocale@2@XZ:PROC
EXTRN	__imp_?sbumpc@?$basic_streambuf@DU?$char_traits@D@std@@@std@@QEAAHXZ:PROC
EXTRN	__imp_?sgetc@?$basic_streambuf@DU?$char_traits@D@std@@@std@@QEAAHXZ:PROC
EXTRN	__imp_?snextc@?$basic_streambuf@DU?$char_traits@D@std@@@std@@QEAAHXZ:PROC
EXTRN	__imp_?sputc@?$basic_streambuf@DU?$char_traits@D@std@@@std@@QEAAHD@Z:PROC
EXTRN	__imp_?sputn@?$basic_streambuf@DU?$char_traits@D@std@@@std@@QEAA_JPEBD_J@Z:PROC
EXTRN	__imp_?eback@?$basic_streambuf@DU?$char_traits@D@std@@@std@@IEBAPEADXZ:PROC
EXTRN	__imp_?gptr@?$basic_streambuf@DU?$char_traits@D@std@@@std@@IEBAPEADXZ:PROC
EXTRN	__imp_?pptr@?$basic_streambuf@DU?$char_traits@D@std@@@std@@IEBAPEADXZ:PROC
EXTRN	__imp_?egptr@?$basic_streambuf@DU?$char_traits@D@std@@@std@@IEBAPEADXZ:PROC
EXTRN	__imp_?gbump@?$basic_streambuf@DU?$char_traits@D@std@@@std@@IEAAXH@Z:PROC
EXTRN	__imp_?setg@?$basic_streambuf@DU?$char_traits@D@std@@@std@@IEAAXPEAD00@Z:PROC
EXTRN	__imp_?epptr@?$basic_streambuf@DU?$char_traits@D@std@@@std@@IEBAPEADXZ:PROC
EXTRN	__imp_?_Gndec@?$basic_streambuf@DU?$char_traits@D@std@@@std@@IEAAPEADXZ:PROC
EXTRN	__imp_?_Gninc@?$basic_streambuf@DU?$char_traits@D@std@@@std@@IEAAPEADXZ:PROC
EXTRN	__imp_?_Gnavail@?$basic_streambuf@DU?$char_traits@D@std@@@std@@IEBA_JXZ:PROC
EXTRN	__imp_?pbump@?$basic_streambuf@DU?$char_traits@D@std@@@std@@IEAAXH@Z:PROC
EXTRN	__imp_?_Pninc@?$basic_streambuf@DU?$char_traits@D@std@@@std@@IEAAPEADXZ:PROC
EXTRN	__imp_?_Pnavail@?$basic_streambuf@DU?$char_traits@D@std@@@std@@IEBA_JXZ:PROC
EXTRN	__imp_?_Init@?$basic_streambuf@DU?$char_traits@D@std@@@std@@IEAAXXZ:PROC
EXTRN	__imp_?_Init@?$basic_streambuf@DU?$char_traits@D@std@@@std@@IEAAXPEAPEAD0PEAH001@Z:PROC
EXTRN	__imp_?xsgetn@?$basic_streambuf@DU?$char_traits@D@std@@@std@@MEAA_JPEAD_J@Z:PROC
EXTRN	__imp_?xsputn@?$basic_streambuf@DU?$char_traits@D@std@@@std@@MEAA_JPEBD_J@Z:PROC
EXTRN	?_Fiopen@std@@YAPEAU_iobuf@@PEBDHH@Z:PROC	; std::_Fiopen
EXTRN	__imp_??1?$basic_ios@DU?$char_traits@D@std@@@std@@UEAA@XZ:PROC
EXTRN	__imp_?clear@?$basic_ios@DU?$char_traits@D@std@@@std@@QEAAXH_N@Z:PROC
EXTRN	__imp_?setstate@?$basic_ios@DU?$char_traits@D@std@@@std@@QEAAXH_N@Z:PROC
EXTRN	__imp_?tie@?$basic_ios@DU?$char_traits@D@std@@@std@@QEBAPEAV?$basic_ostream@DU?$char_traits@D@std@@@2@XZ:PROC
EXTRN	__imp_?rdbuf@?$basic_ios@DU?$char_traits@D@std@@@std@@QEBAPEAV?$basic_streambuf@DU?$char_traits@D@std@@@2@XZ:PROC
EXTRN	__imp_?fill@?$basic_ios@DU?$char_traits@D@std@@@std@@QEBADXZ:PROC
EXTRN	__imp_?widen@?$basic_ios@DU?$char_traits@D@std@@@std@@QEBADD@Z:PROC
EXTRN	__imp_??0?$basic_ios@DU?$char_traits@D@std@@@std@@IEAA@XZ:PROC
EXTRN	__imp_?_Osfx@?$basic_ostream@DU?$char_traits@D@std@@@std@@QEAAXXZ:PROC
EXTRN	__imp_??6?$basic_ostream@DU?$char_traits@D@std@@@std@@QEAAAEAV01@P6AAEAV01@AEAV01@@Z@Z:PROC
EXTRN	__imp_??6?$basic_ostream@DU?$char_traits@D@std@@@std@@QEAAAEAV01@H@Z:PROC
EXTRN	__imp_??6?$basic_ostream@DU?$char_traits@D@std@@@std@@QEAAAEAV01@I@Z:PROC
EXTRN	__imp_??6?$basic_ostream@DU?$char_traits@D@std@@@std@@QEAAAEAV01@_K@Z:PROC
EXTRN	__imp_??6?$basic_ostream@DU?$char_traits@D@std@@@std@@QEAAAEAV01@PEBX@Z:PROC
EXTRN	__imp_?flush@?$basic_ostream@DU?$char_traits@D@std@@@std@@QEAAAEAV12@XZ:PROC
EXTRN	__imp_??0?$basic_istream@DU?$char_traits@D@std@@@std@@QEAA@PEAV?$basic_streambuf@DU?$char_traits@D@std@@@1@_N@Z:PROC
EXTRN	__imp_??1?$basic_istream@DU?$char_traits@D@std@@@std@@UEAA@XZ:PROC
EXTRN	__imp_?_Ipfx@?$basic_istream@DU?$char_traits@D@std@@@std@@QEAA_N_N@Z:PROC
EXTRN	__imp_?seekg@?$basic_istream@DU?$char_traits@D@std@@@std@@QEAAAEAV12@_JH@Z:PROC
EXTRN	__std_fs_directory_iterator_open:PROC
EXTRN	__std_fs_directory_iterator_close:PROC
EXTRN	__std_fs_get_stats:PROC
EXTRN	__std_fs_directory_iterator_advance:PROC
EXTRN	__std_fs_code_page:PROC
EXTRN	__std_fs_convert_narrow_to_wide:PROC
EXTRN	__std_fs_convert_wide_to_narrow:PROC
EXTRN	__std_fs_convert_wide_to_narrow_replace_chars:PROC
EXTRN	??_Efilesystem_error@filesystem@std@@UEAAPEAXI@Z:PROC ; std::filesystem::filesystem_error::`vector deleting destructor'
EXTRN	??0thread_pool@@QEAA@_K@Z:PROC			; thread_pool::thread_pool
EXTRN	??1thread_pool@@QEAA@XZ:PROC			; thread_pool::~thread_pool
EXTRN	?enqueue@thread_pool@@QEAAXV?$function@$$A6AXXZ@std@@@Z:PROC ; thread_pool::enqueue
EXTRN	??_E?$basic_filebuf@DU?$char_traits@D@std@@@std@@UEAAPEAXI@Z:PROC ; std::basic_filebuf<char,std::char_traits<char> >::`vector deleting destructor'
EXTRN	??_E?$basic_ifstream@DU?$char_traits@D@std@@@std@@UEAAPEAXI@Z:PROC ; std::basic_ifstream<char,std::char_traits<char> >::`vector deleting destructor'
EXTRN	??_E?$_Ref_count_obj2@V?$basic_ifstream@DU?$char_traits@D@std@@@std@@@std@@UEAAPEAXI@Z:PROC ; std::_Ref_count_obj2<std::basic_ifstream<char,std::char_traits<char> > >::`vector deleting destructor'
EXTRN	??_E?$_Ref_count_obj2@U_Recursive_dir_enum_impl@filesystem@std@@@std@@UEAAPEAXI@Z:PROC ; std::_Ref_count_obj2<std::filesystem::_Recursive_dir_enum_impl>::`vector deleting destructor'
EXTRN	?showmanyc@?$basic_streambuf@DU?$char_traits@D@std@@@std@@MEAA_JXZ:PROC ; std::basic_streambuf<char,std::char_traits<char> >::showmanyc
EXTRN	_CxxThrowException:PROC
EXTRN	_RTC_CheckStackVars:PROC
EXTRN	_RTC_InitBase:PROC
EXTRN	_RTC_Shutdown:PROC
EXTRN	__CheckForDebuggerJustMyCode:PROC
EXTRN	__CxxFrameHandler4:PROC
EXTRN	__GSHandlerCheck:PROC
EXTRN	__GSHandlerCheck_EH4:PROC
EXTRN	__security_check_cookie:PROC
EXTRN	memcmp:PROC
EXTRN	??_7type_info@@6B@:BYTE				; type_info::`vftable'
EXTRN	__imp_?id@?$codecvt@DDU_Mbstatet@@@std@@2V0locale@2@A:QWORD
EXTRN	__imp_?cout@std@@3V?$basic_ostream@DU?$char_traits@D@std@@@1@A:BYTE
EXTRN	__security_cookie:QWORD
EXTRN	_fltused:DWORD
_BSS	SEGMENT
?mtx@@3Vmutex@std@@A DB 050H DUP (?)			; mtx
_BSS	ENDS
;	COMDAT ?_Stinit@?1??_Init@?$basic_filebuf@DU?$char_traits@D@std@@@std@@IEAAXPEAU_iobuf@@W4_Initfl@23@@Z@4U_Mbstatet@@A
_BSS	SEGMENT
?_Stinit@?1??_Init@?$basic_filebuf@DU?$char_traits@D@std@@@std@@IEAAXPEAU_iobuf@@W4_Initfl@23@@Z@4U_Mbstatet@@A DQ 01H DUP (?) ; `std::basic_filebuf<char,std::char_traits<char> >::_Init'::`2'::_Stinit
_BSS	ENDS
;	COMDAT ?_Psave@?$_Facetptr@V?$codecvt@DDU_Mbstatet@@@std@@@std@@2PEBVfacet@locale@2@EB
_BSS	SEGMENT
?_Psave@?$_Facetptr@V?$codecvt@DDU_Mbstatet@@@std@@@std@@2PEBVfacet@locale@2@EB DQ 01H DUP (?) ; std::_Facetptr<std::codecvt<char,char,_Mbstatet> >::_Psave
_BSS	ENDS
;	COMDAT pdata
pdata	SEGMENT
$pdata$?__empty_global_delete@@YAXPEAX@Z DD imagerel $LN3
	DD	imagerel $LN3+41
	DD	imagerel $unwind$?__empty_global_delete@@YAXPEAX@Z
pdata	ENDS
;	COMDAT pdata
pdata	SEGMENT
$pdata$?__empty_global_delete@@YAXPEAX_K@Z DD imagerel $LN3
	DD	imagerel $LN3+46
	DD	imagerel $unwind$?__empty_global_delete@@YAXPEAX_K@Z
pdata	ENDS
;	COMDAT pdata
pdata	SEGMENT
$pdata$?__empty_global_delete@@YAXPEAXW4align_val_t@std@@@Z DD imagerel $LN3
	DD	imagerel $LN3+46
	DD	imagerel $unwind$?__empty_global_delete@@YAXPEAXW4align_val_t@std@@@Z
pdata	ENDS
;	COMDAT pdata
pdata	SEGMENT
$pdata$?__empty_global_delete@@YAXPEAX_KW4align_val_t@std@@@Z DD imagerel $LN3
	DD	imagerel $LN3+51
	DD	imagerel $unwind$?__empty_global_delete@@YAXPEAX_KW4align_val_t@std@@@Z
pdata	ENDS
;	COMDAT pdata
pdata	SEGMENT
$pdata$??2@YAPEAX_KPEAX@Z DD imagerel $LN3
	DD	imagerel $LN3+53
	DD	imagerel $unwind$??2@YAPEAX_KPEAX@Z
pdata	ENDS
;	COMDAT pdata
pdata	SEGMENT
$pdata$?is_constant_evaluated@std@@YA_NXZ DD imagerel $LN3
	DD	imagerel $LN3+39
	DD	imagerel $unwind$?is_constant_evaluated@std@@YA_NXZ
pdata	ENDS
;	COMDAT pdata
pdata	SEGMENT
$pdata$??0exception@std@@QEAA@QEBD@Z DD imagerel $LN3
	DD	imagerel $LN3+210
	DD	imagerel $unwind$??0exception@std@@QEAA@QEBD@Z
pdata	ENDS
;	COMDAT pdata
pdata	SEGMENT
$pdata$??0exception@std@@QEAA@QEBDH@Z DD imagerel $LN3
	DD	imagerel $LN3+116
	DD	imagerel $unwind$??0exception@std@@QEAA@QEBDH@Z
pdata	ENDS
;	COMDAT pdata
pdata	SEGMENT
$pdata$??0exception@std@@QEAA@AEBV01@@Z DD imagerel $LN3
	DD	imagerel $LN3+123
	DD	imagerel $unwind$??0exception@std@@QEAA@AEBV01@@Z
pdata	ENDS
;	COMDAT pdata
pdata	SEGMENT
$pdata$??1exception@std@@UEAA@XZ DD imagerel $LN3
	DD	imagerel $LN3+77
	DD	imagerel $unwind$??1exception@std@@UEAA@XZ
pdata	ENDS
;	COMDAT pdata
pdata	SEGMENT
$pdata$?what@exception@std@@UEBAPEBDXZ DD imagerel $LN5
	DD	imagerel $LN5+96
	DD	imagerel $unwind$?what@exception@std@@UEBAPEBDXZ
pdata	ENDS
;	COMDAT pdata
pdata	SEGMENT
$pdata$??_Gexception@std@@UEAAPEAXI@Z DD imagerel $LN4
	DD	imagerel $LN4+82
	DD	imagerel $unwind$??_Gexception@std@@UEAAPEAXI@Z
pdata	ENDS
;	COMDAT pdata
pdata	SEGMENT
$pdata$??0bad_alloc@std@@AEAA@QEBD@Z DD imagerel $LN3
	DD	imagerel $LN3+95
	DD	imagerel $unwind$??0bad_alloc@std@@AEAA@QEBD@Z
pdata	ENDS
;	COMDAT pdata
pdata	SEGMENT
$pdata$??1bad_alloc@std@@UEAA@XZ DD imagerel $LN3
	DD	imagerel $LN3+41
	DD	imagerel $unwind$??1bad_alloc@std@@UEAA@XZ
pdata	ENDS
;	COMDAT pdata
pdata	SEGMENT
$pdata$??0bad_alloc@std@@QEAA@AEBV01@@Z DD imagerel $LN3
	DD	imagerel $LN3+77
	DD	imagerel $unwind$??0bad_alloc@std@@QEAA@AEBV01@@Z
pdata	ENDS
;	COMDAT pdata
pdata	SEGMENT
$pdata$??_Gbad_alloc@std@@UEAAPEAXI@Z DD imagerel $LN4
	DD	imagerel $LN4+82
	DD	imagerel $unwind$??_Gbad_alloc@std@@UEAAPEAXI@Z
pdata	ENDS
;	COMDAT pdata
pdata	SEGMENT
$pdata$??0bad_array_new_length@std@@QEAA@XZ DD imagerel $LN3
	DD	imagerel $LN3+84
	DD	imagerel $unwind$??0bad_array_new_length@std@@QEAA@XZ
pdata	ENDS
;	COMDAT pdata
pdata	SEGMENT
$pdata$??1bad_array_new_length@std@@UEAA@XZ DD imagerel $LN3
	DD	imagerel $LN3+41
	DD	imagerel $unwind$??1bad_array_new_length@std@@UEAA@XZ
pdata	ENDS
;	COMDAT pdata
pdata	SEGMENT
$pdata$??0bad_array_new_length@std@@QEAA@AEBV01@@Z DD imagerel $LN3
	DD	imagerel $LN3+77
	DD	imagerel $unwind$??0bad_array_new_length@std@@QEAA@AEBV01@@Z
pdata	ENDS
;	COMDAT pdata
pdata	SEGMENT
$pdata$??_Gbad_array_new_length@std@@UEAAPEAXI@Z DD imagerel $LN4
	DD	imagerel $LN4+82
	DD	imagerel $unwind$??_Gbad_array_new_length@std@@UEAAPEAXI@Z
pdata	ENDS
;	COMDAT pdata
pdata	SEGMENT
$pdata$?_Throw_bad_array_new_length@std@@YAXXZ DD imagerel $LN3
	DD	imagerel $LN3+68
	DD	imagerel $unwind$?_Throw_bad_array_new_length@std@@YAXXZ
pdata	ENDS
;	COMDAT pdata
pdata	SEGMENT
$pdata$wmemcpy DD imagerel $LN3
	DD	imagerel $LN3+83
	DD	imagerel $unwind$wmemcpy
pdata	ENDS
;	COMDAT pdata
pdata	SEGMENT
$pdata$wmemset DD imagerel $LN6
	DD	imagerel $LN6+126
	DD	imagerel $unwind$wmemset
pdata	ENDS
;	COMDAT pdata
pdata	SEGMENT
$pdata$?max@?$numeric_limits@_J@std@@SA_JXZ DD imagerel $LN3
	DD	imagerel $LN3+47
	DD	imagerel $unwind$?max@?$numeric_limits@_J@std@@SA_JXZ
pdata	ENDS
;	COMDAT pdata
pdata	SEGMENT
$pdata$?_Allocate@_Default_allocate_traits@std@@SAPEAX_K@Z DD imagerel $LN3
	DD	imagerel $LN3+53
	DD	imagerel $unwind$?_Allocate@_Default_allocate_traits@std@@SAPEAX_K@Z
pdata	ENDS
;	COMDAT pdata
pdata	SEGMENT
$pdata$?_Adjust_manually_vector_aligned@std@@YAXAEAPEAXAEA_K@Z DD imagerel $LN21
	DD	imagerel $LN21+453
	DD	imagerel $unwind$?_Adjust_manually_vector_aligned@std@@YAXAEAPEAXAEA_K@Z
pdata	ENDS
;	COMDAT pdata
pdata	SEGMENT
$pdata$??0_Container_proxy@std@@QEAA@PEAU_Container_base12@1@@Z DD imagerel $LN3
	DD	imagerel $LN3+85
	DD	imagerel $unwind$??0_Container_proxy@std@@QEAA@PEAU_Container_base12@1@@Z
pdata	ENDS
;	COMDAT pdata
pdata	SEGMENT
$pdata$??0_Container_base12@std@@QEAA@XZ DD imagerel $LN3
	DD	imagerel $LN3+62
	DD	imagerel $unwind$??0_Container_base12@std@@QEAA@XZ
pdata	ENDS
;	COMDAT pdata
pdata	SEGMENT
$pdata$?_Orphan_all@_Container_base12@std@@QEAAXXZ DD imagerel $LN5
	DD	imagerel $LN5+79
	DD	imagerel $unwind$?_Orphan_all@_Container_base12@std@@QEAAXXZ
pdata	ENDS
;	COMDAT pdata
pdata	SEGMENT
$pdata$?_Swap_proxy_and_iterators@_Container_base12@std@@QEAAXAEAU12@@Z DD imagerel $LN5
	DD	imagerel $LN5+98
	DD	imagerel $unwind$?_Swap_proxy_and_iterators@_Container_base12@std@@QEAAXAEAU12@@Z
pdata	ENDS
;	COMDAT pdata
pdata	SEGMENT
$pdata$?_Orphan_all_unlocked_v3@_Container_base12@std@@AEAAXXZ DD imagerel $LN7
	DD	imagerel $LN7+134
	DD	imagerel $unwind$?_Orphan_all_unlocked_v3@_Container_base12@std@@AEAAXXZ
pdata	ENDS
;	COMDAT pdata
pdata	SEGMENT
$pdata$?_Swap_proxy_and_iterators_unlocked@_Container_base12@std@@AEAAXAEAU12@@Z DD imagerel $LN5
	DD	imagerel $LN5+160
	DD	imagerel $unwind$?_Swap_proxy_and_iterators_unlocked@_Container_base12@std@@AEAAXAEAU12@@Z
pdata	ENDS
;	COMDAT pdata
pdata	SEGMENT
$pdata$?_Orphan_all_locked_v3@_Container_base12@std@@AEAAXXZ DD imagerel $LN3
	DD	imagerel $LN3+151
	DD	imagerel $unwind$?_Orphan_all_locked_v3@_Container_base12@std@@AEAAXXZ
pdata	ENDS
;	COMDAT pdata
pdata	SEGMENT
$pdata$?_Swap_proxy_and_iterators_locked@_Container_base12@std@@AEAAXAEAU12@@Z DD imagerel $LN3
	DD	imagerel $LN3+163
	DD	imagerel $unwind$?_Swap_proxy_and_iterators_locked@_Container_base12@std@@AEAAXAEAU12@@Z
pdata	ENDS
;	COMDAT pdata
pdata	SEGMENT
$pdata$??0_Iterator_base12@std@@QEAA@XZ DD imagerel $LN3
	DD	imagerel $LN3+77
	DD	imagerel $unwind$??0_Iterator_base12@std@@QEAA@XZ
pdata	ENDS
;	COMDAT pdata
pdata	SEGMENT
$pdata$??0_Iterator_base12@std@@QEAA@AEBU01@@Z DD imagerel $LN3
	DD	imagerel $LN3+101
	DD	imagerel $unwind$??0_Iterator_base12@std@@QEAA@AEBU01@@Z
pdata	ENDS
;	COMDAT pdata
pdata	SEGMENT
$pdata$??4_Iterator_base12@std@@QEAAAEAU01@AEBU01@@Z DD imagerel $LN5
	DD	imagerel $LN5+105
	DD	imagerel $unwind$??4_Iterator_base12@std@@QEAAAEAU01@AEBU01@@Z
pdata	ENDS
;	COMDAT pdata
pdata	SEGMENT
$pdata$??1_Iterator_base12@std@@QEAA@XZ DD imagerel $LN5
	DD	imagerel $LN5+79
	DD	imagerel $unwind$??1_Iterator_base12@std@@QEAA@XZ
pdata	ENDS
;	COMDAT pdata
pdata	SEGMENT
$pdata$?_Adopt@_Iterator_base12@std@@QEAAXPEBU_Container_base12@2@@Z DD imagerel $LN5
	DD	imagerel $LN5+98
	DD	imagerel $unwind$?_Adopt@_Iterator_base12@std@@QEAAXPEBU_Container_base12@2@@Z
pdata	ENDS
;	COMDAT pdata
pdata	SEGMENT
$pdata$?_Getcont@_Iterator_base12@std@@QEBAPEBU_Container_base12@2@XZ DD imagerel $LN5
	DD	imagerel $LN5+94
	DD	imagerel $unwind$?_Getcont@_Iterator_base12@std@@QEBAPEBU_Container_base12@2@XZ
pdata	ENDS
;	COMDAT pdata
pdata	SEGMENT
$pdata$?_Assign_unlocked@_Iterator_base12@std@@AEAAXAEBU12@@Z DD imagerel $LN6
	DD	imagerel $LN6+122
	DD	imagerel $unwind$?_Assign_unlocked@_Iterator_base12@std@@AEAAXAEBU12@@Z
pdata	ENDS
;	COMDAT pdata
pdata	SEGMENT
$pdata$?_Assign_locked@_Iterator_base12@std@@AEAAXAEBU12@@Z DD imagerel $LN3
	DD	imagerel $LN3+163
	DD	imagerel $unwind$?_Assign_locked@_Iterator_base12@std@@AEAAXAEBU12@@Z
pdata	ENDS
;	COMDAT pdata
pdata	SEGMENT
$pdata$?_Adopt_unlocked@_Iterator_base12@std@@AEAAXPEBU_Container_base12@2@@Z DD imagerel $LN6
	DD	imagerel $LN6+173
	DD	imagerel $unwind$?_Adopt_unlocked@_Iterator_base12@std@@AEAAXPEBU_Container_base12@2@@Z
pdata	ENDS
;	COMDAT pdata
pdata	SEGMENT
$pdata$?_Adopt_locked@_Iterator_base12@std@@AEAAXPEBU_Container_base12@2@@Z DD imagerel $LN3
	DD	imagerel $LN3+163
	DD	imagerel $unwind$?_Adopt_locked@_Iterator_base12@std@@AEAAXPEBU_Container_base12@2@@Z
pdata	ENDS
;	COMDAT pdata
pdata	SEGMENT
$pdata$?_Orphan_me_unlocked_v3@_Iterator_base12@std@@AEAAXXZ DD imagerel $LN15
	DD	imagerel $LN15+277
	DD	imagerel $unwind$?_Orphan_me_unlocked_v3@_Iterator_base12@std@@AEAAXXZ
pdata	ENDS
;	COMDAT pdata
pdata	SEGMENT
$pdata$?_Orphan_me_locked_v3@_Iterator_base12@std@@AEAAXXZ DD imagerel $LN3
	DD	imagerel $LN3+151
	DD	imagerel $unwind$?_Orphan_me_locked_v3@_Iterator_base12@std@@AEAAXXZ
pdata	ENDS
;	COMDAT pdata
pdata	SEGMENT
$pdata$??$exchange@PEAU_Iterator_base12@std@@$$T@std@@YAPEAU_Iterator_base12@0@AEAPEAU10@$$QEA$$T@Z DD imagerel $LN3
	DD	imagerel $LN3+84
	DD	imagerel $unwind$??$exchange@PEAU_Iterator_base12@std@@$$T@std@@YAPEAU_Iterator_base12@0@AEAPEAU10@$$QEA$$T@Z
pdata	ENDS
;	COMDAT pdata
pdata	SEGMENT
$pdata$?_Release@_Basic_container_proxy_ptr12@std@@QEAAXXZ DD imagerel $LN3
	DD	imagerel $LN3+55
	DD	imagerel $unwind$?_Release@_Basic_container_proxy_ptr12@std@@QEAAXXZ
pdata	ENDS
;	COMDAT pdata
pdata	SEGMENT
$pdata$??0_Basic_container_proxy_ptr12@std@@IEAA@XZ DD imagerel $LN3
	DD	imagerel $LN3+62
	DD	imagerel $unwind$??0_Basic_container_proxy_ptr12@std@@IEAA@XZ
pdata	ENDS
;	COMDAT pdata
pdata	SEGMENT
$pdata$??$addressof@U_Container_base12@std@@@std@@YAPEAU_Container_base12@0@AEAU10@@Z DD imagerel $LN3
	DD	imagerel $LN3+48
	DD	imagerel $unwind$??$addressof@U_Container_base12@std@@@std@@YAPEAU_Container_base12@0@AEAU10@@Z
pdata	ENDS
;	COMDAT pdata
pdata	SEGMENT
$pdata$??$_Construct_in_place@U_Container_proxy@std@@PEAU_Container_base12@2@@std@@YAXAEAU_Container_proxy@0@$$QEAPEAU_Container_base12@0@@Z DD imagerel $LN5
	DD	imagerel $LN5+141
	DD	imagerel $unwind$??$_Construct_in_place@U_Container_proxy@std@@PEAU_Container_base12@2@@std@@YAXAEAU_Container_proxy@0@$$QEAPEAU_Container_base12@0@@Z
pdata	ENDS
;	COMDAT pdata
pdata	SEGMENT
$pdata$?copy@?$_Char_traits@_WG@std@@SAPEA_WQEA_WQEB_W_K@Z DD imagerel $LN7
	DD	imagerel $LN7+178
	DD	imagerel $unwind$?copy@?$_Char_traits@_WG@std@@SAPEA_WQEA_WQEB_W_K@Z
pdata	ENDS
;	COMDAT pdata
pdata	SEGMENT
$pdata$?move@?$_Char_traits@_WG@std@@SAPEA_WQEA_WQEB_W_K@Z DD imagerel $LN16
	DD	imagerel $LN16+332
	DD	imagerel $unwind$?move@?$_Char_traits@_WG@std@@SAPEA_WQEA_WQEB_W_K@Z
pdata	ENDS
;	COMDAT pdata
pdata	SEGMENT
$pdata$?assign@?$_Char_traits@_WG@std@@SAPEA_WQEA_W_K_W@Z DD imagerel $LN11
	DD	imagerel $LN11+211
	DD	imagerel $unwind$?assign@?$_Char_traits@_WG@std@@SAPEA_WQEA_W_K_W@Z
pdata	ENDS
;	COMDAT pdata
pdata	SEGMENT
$pdata$?assign@?$_Char_traits@_WG@std@@SAXAEA_WAEB_W@Z DD imagerel $LN5
	DD	imagerel $LN5+107
	DD	imagerel $unwind$?assign@?$_Char_traits@_WG@std@@SAXAEA_WAEB_W@Z
pdata	ENDS
;	COMDAT pdata
pdata	SEGMENT
$pdata$?compare@?$_WChar_traits@_W@std@@SAHQEB_W0_K@Z DD imagerel $LN7
	DD	imagerel $LN7+232
	DD	imagerel $unwind$?compare@?$_WChar_traits@_W@std@@SAHQEB_W0_K@Z
pdata	ENDS
;	COMDAT pdata
pdata	SEGMENT
$pdata$?length@?$_WChar_traits@_W@std@@SA_KPEB_W@Z DD imagerel $LN4
	DD	imagerel $LN4+101
	DD	imagerel $unwind$?length@?$_WChar_traits@_W@std@@SA_KPEB_W@Z
pdata	ENDS
;	COMDAT pdata
pdata	SEGMENT
$pdata$?assign@?$_WChar_traits@_W@std@@SAPEA_WQEA_W_K_W@Z DD imagerel $LN4
	DD	imagerel $LN4+119
	DD	imagerel $unwind$?assign@?$_WChar_traits@_W@std@@SAPEA_WQEA_W_K_W@Z
pdata	ENDS
;	COMDAT pdata
pdata	SEGMENT
$pdata$?assign@?$_WChar_traits@_W@std@@SAXAEA_WAEB_W@Z DD imagerel $LN4
	DD	imagerel $LN4+99
	DD	imagerel $unwind$?assign@?$_WChar_traits@_W@std@@SAXAEA_WAEB_W@Z
pdata	ENDS
;	COMDAT pdata
pdata	SEGMENT
$pdata$?copy@?$_Char_traits@DH@std@@SAPEADQEADQEBD_K@Z DD imagerel $LN7
	DD	imagerel $LN7+180
	DD	imagerel $unwind$?copy@?$_Char_traits@DH@std@@SAPEADQEADQEBD_K@Z
pdata	ENDS
;	COMDAT pdata
pdata	SEGMENT
$pdata$?move@?$_Char_traits@DH@std@@SAPEADQEADQEBD_K@Z DD imagerel $LN16
	DD	imagerel $LN16+343
	DD	imagerel $unwind$?move@?$_Char_traits@DH@std@@SAPEADQEADQEBD_K@Z
pdata	ENDS
;	COMDAT pdata
pdata	SEGMENT
$pdata$?assign@?$_Char_traits@DH@std@@SAPEADQEAD_KD@Z DD imagerel $LN11
	DD	imagerel $LN11+207
	DD	imagerel $unwind$?assign@?$_Char_traits@DH@std@@SAPEADQEAD_KD@Z
pdata	ENDS
;	COMDAT pdata
pdata	SEGMENT
$pdata$?assign@?$_Char_traits@DH@std@@SAXAEADAEBD@Z DD imagerel $LN5
	DD	imagerel $LN5+106
	DD	imagerel $unwind$?assign@?$_Char_traits@DH@std@@SAXAEADAEBD@Z
pdata	ENDS
;	COMDAT pdata
pdata	SEGMENT
$pdata$?compare@?$_Narrow_char_traits@DH@std@@SAHQEBD0_K@Z DD imagerel $LN3
	DD	imagerel $LN3+77
	DD	imagerel $unwind$?compare@?$_Narrow_char_traits@DH@std@@SAHQEBD0_K@Z
pdata	ENDS
;	COMDAT pdata
pdata	SEGMENT
$pdata$?length@?$_Narrow_char_traits@DH@std@@SA_KQEBD@Z DD imagerel $LN4
	DD	imagerel $LN4+100
	DD	imagerel $unwind$?length@?$_Narrow_char_traits@DH@std@@SA_KQEBD@Z
pdata	ENDS
;	COMDAT pdata
pdata	SEGMENT
$pdata$?assign@?$_Narrow_char_traits@DH@std@@SAPEADQEAD_KD@Z DD imagerel $LN4
	DD	imagerel $LN4+120
	DD	imagerel $unwind$?assign@?$_Narrow_char_traits@DH@std@@SAPEADQEAD_KD@Z
pdata	ENDS
;	COMDAT pdata
pdata	SEGMENT
$pdata$?assign@?$_Narrow_char_traits@DH@std@@SAXAEADAEBD@Z DD imagerel $LN4
	DD	imagerel $LN4+98
	DD	imagerel $unwind$?assign@?$_Narrow_char_traits@DH@std@@SAXAEADAEBD@Z
pdata	ENDS
;	COMDAT pdata
pdata	SEGMENT
$pdata$?to_char_type@?$_Narrow_char_traits@DH@std@@SADH@Z DD imagerel $LN3
	DD	imagerel $LN3+47
	DD	imagerel $unwind$?to_char_type@?$_Narrow_char_traits@DH@std@@SADH@Z
pdata	ENDS
;	COMDAT pdata
pdata	SEGMENT
$pdata$?to_int_type@?$_Narrow_char_traits@DH@std@@SAHD@Z DD imagerel $LN3
	DD	imagerel $LN3+47
	DD	imagerel $unwind$?to_int_type@?$_Narrow_char_traits@DH@std@@SAHD@Z
pdata	ENDS
;	COMDAT pdata
pdata	SEGMENT
$pdata$?eq_int_type@?$_Narrow_char_traits@DH@std@@SA_NHH@Z DD imagerel $LN5
	DD	imagerel $LN5+87
	DD	imagerel $unwind$?eq_int_type@?$_Narrow_char_traits@DH@std@@SA_NHH@Z
pdata	ENDS
;	COMDAT pdata
pdata	SEGMENT
$pdata$?not_eof@?$_Narrow_char_traits@DH@std@@SAHH@Z DD imagerel $LN7
	DD	imagerel $LN7+116
	DD	imagerel $unwind$?not_eof@?$_Narrow_char_traits@DH@std@@SAHH@Z
pdata	ENDS
;	COMDAT pdata
pdata	SEGMENT
$pdata$?eof@?$_Narrow_char_traits@DH@std@@SAHXZ DD imagerel $LN3
	DD	imagerel $LN3+42
	DD	imagerel $unwind$?eof@?$_Narrow_char_traits@DH@std@@SAHXZ
pdata	ENDS
;	COMDAT pdata
pdata	SEGMENT
$pdata$??__Ksv@string_view_literals@literals@std@@YA?AV?$basic_string_view@DU?$char_traits@D@std@@@3@PEBD_K@Z DD imagerel $LN3
	DD	imagerel $LN3+84
	DD	imagerel $unwind$??__Ksv@string_view_literals@literals@std@@YA?AV?$basic_string_view@DU?$char_traits@D@std@@@3@PEBD_K@Z
pdata	ENDS
;	COMDAT pdata
pdata	SEGMENT
$pdata$??0?$basic_string_view@DU?$char_traits@D@std@@@std@@QEAA@QEBD@Z DD imagerel $LN3
	DD	imagerel $LN3+93
	DD	imagerel $unwind$??0?$basic_string_view@DU?$char_traits@D@std@@@std@@QEAA@QEBD@Z
pdata	ENDS
;	COMDAT pdata
pdata	SEGMENT
$pdata$??0?$basic_string_view@DU?$char_traits@D@std@@@std@@QEAA@QEBD_K@Z DD imagerel $LN13
	DD	imagerel $LN13+232
	DD	imagerel $unwind$??0?$basic_string_view@DU?$char_traits@D@std@@@std@@QEAA@QEBD_K@Z
pdata	ENDS
;	COMDAT pdata
pdata	SEGMENT
$pdata$?size@?$basic_string_view@DU?$char_traits@D@std@@@std@@QEBA_KXZ DD imagerel $LN3
	DD	imagerel $LN3+52
	DD	imagerel $unwind$?size@?$basic_string_view@DU?$char_traits@D@std@@@std@@QEBA_KXZ
pdata	ENDS
;	COMDAT pdata
pdata	SEGMENT
$pdata$?empty@?$basic_string_view@DU?$char_traits@D@std@@@std@@QEBA_NXZ DD imagerel $LN5
	DD	imagerel $LN5+84
	DD	imagerel $unwind$?empty@?$basic_string_view@DU?$char_traits@D@std@@@std@@QEBA_NXZ
pdata	ENDS
;	COMDAT pdata
pdata	SEGMENT
$pdata$?data@?$basic_string_view@DU?$char_traits@D@std@@@std@@QEBAPEBDXZ DD imagerel $LN3
	DD	imagerel $LN3+51
	DD	imagerel $unwind$?data@?$basic_string_view@DU?$char_traits@D@std@@@std@@QEBAPEBDXZ
pdata	ENDS
;	COMDAT pdata
pdata	SEGMENT
$pdata$?__autoclassinit2@?$basic_string_view@DU?$char_traits@D@std@@@std@@QEAAX_K@Z DD imagerel $LN3
	DD	imagerel $LN3+50
	DD	imagerel $unwind$?__autoclassinit2@?$basic_string_view@DU?$char_traits@D@std@@@std@@QEAAX_K@Z
pdata	ENDS
;	COMDAT pdata
pdata	SEGMENT
$pdata$??__Ksv@string_view_literals@literals@std@@YA?AV?$basic_string_view@_WU?$char_traits@_W@std@@@3@PEB_W_K@Z DD imagerel $LN3
	DD	imagerel $LN3+84
	DD	imagerel $unwind$??__Ksv@string_view_literals@literals@std@@YA?AV?$basic_string_view@_WU?$char_traits@_W@std@@@3@PEB_W_K@Z
pdata	ENDS
;	COMDAT pdata
pdata	SEGMENT
$pdata$??0?$basic_string_view@_WU?$char_traits@_W@std@@@std@@QEAA@QEB_W@Z DD imagerel $LN3
	DD	imagerel $LN3+93
	DD	imagerel $unwind$??0?$basic_string_view@_WU?$char_traits@_W@std@@@std@@QEAA@QEB_W@Z
pdata	ENDS
;	COMDAT pdata
pdata	SEGMENT
$pdata$??0?$basic_string_view@_WU?$char_traits@_W@std@@@std@@QEAA@QEB_W_K@Z DD imagerel $LN13
	DD	imagerel $LN13+232
	DD	imagerel $unwind$??0?$basic_string_view@_WU?$char_traits@_W@std@@@std@@QEAA@QEB_W_K@Z
pdata	ENDS
;	COMDAT pdata
pdata	SEGMENT
$pdata$?size@?$basic_string_view@_WU?$char_traits@_W@std@@@std@@QEBA_KXZ DD imagerel $LN3
	DD	imagerel $LN3+52
	DD	imagerel $unwind$?size@?$basic_string_view@_WU?$char_traits@_W@std@@@std@@QEBA_KXZ
pdata	ENDS
;	COMDAT pdata
pdata	SEGMENT
$pdata$?empty@?$basic_string_view@_WU?$char_traits@_W@std@@@std@@QEBA_NXZ DD imagerel $LN5
	DD	imagerel $LN5+84
	DD	imagerel $unwind$?empty@?$basic_string_view@_WU?$char_traits@_W@std@@@std@@QEBA_NXZ
pdata	ENDS
;	COMDAT pdata
pdata	SEGMENT
$pdata$?data@?$basic_string_view@_WU?$char_traits@_W@std@@@std@@QEBAPEB_WXZ DD imagerel $LN3
	DD	imagerel $LN3+51
	DD	imagerel $unwind$?data@?$basic_string_view@_WU?$char_traits@_W@std@@@std@@QEBAPEB_WXZ
pdata	ENDS
;	COMDAT pdata
pdata	SEGMENT
$pdata$?__autoclassinit2@?$basic_string_view@_WU?$char_traits@_W@std@@@std@@QEAAX_K@Z DD imagerel $LN3
	DD	imagerel $LN3+50
	DD	imagerel $unwind$?__autoclassinit2@?$basic_string_view@_WU?$char_traits@_W@std@@@std@@QEAAX_K@Z
pdata	ENDS
;	COMDAT pdata
pdata	SEGMENT
$pdata$?_Xlen_string@std@@YAXXZ DD imagerel $LN3
	DD	imagerel $LN3+49
	DD	imagerel $unwind$?_Xlen_string@std@@YAXXZ
pdata	ENDS
;	COMDAT pdata
pdata	SEGMENT
$pdata$??0?$allocator@D@std@@QEAA@XZ DD imagerel $LN3
	DD	imagerel $LN3+48
	DD	imagerel $unwind$??0?$allocator@D@std@@QEAA@XZ
pdata	ENDS
;	COMDAT pdata
pdata	SEGMENT
$pdata$?deallocate@?$allocator@D@std@@QEAAXQEAD_K@Z DD imagerel $LN13
	DD	imagerel $LN13+209
	DD	imagerel $unwind$?deallocate@?$allocator@D@std@@QEAAXQEAD_K@Z
pdata	ENDS
;	COMDAT pdata
pdata	SEGMENT
$pdata$?allocate@?$allocator@D@std@@QEAAPEAD_K@Z DD imagerel $LN3
	DD	imagerel $LN3+66
	DD	imagerel $unwind$?allocate@?$allocator@D@std@@QEAAPEAD_K@Z
pdata	ENDS
;	COMDAT pdata
pdata	SEGMENT
$pdata$?max_size@?$_Default_allocator_traits@V?$allocator@D@std@@@std@@SA_KAEBV?$allocator@D@2@@Z DD imagerel $LN3
	DD	imagerel $LN3+48
	DD	imagerel $unwind$?max_size@?$_Default_allocator_traits@V?$allocator@D@std@@@std@@SA_KAEBV?$allocator@D@2@@Z
pdata	ENDS
;	COMDAT pdata
pdata	SEGMENT
$pdata$?select_on_container_copy_construction@?$_Default_allocator_traits@V?$allocator@D@std@@@std@@SA?AV?$allocator@D@2@AEBV32@@Z DD imagerel $LN3
	DD	imagerel $LN3+53
	DD	imagerel $unwind$?select_on_container_copy_construction@?$_Default_allocator_traits@V?$allocator@D@std@@@std@@SA?AV?$allocator@D@2@AEBV32@@Z
pdata	ENDS
;	COMDAT pdata
pdata	SEGMENT
$pdata$??0?$_String_val@U?$_Simple_types@D@std@@@std@@QEAA@XZ DD imagerel $LN3
	DD	imagerel $LN3+109
	DD	imagerel $unwind$??0?$_String_val@U?$_Simple_types@D@std@@@std@@QEAA@XZ
pdata	ENDS
;	COMDAT pdata
pdata	SEGMENT
$pdata$?_Myptr@?$_String_val@U?$_Simple_types@D@std@@@std@@QEAAPEADXZ DD imagerel $LN4
	DD	imagerel $LN4+99
	DD	imagerel $unwind$?_Myptr@?$_String_val@U?$_Simple_types@D@std@@@std@@QEAAPEADXZ
pdata	ENDS
;	COMDAT pdata
pdata	SEGMENT
$pdata$?_Myptr@?$_String_val@U?$_Simple_types@D@std@@@std@@QEBAPEBDXZ DD imagerel $LN4
	DD	imagerel $LN4+99
	DD	imagerel $unwind$?_Myptr@?$_String_val@U?$_Simple_types@D@std@@@std@@QEBAPEBDXZ
pdata	ENDS
;	COMDAT pdata
pdata	SEGMENT
$pdata$?_Large_mode_engaged@?$_String_val@U?$_Simple_types@D@std@@@std@@QEBA_NXZ DD imagerel $LN5
	DD	imagerel $LN5+84
	DD	imagerel $unwind$?_Large_mode_engaged@?$_String_val@U?$_Simple_types@D@std@@@std@@QEBA_NXZ
pdata	ENDS
;	COMDAT pdata
pdata	SEGMENT
$pdata$?_Activate_SSO_buffer@?$_String_val@U?$_Simple_types@D@std@@@std@@QEAAXXZ DD imagerel $LN7
	DD	imagerel $LN7+104
	DD	imagerel $unwind$?_Activate_SSO_buffer@?$_String_val@U?$_Simple_types@D@std@@@std@@QEAAXXZ
pdata	ENDS
;	COMDAT pdata
pdata	SEGMENT
$pdata$?_Check_offset@?$_String_val@U?$_Simple_types@D@std@@@std@@QEBAX_K@Z DD imagerel $LN4
	DD	imagerel $LN4+71
	DD	imagerel $unwind$?_Check_offset@?$_String_val@U?$_Simple_types@D@std@@@std@@QEBAX_K@Z
pdata	ENDS
;	COMDAT pdata
pdata	SEGMENT
$pdata$?_Xran@?$_String_val@U?$_Simple_types@D@std@@@std@@SAXXZ DD imagerel $LN3
	DD	imagerel $LN3+49
	DD	imagerel $unwind$?_Xran@?$_String_val@U?$_Simple_types@D@std@@@std@@SAXXZ
pdata	ENDS
;	COMDAT pdata
pdata	SEGMENT
$pdata$?_Clamp_suffix_size@?$_String_val@U?$_Simple_types@D@std@@@std@@QEBA_K_K0@Z DD imagerel $LN3
	DD	imagerel $LN3+101
	DD	imagerel $unwind$?_Clamp_suffix_size@?$_String_val@U?$_Simple_types@D@std@@@std@@QEBA_K_K0@Z
pdata	ENDS
;	COMDAT pdata
pdata	SEGMENT
$pdata$??0_Bxty@?$_String_val@U?$_Simple_types@D@std@@@std@@QEAA@XZ DD imagerel $LN3
	DD	imagerel $LN3+71
	DD	imagerel $unwind$??0_Bxty@?$_String_val@U?$_Simple_types@D@std@@@std@@QEAA@XZ
pdata	ENDS
;	COMDAT pdata
pdata	SEGMENT
$pdata$??1_Bxty@?$_String_val@U?$_Simple_types@D@std@@@std@@QEAA@XZ DD imagerel $LN3
	DD	imagerel $LN3+41
	DD	imagerel $unwind$??1_Bxty@?$_String_val@U?$_Simple_types@D@std@@@std@@QEAA@XZ
pdata	ENDS
;	COMDAT pdata
pdata	SEGMENT
$pdata$??1?$_String_val@U?$_Simple_types@D@std@@@std@@QEAA@XZ DD imagerel $LN3
	DD	imagerel $LN3+48
	DD	imagerel $unwind$??1?$_String_val@U?$_Simple_types@D@std@@@std@@QEAA@XZ
pdata	ENDS
;	COMDAT pdata
pdata	SEGMENT
$pdata$??0?$basic_string@DU?$char_traits@D@std@@V?$allocator@D@2@@std@@QEAA@XZ DD imagerel $LN3
	DD	imagerel $LN3+149
	DD	imagerel $unwind$??0?$basic_string@DU?$char_traits@D@std@@V?$allocator@D@2@@std@@QEAA@XZ
pdata	ENDS
;	COMDAT pdata
pdata	SEGMENT
$pdata$??0?$basic_string@DU?$char_traits@D@std@@V?$allocator@D@2@@std@@QEAA@AEBV?$allocator@D@1@@Z DD imagerel $LN3
	DD	imagerel $LN3+161
	DD	imagerel $unwind$??0?$basic_string@DU?$char_traits@D@std@@V?$allocator@D@2@@std@@QEAA@AEBV?$allocator@D@1@@Z
pdata	ENDS
;	COMDAT pdata
pdata	SEGMENT
$pdata$??0?$basic_string@DU?$char_traits@D@std@@V?$allocator@D@2@@std@@QEAA@AEBV01@@Z DD imagerel $LN4
	DD	imagerel $LN4+208
	DD	imagerel $unwind$??0?$basic_string@DU?$char_traits@D@std@@V?$allocator@D@2@@std@@QEAA@AEBV01@@Z
pdata	ENDS
;	COMDAT pdata
pdata	SEGMENT
$pdata$?dtor$0@?0???0?$basic_string@DU?$char_traits@D@std@@V?$allocator@D@2@@std@@QEAA@AEBV01@@Z@4HA DD imagerel ?dtor$0@?0???0?$basic_string@DU?$char_traits@D@std@@V?$allocator@D@2@@std@@QEAA@AEBV01@@Z@4HA
	DD	imagerel ?dtor$0@?0???0?$basic_string@DU?$char_traits@D@std@@V?$allocator@D@2@@std@@QEAA@AEBV01@@Z@4HA+39
	DD	imagerel $unwind$?dtor$0@?0???0?$basic_string@DU?$char_traits@D@std@@V?$allocator@D@2@@std@@QEAA@AEBV01@@Z@4HA
pdata	ENDS
;	COMDAT pdata
pdata	SEGMENT
$pdata$??0?$basic_string@DU?$char_traits@D@std@@V?$allocator@D@2@@std@@QEAA@QEBD_K@Z DD imagerel $LN4
	DD	imagerel $LN4+119
	DD	imagerel $unwind$??0?$basic_string@DU?$char_traits@D@std@@V?$allocator@D@2@@std@@QEAA@QEBD_K@Z
pdata	ENDS
;	COMDAT pdata
pdata	SEGMENT
$pdata$?dtor$0@?0???0?$basic_string@DU?$char_traits@D@std@@V?$allocator@D@2@@std@@QEAA@QEBD_K@Z@4HA DD imagerel ?dtor$0@?0???0?$basic_string@DU?$char_traits@D@std@@V?$allocator@D@2@@std@@QEAA@QEBD_K@Z@4HA
	DD	imagerel ?dtor$0@?0???0?$basic_string@DU?$char_traits@D@std@@V?$allocator@D@2@@std@@QEAA@QEBD_K@Z@4HA+39
	DD	imagerel $unwind$?dtor$0@?0???0?$basic_string@DU?$char_traits@D@std@@V?$allocator@D@2@@std@@QEAA@QEBD_K@Z@4HA
pdata	ENDS
;	COMDAT pdata
pdata	SEGMENT
$pdata$??0?$basic_string@DU?$char_traits@D@std@@V?$allocator@D@2@@std@@QEAA@QEBD@Z DD imagerel $LN4
	DD	imagerel $LN4+130
	DD	imagerel $unwind$??0?$basic_string@DU?$char_traits@D@std@@V?$allocator@D@2@@std@@QEAA@QEBD@Z
pdata	ENDS
;	COMDAT pdata
pdata	SEGMENT
$pdata$?dtor$0@?0???0?$basic_string@DU?$char_traits@D@std@@V?$allocator@D@2@@std@@QEAA@QEBD@Z@4HA DD imagerel ?dtor$0@?0???0?$basic_string@DU?$char_traits@D@std@@V?$allocator@D@2@@std@@QEAA@QEBD@Z@4HA
	DD	imagerel ?dtor$0@?0???0?$basic_string@DU?$char_traits@D@std@@V?$allocator@D@2@@std@@QEAA@QEBD@Z@4HA+39
	DD	imagerel $unwind$?dtor$0@?0???0?$basic_string@DU?$char_traits@D@std@@V?$allocator@D@2@@std@@QEAA@QEBD@Z@4HA
pdata	ENDS
;	COMDAT pdata
pdata	SEGMENT
$pdata$?_Deallocate_for_capacity@?$basic_string@DU?$char_traits@D@std@@V?$allocator@D@2@@std@@CAXAEAV?$allocator@D@2@QEAD_K@Z DD imagerel $LN3
	DD	imagerel $LN3+84
	DD	imagerel $unwind$?_Deallocate_for_capacity@?$basic_string@DU?$char_traits@D@std@@V?$allocator@D@2@@std@@CAXAEAV?$allocator@D@2@QEAD_K@Z
pdata	ENDS
;	COMDAT pdata
pdata	SEGMENT
$pdata$??0?$basic_string@DU?$char_traits@D@std@@V?$allocator@D@2@@std@@QEAA@$$QEAV01@@Z DD imagerel $LN3
	DD	imagerel $LN3+200
	DD	imagerel $unwind$??0?$basic_string@DU?$char_traits@D@std@@V?$allocator@D@2@@std@@QEAA@$$QEAV01@@Z
pdata	ENDS
;	COMDAT pdata
pdata	SEGMENT
$pdata$??4?$basic_string@DU?$char_traits@D@std@@V?$allocator@D@2@@std@@QEAAAEAV01@$$QEAV01@@Z DD imagerel $LN4
	DD	imagerel $LN4+166
	DD	imagerel $unwind$??4?$basic_string@DU?$char_traits@D@std@@V?$allocator@D@2@@std@@QEAAAEAV01@$$QEAV01@@Z
pdata	ENDS
;	COMDAT pdata
pdata	SEGMENT
$pdata$?_Memcpy_val_from@?$basic_string@DU?$char_traits@D@std@@V?$allocator@D@2@@std@@AEAAXAEBV12@@Z DD imagerel $LN3
	DD	imagerel $LN3+111
	DD	imagerel $unwind$?_Memcpy_val_from@?$basic_string@DU?$char_traits@D@std@@V?$allocator@D@2@@std@@AEAAXAEBV12@@Z
pdata	ENDS
;	COMDAT pdata
pdata	SEGMENT
$pdata$?_Take_contents@?$basic_string@DU?$char_traits@D@std@@V?$allocator@D@2@@std@@AEAAXAEAV12@@Z DD imagerel $LN8
	DD	imagerel $LN8+352
	DD	imagerel $unwind$?_Take_contents@?$basic_string@DU?$char_traits@D@std@@V?$allocator@D@2@@std@@AEAAXAEAV12@@Z
pdata	ENDS
;	COMDAT pdata
pdata	SEGMENT
$pdata$??1?$basic_string@DU?$char_traits@D@std@@V?$allocator@D@2@@std@@QEAA@XZ DD imagerel $LN3
	DD	imagerel $LN3+214
	DD	imagerel $unwind$??1?$basic_string@DU?$char_traits@D@std@@V?$allocator@D@2@@std@@QEAA@XZ
pdata	ENDS
;	COMDAT pdata
pdata	SEGMENT
$pdata$??Y?$basic_string@DU?$char_traits@D@std@@V?$allocator@D@2@@std@@QEAAAEAV01@AEBV01@@Z DD imagerel $LN3
	DD	imagerel $LN3+65
	DD	imagerel $unwind$??Y?$basic_string@DU?$char_traits@D@std@@V?$allocator@D@2@@std@@QEAAAEAV01@AEBV01@@Z
pdata	ENDS
;	COMDAT pdata
pdata	SEGMENT
$pdata$??Y?$basic_string@DU?$char_traits@D@std@@V?$allocator@D@2@@std@@QEAAAEAV01@D@Z DD imagerel $LN3
	DD	imagerel $LN3+71
	DD	imagerel $unwind$??Y?$basic_string@DU?$char_traits@D@std@@V?$allocator@D@2@@std@@QEAAAEAV01@D@Z
pdata	ENDS
;	COMDAT pdata
pdata	SEGMENT
$pdata$?append@?$basic_string@DU?$char_traits@D@std@@V?$allocator@D@2@@std@@QEAAAEAV12@AEBV12@@Z DD imagerel $LN3
	DD	imagerel $LN3+112
	DD	imagerel $unwind$?append@?$basic_string@DU?$char_traits@D@std@@V?$allocator@D@2@@std@@QEAAAEAV12@AEBV12@@Z
pdata	ENDS
;	COMDAT pdata
pdata	SEGMENT
$pdata$?append@?$basic_string@DU?$char_traits@D@std@@V?$allocator@D@2@@std@@QEAAAEAV12@QEBD_K@Z DD imagerel $LN4
	DD	imagerel $LN4+284
	DD	imagerel $unwind$?append@?$basic_string@DU?$char_traits@D@std@@V?$allocator@D@2@@std@@QEAAAEAV12@QEBD_K@Z
pdata	ENDS
;	COMDAT pdata
pdata	SEGMENT
$pdata$?append@?$basic_string@DU?$char_traits@D@std@@V?$allocator@D@2@@std@@QEAAAEAV12@QEBD@Z DD imagerel $LN3
	DD	imagerel $LN3+88
	DD	imagerel $unwind$?append@?$basic_string@DU?$char_traits@D@std@@V?$allocator@D@2@@std@@QEAAAEAV12@QEBD@Z
pdata	ENDS
;	COMDAT pdata
pdata	SEGMENT
$pdata$?append@?$basic_string@DU?$char_traits@D@std@@V?$allocator@D@2@@std@@QEAAAEAV12@_KD@Z DD imagerel $LN4
	DD	imagerel $LN4+284
	DD	imagerel $unwind$?append@?$basic_string@DU?$char_traits@D@std@@V?$allocator@D@2@@std@@QEAAAEAV12@_KD@Z
pdata	ENDS
;	COMDAT pdata
pdata	SEGMENT
$pdata$?erase@?$basic_string@DU?$char_traits@D@std@@V?$allocator@D@2@@std@@QEAAAEAV12@_K@Z DD imagerel $LN3
	DD	imagerel $LN3+105
	DD	imagerel $unwind$?erase@?$basic_string@DU?$char_traits@D@std@@V?$allocator@D@2@@std@@QEAAAEAV12@_K@Z
pdata	ENDS
;	COMDAT pdata
pdata	SEGMENT
$pdata$?_Erase_noexcept@?$basic_string@DU?$char_traits@D@std@@V?$allocator@D@2@@std@@AEAAAEAV12@_K_K@Z DD imagerel $LN3
	DD	imagerel $LN3+248
	DD	imagerel $unwind$?_Erase_noexcept@?$basic_string@DU?$char_traits@D@std@@V?$allocator@D@2@@std@@AEAAAEAV12@_K_K@Z
pdata	ENDS
;	COMDAT pdata
pdata	SEGMENT
$pdata$?erase@?$basic_string@DU?$char_traits@D@std@@V?$allocator@D@2@@std@@QEAAAEAV12@_K0@Z DD imagerel $LN3
	DD	imagerel $LN3+110
	DD	imagerel $unwind$?erase@?$basic_string@DU?$char_traits@D@std@@V?$allocator@D@2@@std@@QEAAAEAV12@_K0@Z
pdata	ENDS
;	COMDAT pdata
pdata	SEGMENT
$pdata$?begin@?$basic_string@DU?$char_traits@D@std@@V?$allocator@D@2@@std@@QEAA?AV?$_String_iterator@V?$_String_val@U?$_Simple_types@D@std@@@std@@@2@XZ DD imagerel $LN3
	DD	imagerel $LN3+131
	DD	imagerel $unwind$?begin@?$basic_string@DU?$char_traits@D@std@@V?$allocator@D@2@@std@@QEAA?AV?$_String_iterator@V?$_String_val@U?$_Simple_types@D@std@@@std@@@2@XZ
pdata	ENDS
;	COMDAT pdata
pdata	SEGMENT
$pdata$?end@?$basic_string@DU?$char_traits@D@std@@V?$allocator@D@2@@std@@QEAA?AV?$_String_iterator@V?$_String_val@U?$_Simple_types@D@std@@@std@@@2@XZ DD imagerel $LN3
	DD	imagerel $LN3+142
	DD	imagerel $unwind$?end@?$basic_string@DU?$char_traits@D@std@@V?$allocator@D@2@@std@@QEAA?AV?$_String_iterator@V?$_String_val@U?$_Simple_types@D@std@@@std@@@2@XZ
pdata	ENDS
;	COMDAT pdata
pdata	SEGMENT
$pdata$?push_back@?$basic_string@DU?$char_traits@D@std@@V?$allocator@D@2@@std@@QEAAXD@Z DD imagerel $LN4
	DD	imagerel $LN4+213
	DD	imagerel $unwind$?push_back@?$basic_string@DU?$char_traits@D@std@@V?$allocator@D@2@@std@@QEAAXD@Z
pdata	ENDS
;	COMDAT pdata
pdata	SEGMENT
$pdata$?front@?$basic_string@DU?$char_traits@D@std@@V?$allocator@D@2@@std@@QEAAAEADXZ DD imagerel $LN12
	DD	imagerel $LN12+201
	DD	imagerel $unwind$?front@?$basic_string@DU?$char_traits@D@std@@V?$allocator@D@2@@std@@QEAAAEADXZ
pdata	ENDS
;	COMDAT pdata
pdata	SEGMENT
$pdata$?c_str@?$basic_string@DU?$char_traits@D@std@@V?$allocator@D@2@@std@@QEBAPEBDXZ DD imagerel $LN3
	DD	imagerel $LN3+56
	DD	imagerel $unwind$?c_str@?$basic_string@DU?$char_traits@D@std@@V?$allocator@D@2@@std@@QEBAPEBDXZ
pdata	ENDS
;	COMDAT pdata
pdata	SEGMENT
$pdata$?data@?$basic_string@DU?$char_traits@D@std@@V?$allocator@D@2@@std@@QEBAPEBDXZ DD imagerel $LN3
	DD	imagerel $LN3+56
	DD	imagerel $unwind$?data@?$basic_string@DU?$char_traits@D@std@@V?$allocator@D@2@@std@@QEBAPEBDXZ
pdata	ENDS
;	COMDAT pdata
pdata	SEGMENT
$pdata$?data@?$basic_string@DU?$char_traits@D@std@@V?$allocator@D@2@@std@@QEAAPEADXZ DD imagerel $LN3
	DD	imagerel $LN3+56
	DD	imagerel $unwind$?data@?$basic_string@DU?$char_traits@D@std@@V?$allocator@D@2@@std@@QEAAPEADXZ
pdata	ENDS
;	COMDAT pdata
pdata	SEGMENT
$pdata$?size@?$basic_string@DU?$char_traits@D@std@@V?$allocator@D@2@@std@@QEBA_KXZ DD imagerel $LN3
	DD	imagerel $LN3+52
	DD	imagerel $unwind$?size@?$basic_string@DU?$char_traits@D@std@@V?$allocator@D@2@@std@@QEBA_KXZ
pdata	ENDS
;	COMDAT pdata
pdata	SEGMENT
$pdata$?max_size@?$basic_string@DU?$char_traits@D@std@@V?$allocator@D@2@@std@@QEBA_KXZ DD imagerel $LN3
	DD	imagerel $LN3+226
	DD	imagerel $unwind$?max_size@?$basic_string@DU?$char_traits@D@std@@V?$allocator@D@2@@std@@QEBA_KXZ
pdata	ENDS
;	COMDAT pdata
pdata	SEGMENT
$pdata$?resize@?$basic_string@DU?$char_traits@D@std@@V?$allocator@D@2@@std@@QEAAX_KD@Z DD imagerel $LN5
	DD	imagerel $LN5+141
	DD	imagerel $unwind$?resize@?$basic_string@DU?$char_traits@D@std@@V?$allocator@D@2@@std@@QEAAX_KD@Z
pdata	ENDS
;	COMDAT pdata
pdata	SEGMENT
$pdata$?reserve@?$basic_string@DU?$char_traits@D@std@@V?$allocator@D@2@@std@@QEAAX_K@Z DD imagerel $LN4
	DD	imagerel $LN4+138
	DD	imagerel $unwind$?reserve@?$basic_string@DU?$char_traits@D@std@@V?$allocator@D@2@@std@@QEAAX_K@Z
pdata	ENDS
;	COMDAT pdata
pdata	SEGMENT
$pdata$?empty@?$basic_string@DU?$char_traits@D@std@@V?$allocator@D@2@@std@@QEBA_NXZ DD imagerel $LN5
	DD	imagerel $LN5+84
	DD	imagerel $unwind$?empty@?$basic_string@DU?$char_traits@D@std@@V?$allocator@D@2@@std@@QEBA_NXZ
pdata	ENDS
;	COMDAT pdata
pdata	SEGMENT
$pdata$?_Equal@?$basic_string@DU?$char_traits@D@std@@V?$allocator@D@2@@std@@QEBA_NAEBV12@@Z DD imagerel $LN3
	DD	imagerel $LN3+159
	DD	imagerel $unwind$?_Equal@?$basic_string@DU?$char_traits@D@std@@V?$allocator@D@2@@std@@QEBA_NAEBV12@@Z
pdata	ENDS
;	COMDAT pdata
pdata	SEGMENT
$pdata$?_Equal@?$basic_string@DU?$char_traits@D@std@@V?$allocator@D@2@@std@@QEBA_NQEBD@Z DD imagerel $LN3
	DD	imagerel $LN3+138
	DD	imagerel $unwind$?_Equal@?$basic_string@DU?$char_traits@D@std@@V?$allocator@D@2@@std@@QEBA_NQEBD@Z
pdata	ENDS
;	COMDAT pdata
pdata	SEGMENT
$pdata$?_Calculate_growth@?$basic_string@DU?$char_traits@D@std@@V?$allocator@D@2@@std@@CA_K_K00@Z DD imagerel $LN5
	DD	imagerel $LN5+271
	DD	imagerel $unwind$?_Calculate_growth@?$basic_string@DU?$char_traits@D@std@@V?$allocator@D@2@@std@@CA_K_K00@Z
pdata	ENDS
;	COMDAT pdata
pdata	SEGMENT
$pdata$?_Calculate_growth@?$basic_string@DU?$char_traits@D@std@@V?$allocator@D@2@@std@@AEBA_K_K@Z DD imagerel $LN3
	DD	imagerel $LN3+109
	DD	imagerel $unwind$?_Calculate_growth@?$basic_string@DU?$char_traits@D@std@@V?$allocator@D@2@@std@@AEBA_K_K@Z
pdata	ENDS
;	COMDAT pdata
pdata	SEGMENT
$pdata$?_Eos@?$basic_string@DU?$char_traits@D@std@@V?$allocator@D@2@@std@@AEAAX_K@Z DD imagerel $LN3
	DD	imagerel $LN3+142
	DD	imagerel $unwind$?_Eos@?$basic_string@DU?$char_traits@D@std@@V?$allocator@D@2@@std@@AEAAX_K@Z
pdata	ENDS
;	COMDAT pdata
pdata	SEGMENT
$pdata$?_Tidy_init@?$basic_string@DU?$char_traits@D@std@@V?$allocator@D@2@@std@@AEAAXXZ DD imagerel $LN3
	DD	imagerel $LN3+125
	DD	imagerel $unwind$?_Tidy_init@?$basic_string@DU?$char_traits@D@std@@V?$allocator@D@2@@std@@AEAAXXZ
pdata	ENDS
;	COMDAT pdata
pdata	SEGMENT
$pdata$?_Tidy_deallocate@?$basic_string@DU?$char_traits@D@std@@V?$allocator@D@2@@std@@AEAAXXZ DD imagerel $LN4
	DD	imagerel $LN4+215
	DD	imagerel $unwind$?_Tidy_deallocate@?$basic_string@DU?$char_traits@D@std@@V?$allocator@D@2@@std@@AEAAXXZ
pdata	ENDS
;	COMDAT pdata
pdata	SEGMENT
$pdata$?_Swap_proxy_and_iterators@?$basic_string@DU?$char_traits@D@std@@V?$allocator@D@2@@std@@AEAAXAEAV12@@Z DD imagerel $LN3
	DD	imagerel $LN3+82
	DD	imagerel $unwind$?_Swap_proxy_and_iterators@?$basic_string@DU?$char_traits@D@std@@V?$allocator@D@2@@std@@AEAAXAEAV12@@Z
pdata	ENDS
;	COMDAT pdata
pdata	SEGMENT
$pdata$?_Getal@?$basic_string@DU?$char_traits@D@std@@V?$allocator@D@2@@std@@AEAAAEAV?$allocator@D@2@XZ DD imagerel $LN3
	DD	imagerel $LN3+56
	DD	imagerel $unwind$?_Getal@?$basic_string@DU?$char_traits@D@std@@V?$allocator@D@2@@std@@AEAAAEAV?$allocator@D@2@XZ
pdata	ENDS
;	COMDAT pdata
pdata	SEGMENT
$pdata$?_Getal@?$basic_string@DU?$char_traits@D@std@@V?$allocator@D@2@@std@@AEBAAEBV?$allocator@D@2@XZ DD imagerel $LN3
	DD	imagerel $LN3+56
	DD	imagerel $unwind$?_Getal@?$basic_string@DU?$char_traits@D@std@@V?$allocator@D@2@@std@@AEBAAEBV?$allocator@D@2@XZ
pdata	ENDS
;	COMDAT pdata
pdata	SEGMENT
$pdata$?_Get_first@?$_Compressed_pair@V?$allocator@D@std@@V?$_String_val@U?$_Simple_types@D@std@@@2@$00@std@@QEAAAEAV?$allocator@D@2@XZ DD imagerel $LN3
	DD	imagerel $LN3+48
	DD	imagerel $unwind$?_Get_first@?$_Compressed_pair@V?$allocator@D@std@@V?$_String_val@U?$_Simple_types@D@std@@@2@$00@std@@QEAAAEAV?$allocator@D@2@XZ
pdata	ENDS
;	COMDAT pdata
pdata	SEGMENT
$pdata$?_Get_first@?$_Compressed_pair@V?$allocator@D@std@@V?$_String_val@U?$_Simple_types@D@std@@@2@$00@std@@QEBAAEBV?$allocator@D@2@XZ DD imagerel $LN3
	DD	imagerel $LN3+48
	DD	imagerel $unwind$?_Get_first@?$_Compressed_pair@V?$allocator@D@std@@V?$_String_val@U?$_Simple_types@D@std@@@2@$00@std@@QEBAAEBV?$allocator@D@2@XZ
pdata	ENDS
;	COMDAT pdata
pdata	SEGMENT
$pdata$??1?$_Compressed_pair@V?$allocator@D@std@@V?$_String_val@U?$_Simple_types@D@std@@@2@$00@std@@QEAA@XZ DD imagerel $LN3
	DD	imagerel $LN3+44
	DD	imagerel $unwind$??1?$_Compressed_pair@V?$allocator@D@std@@V?$_String_val@U?$_Simple_types@D@std@@@2@$00@std@@QEAA@XZ
pdata	ENDS
;	COMDAT pdata
pdata	SEGMENT
$pdata$??0?$allocator@_W@std@@QEAA@XZ DD imagerel $LN3
	DD	imagerel $LN3+48
	DD	imagerel $unwind$??0?$allocator@_W@std@@QEAA@XZ
pdata	ENDS
;	COMDAT pdata
pdata	SEGMENT
$pdata$?deallocate@?$allocator@_W@std@@QEAAXQEA_W_K@Z DD imagerel $LN13
	DD	imagerel $LN13+215
	DD	imagerel $unwind$?deallocate@?$allocator@_W@std@@QEAAXQEA_W_K@Z
pdata	ENDS
;	COMDAT pdata
pdata	SEGMENT
$pdata$?allocate@?$allocator@_W@std@@QEAAPEA_W_K@Z DD imagerel $LN3
	DD	imagerel $LN3+66
	DD	imagerel $unwind$?allocate@?$allocator@_W@std@@QEAAPEA_W_K@Z
pdata	ENDS
;	COMDAT pdata
pdata	SEGMENT
$pdata$?max_size@?$_Default_allocator_traits@V?$allocator@_W@std@@@std@@SA_KAEBV?$allocator@_W@2@@Z DD imagerel $LN3
	DD	imagerel $LN3+51
	DD	imagerel $unwind$?max_size@?$_Default_allocator_traits@V?$allocator@_W@std@@@std@@SA_KAEBV?$allocator@_W@2@@Z
pdata	ENDS
;	COMDAT pdata
pdata	SEGMENT
$pdata$?select_on_container_copy_construction@?$_Default_allocator_traits@V?$allocator@_W@std@@@std@@SA?AV?$allocator@_W@2@AEBV32@@Z DD imagerel $LN3
	DD	imagerel $LN3+53
	DD	imagerel $unwind$?select_on_container_copy_construction@?$_Default_allocator_traits@V?$allocator@_W@std@@@std@@SA?AV?$allocator@_W@2@AEBV32@@Z
pdata	ENDS
;	COMDAT pdata
pdata	SEGMENT
$pdata$??0?$_String_val@U?$_Simple_types@_W@std@@@std@@QEAA@XZ DD imagerel $LN3
	DD	imagerel $LN3+109
	DD	imagerel $unwind$??0?$_String_val@U?$_Simple_types@_W@std@@@std@@QEAA@XZ
pdata	ENDS
;	COMDAT pdata
pdata	SEGMENT
$pdata$?_Myptr@?$_String_val@U?$_Simple_types@_W@std@@@std@@QEAAPEA_WXZ DD imagerel $LN4
	DD	imagerel $LN4+99
	DD	imagerel $unwind$?_Myptr@?$_String_val@U?$_Simple_types@_W@std@@@std@@QEAAPEA_WXZ
pdata	ENDS
;	COMDAT pdata
pdata	SEGMENT
$pdata$?_Myptr@?$_String_val@U?$_Simple_types@_W@std@@@std@@QEBAPEB_WXZ DD imagerel $LN4
	DD	imagerel $LN4+99
	DD	imagerel $unwind$?_Myptr@?$_String_val@U?$_Simple_types@_W@std@@@std@@QEBAPEB_WXZ
pdata	ENDS
;	COMDAT pdata
pdata	SEGMENT
$pdata$?_Large_mode_engaged@?$_String_val@U?$_Simple_types@_W@std@@@std@@QEBA_NXZ DD imagerel $LN5
	DD	imagerel $LN5+84
	DD	imagerel $unwind$?_Large_mode_engaged@?$_String_val@U?$_Simple_types@_W@std@@@std@@QEBA_NXZ
pdata	ENDS
;	COMDAT pdata
pdata	SEGMENT
$pdata$?_Activate_SSO_buffer@?$_String_val@U?$_Simple_types@_W@std@@@std@@QEAAXXZ DD imagerel $LN7
	DD	imagerel $LN7+101
	DD	imagerel $unwind$?_Activate_SSO_buffer@?$_String_val@U?$_Simple_types@_W@std@@@std@@QEAAXXZ
pdata	ENDS
;	COMDAT pdata
pdata	SEGMENT
$pdata$?_Check_offset@?$_String_val@U?$_Simple_types@_W@std@@@std@@QEBAX_K@Z DD imagerel $LN4
	DD	imagerel $LN4+71
	DD	imagerel $unwind$?_Check_offset@?$_String_val@U?$_Simple_types@_W@std@@@std@@QEBAX_K@Z
pdata	ENDS
;	COMDAT pdata
pdata	SEGMENT
$pdata$?_Xran@?$_String_val@U?$_Simple_types@_W@std@@@std@@SAXXZ DD imagerel $LN3
	DD	imagerel $LN3+49
	DD	imagerel $unwind$?_Xran@?$_String_val@U?$_Simple_types@_W@std@@@std@@SAXXZ
pdata	ENDS
;	COMDAT pdata
pdata	SEGMENT
$pdata$??0_Bxty@?$_String_val@U?$_Simple_types@_W@std@@@std@@QEAA@XZ DD imagerel $LN3
	DD	imagerel $LN3+71
	DD	imagerel $unwind$??0_Bxty@?$_String_val@U?$_Simple_types@_W@std@@@std@@QEAA@XZ
pdata	ENDS
;	COMDAT pdata
pdata	SEGMENT
$pdata$??1_Bxty@?$_String_val@U?$_Simple_types@_W@std@@@std@@QEAA@XZ DD imagerel $LN3
	DD	imagerel $LN3+41
	DD	imagerel $unwind$??1_Bxty@?$_String_val@U?$_Simple_types@_W@std@@@std@@QEAA@XZ
pdata	ENDS
;	COMDAT pdata
pdata	SEGMENT
$pdata$??1?$_String_val@U?$_Simple_types@_W@std@@@std@@QEAA@XZ DD imagerel $LN3
	DD	imagerel $LN3+48
	DD	imagerel $unwind$??1?$_String_val@U?$_Simple_types@_W@std@@@std@@QEAA@XZ
pdata	ENDS
;	COMDAT pdata
pdata	SEGMENT
$pdata$??0?$basic_string@_WU?$char_traits@_W@std@@V?$allocator@_W@2@@std@@QEAA@XZ DD imagerel $LN3
	DD	imagerel $LN3+149
	DD	imagerel $unwind$??0?$basic_string@_WU?$char_traits@_W@std@@V?$allocator@_W@2@@std@@QEAA@XZ
pdata	ENDS
;	COMDAT pdata
pdata	SEGMENT
$pdata$??0?$basic_string@_WU?$char_traits@_W@std@@V?$allocator@_W@2@@std@@QEAA@AEBV01@@Z DD imagerel $LN4
	DD	imagerel $LN4+208
	DD	imagerel $unwind$??0?$basic_string@_WU?$char_traits@_W@std@@V?$allocator@_W@2@@std@@QEAA@AEBV01@@Z
pdata	ENDS
;	COMDAT pdata
pdata	SEGMENT
$pdata$?dtor$0@?0???0?$basic_string@_WU?$char_traits@_W@std@@V?$allocator@_W@2@@std@@QEAA@AEBV01@@Z@4HA DD imagerel ?dtor$0@?0???0?$basic_string@_WU?$char_traits@_W@std@@V?$allocator@_W@2@@std@@QEAA@AEBV01@@Z@4HA
	DD	imagerel ?dtor$0@?0???0?$basic_string@_WU?$char_traits@_W@std@@V?$allocator@_W@2@@std@@QEAA@AEBV01@@Z@4HA+39
	DD	imagerel $unwind$?dtor$0@?0???0?$basic_string@_WU?$char_traits@_W@std@@V?$allocator@_W@2@@std@@QEAA@AEBV01@@Z@4HA
pdata	ENDS
;	COMDAT pdata
pdata	SEGMENT
$pdata$?_Deallocate_for_capacity@?$basic_string@_WU?$char_traits@_W@std@@V?$allocator@_W@2@@std@@CAXAEAV?$allocator@_W@2@QEA_W_K@Z DD imagerel $LN3
	DD	imagerel $LN3+84
	DD	imagerel $unwind$?_Deallocate_for_capacity@?$basic_string@_WU?$char_traits@_W@std@@V?$allocator@_W@2@@std@@CAXAEAV?$allocator@_W@2@QEA_W_K@Z
pdata	ENDS
;	COMDAT pdata
pdata	SEGMENT
$pdata$??4?$basic_string@_WU?$char_traits@_W@std@@V?$allocator@_W@2@@std@@QEAAAEAV01@$$QEAV01@@Z DD imagerel $LN4
	DD	imagerel $LN4+166
	DD	imagerel $unwind$??4?$basic_string@_WU?$char_traits@_W@std@@V?$allocator@_W@2@@std@@QEAAAEAV01@$$QEAV01@@Z
pdata	ENDS
;	COMDAT pdata
pdata	SEGMENT
$pdata$?_Memcpy_val_from@?$basic_string@_WU?$char_traits@_W@std@@V?$allocator@_W@2@@std@@AEAAXAEBV12@@Z DD imagerel $LN3
	DD	imagerel $LN3+111
	DD	imagerel $unwind$?_Memcpy_val_from@?$basic_string@_WU?$char_traits@_W@std@@V?$allocator@_W@2@@std@@AEAAXAEBV12@@Z
pdata	ENDS
;	COMDAT pdata
pdata	SEGMENT
$pdata$?_Take_contents@?$basic_string@_WU?$char_traits@_W@std@@V?$allocator@_W@2@@std@@AEAAXAEAV12@@Z DD imagerel $LN8
	DD	imagerel $LN8+352
	DD	imagerel $unwind$?_Take_contents@?$basic_string@_WU?$char_traits@_W@std@@V?$allocator@_W@2@@std@@AEAAXAEAV12@@Z
pdata	ENDS
;	COMDAT pdata
pdata	SEGMENT
$pdata$??1?$basic_string@_WU?$char_traits@_W@std@@V?$allocator@_W@2@@std@@QEAA@XZ DD imagerel $LN3
	DD	imagerel $LN3+214
	DD	imagerel $unwind$??1?$basic_string@_WU?$char_traits@_W@std@@V?$allocator@_W@2@@std@@QEAA@XZ
pdata	ENDS
;	COMDAT pdata
pdata	SEGMENT
$pdata$??4?$basic_string@_WU?$char_traits@_W@std@@V?$allocator@_W@2@@std@@QEAAAEAV01@AEBV01@@Z DD imagerel $LN4
	DD	imagerel $LN4+194
	DD	imagerel $unwind$??4?$basic_string@_WU?$char_traits@_W@std@@V?$allocator@_W@2@@std@@QEAAAEAV01@AEBV01@@Z
pdata	ENDS
;	COMDAT pdata
pdata	SEGMENT
$pdata$?append@?$basic_string@_WU?$char_traits@_W@std@@V?$allocator@_W@2@@std@@QEAAAEAV12@QEB_W_K@Z DD imagerel $LN4
	DD	imagerel $LN4+282
	DD	imagerel $unwind$?append@?$basic_string@_WU?$char_traits@_W@std@@V?$allocator@_W@2@@std@@QEAAAEAV12@QEB_W_K@Z
pdata	ENDS
;	COMDAT pdata
pdata	SEGMENT
$pdata$?append@?$basic_string@_WU?$char_traits@_W@std@@V?$allocator@_W@2@@std@@QEAAAEAV12@_K_W@Z DD imagerel $LN4
	DD	imagerel $LN4+284
	DD	imagerel $unwind$?append@?$basic_string@_WU?$char_traits@_W@std@@V?$allocator@_W@2@@std@@QEAAAEAV12@_K_W@Z
pdata	ENDS
;	COMDAT pdata
pdata	SEGMENT
$pdata$?assign@?$basic_string@_WU?$char_traits@_W@std@@V?$allocator@_W@2@@std@@QEAAAEAV12@QEB_W_K@Z DD imagerel $LN4
	DD	imagerel $LN4+213
	DD	imagerel $unwind$?assign@?$basic_string@_WU?$char_traits@_W@std@@V?$allocator@_W@2@@std@@QEAAAEAV12@QEB_W_K@Z
pdata	ENDS
;	COMDAT pdata
pdata	SEGMENT
$pdata$?erase@?$basic_string@_WU?$char_traits@_W@std@@V?$allocator@_W@2@@std@@QEAAAEAV12@_K@Z DD imagerel $LN3
	DD	imagerel $LN3+105
	DD	imagerel $unwind$?erase@?$basic_string@_WU?$char_traits@_W@std@@V?$allocator@_W@2@@std@@QEAAAEAV12@_K@Z
pdata	ENDS
;	COMDAT pdata
pdata	SEGMENT
$pdata$??B?$basic_string@_WU?$char_traits@_W@std@@V?$allocator@_W@2@@std@@QEBA?AV?$basic_string_view@_WU?$char_traits@_W@std@@@1@XZ DD imagerel $LN3
	DD	imagerel $LN3+119
	DD	imagerel $unwind$??B?$basic_string@_WU?$char_traits@_W@std@@V?$allocator@_W@2@@std@@QEBA?AV?$basic_string_view@_WU?$char_traits@_W@std@@@1@XZ
pdata	ENDS
;	COMDAT pdata
pdata	SEGMENT
$pdata$?push_back@?$basic_string@_WU?$char_traits@_W@std@@V?$allocator@_W@2@@std@@QEAAX_W@Z DD imagerel $LN4
	DD	imagerel $LN4+214
	DD	imagerel $unwind$?push_back@?$basic_string@_WU?$char_traits@_W@std@@V?$allocator@_W@2@@std@@QEAAX_W@Z
pdata	ENDS
;	COMDAT pdata
pdata	SEGMENT
$pdata$?c_str@?$basic_string@_WU?$char_traits@_W@std@@V?$allocator@_W@2@@std@@QEBAPEB_WXZ DD imagerel $LN3
	DD	imagerel $LN3+56
	DD	imagerel $unwind$?c_str@?$basic_string@_WU?$char_traits@_W@std@@V?$allocator@_W@2@@std@@QEBAPEB_WXZ
pdata	ENDS
;	COMDAT pdata
pdata	SEGMENT
$pdata$?data@?$basic_string@_WU?$char_traits@_W@std@@V?$allocator@_W@2@@std@@QEBAPEB_WXZ DD imagerel $LN3
	DD	imagerel $LN3+56
	DD	imagerel $unwind$?data@?$basic_string@_WU?$char_traits@_W@std@@V?$allocator@_W@2@@std@@QEBAPEB_WXZ
pdata	ENDS
;	COMDAT pdata
pdata	SEGMENT
$pdata$?data@?$basic_string@_WU?$char_traits@_W@std@@V?$allocator@_W@2@@std@@QEAAPEA_WXZ DD imagerel $LN3
	DD	imagerel $LN3+56
	DD	imagerel $unwind$?data@?$basic_string@_WU?$char_traits@_W@std@@V?$allocator@_W@2@@std@@QEAAPEA_WXZ
pdata	ENDS
;	COMDAT pdata
pdata	SEGMENT
$pdata$?size@?$basic_string@_WU?$char_traits@_W@std@@V?$allocator@_W@2@@std@@QEBA_KXZ DD imagerel $LN3
	DD	imagerel $LN3+52
	DD	imagerel $unwind$?size@?$basic_string@_WU?$char_traits@_W@std@@V?$allocator@_W@2@@std@@QEBA_KXZ
pdata	ENDS
;	COMDAT pdata
pdata	SEGMENT
$pdata$?max_size@?$basic_string@_WU?$char_traits@_W@std@@V?$allocator@_W@2@@std@@QEBA_KXZ DD imagerel $LN3
	DD	imagerel $LN3+226
	DD	imagerel $unwind$?max_size@?$basic_string@_WU?$char_traits@_W@std@@V?$allocator@_W@2@@std@@QEBA_KXZ
pdata	ENDS
;	COMDAT pdata
pdata	SEGMENT
$pdata$?resize@?$basic_string@_WU?$char_traits@_W@std@@V?$allocator@_W@2@@std@@QEAAX_K_W@Z DD imagerel $LN5
	DD	imagerel $LN5+142
	DD	imagerel $unwind$?resize@?$basic_string@_WU?$char_traits@_W@std@@V?$allocator@_W@2@@std@@QEAAX_K_W@Z
pdata	ENDS
;	COMDAT pdata
pdata	SEGMENT
$pdata$?_Calculate_growth@?$basic_string@_WU?$char_traits@_W@std@@V?$allocator@_W@2@@std@@CA_K_K00@Z DD imagerel $LN5
	DD	imagerel $LN5+271
	DD	imagerel $unwind$?_Calculate_growth@?$basic_string@_WU?$char_traits@_W@std@@V?$allocator@_W@2@@std@@CA_K_K00@Z
pdata	ENDS
;	COMDAT pdata
pdata	SEGMENT
$pdata$?_Calculate_growth@?$basic_string@_WU?$char_traits@_W@std@@V?$allocator@_W@2@@std@@AEBA_K_K@Z DD imagerel $LN3
	DD	imagerel $LN3+109
	DD	imagerel $unwind$?_Calculate_growth@?$basic_string@_WU?$char_traits@_W@std@@V?$allocator@_W@2@@std@@AEBA_K_K@Z
pdata	ENDS
;	COMDAT pdata
pdata	SEGMENT
$pdata$?_Eos@?$basic_string@_WU?$char_traits@_W@std@@V?$allocator@_W@2@@std@@AEAAX_K@Z DD imagerel $LN3
	DD	imagerel $LN3+147
	DD	imagerel $unwind$?_Eos@?$basic_string@_WU?$char_traits@_W@std@@V?$allocator@_W@2@@std@@AEAAX_K@Z
pdata	ENDS
;	COMDAT pdata
pdata	SEGMENT
$pdata$?_Tidy_init@?$basic_string@_WU?$char_traits@_W@std@@V?$allocator@_W@2@@std@@AEAAXXZ DD imagerel $LN3
	DD	imagerel $LN3+127
	DD	imagerel $unwind$?_Tidy_init@?$basic_string@_WU?$char_traits@_W@std@@V?$allocator@_W@2@@std@@AEAAXXZ
pdata	ENDS
;	COMDAT pdata
pdata	SEGMENT
$pdata$?_Tidy_deallocate@?$basic_string@_WU?$char_traits@_W@std@@V?$allocator@_W@2@@std@@AEAAXXZ DD imagerel $LN4
	DD	imagerel $LN4+217
	DD	imagerel $unwind$?_Tidy_deallocate@?$basic_string@_WU?$char_traits@_W@std@@V?$allocator@_W@2@@std@@AEAAXXZ
pdata	ENDS
;	COMDAT pdata
pdata	SEGMENT
$pdata$?_Orphan_all@?$basic_string@_WU?$char_traits@_W@std@@V?$allocator@_W@2@@std@@QEAAXXZ DD imagerel $LN3
	DD	imagerel $LN3+56
	DD	imagerel $unwind$?_Orphan_all@?$basic_string@_WU?$char_traits@_W@std@@V?$allocator@_W@2@@std@@QEAAXXZ
pdata	ENDS
;	COMDAT pdata
pdata	SEGMENT
$pdata$?_Swap_proxy_and_iterators@?$basic_string@_WU?$char_traits@_W@std@@V?$allocator@_W@2@@std@@AEAAXAEAV12@@Z DD imagerel $LN3
	DD	imagerel $LN3+82
	DD	imagerel $unwind$?_Swap_proxy_and_iterators@?$basic_string@_WU?$char_traits@_W@std@@V?$allocator@_W@2@@std@@AEAAXAEAV12@@Z
pdata	ENDS
;	COMDAT pdata
pdata	SEGMENT
$pdata$?_Getal@?$basic_string@_WU?$char_traits@_W@std@@V?$allocator@_W@2@@std@@AEAAAEAV?$allocator@_W@2@XZ DD imagerel $LN3
	DD	imagerel $LN3+56
	DD	imagerel $unwind$?_Getal@?$basic_string@_WU?$char_traits@_W@std@@V?$allocator@_W@2@@std@@AEAAAEAV?$allocator@_W@2@XZ
pdata	ENDS
;	COMDAT pdata
pdata	SEGMENT
$pdata$?_Getal@?$basic_string@_WU?$char_traits@_W@std@@V?$allocator@_W@2@@std@@AEBAAEBV?$allocator@_W@2@XZ DD imagerel $LN3
	DD	imagerel $LN3+56
	DD	imagerel $unwind$?_Getal@?$basic_string@_WU?$char_traits@_W@std@@V?$allocator@_W@2@@std@@AEBAAEBV?$allocator@_W@2@XZ
pdata	ENDS
;	COMDAT pdata
pdata	SEGMENT
$pdata$?_Get_first@?$_Compressed_pair@V?$allocator@_W@std@@V?$_String_val@U?$_Simple_types@_W@std@@@2@$00@std@@QEAAAEAV?$allocator@_W@2@XZ DD imagerel $LN3
	DD	imagerel $LN3+48
	DD	imagerel $unwind$?_Get_first@?$_Compressed_pair@V?$allocator@_W@std@@V?$_String_val@U?$_Simple_types@_W@std@@@2@$00@std@@QEAAAEAV?$allocator@_W@2@XZ
pdata	ENDS
;	COMDAT pdata
pdata	SEGMENT
$pdata$?_Get_first@?$_Compressed_pair@V?$allocator@_W@std@@V?$_String_val@U?$_Simple_types@_W@std@@@2@$00@std@@QEBAAEBV?$allocator@_W@2@XZ DD imagerel $LN3
	DD	imagerel $LN3+48
	DD	imagerel $unwind$?_Get_first@?$_Compressed_pair@V?$allocator@_W@std@@V?$_String_val@U?$_Simple_types@_W@std@@@2@$00@std@@QEBAAEBV?$allocator@_W@2@XZ
pdata	ENDS
;	COMDAT pdata
pdata	SEGMENT
$pdata$??1?$_Compressed_pair@V?$allocator@_W@std@@V?$_String_val@U?$_Simple_types@_W@std@@@2@$00@std@@QEAA@XZ DD imagerel $LN3
	DD	imagerel $LN3+44
	DD	imagerel $unwind$??1?$_Compressed_pair@V?$allocator@_W@std@@V?$_String_val@U?$_Simple_types@_W@std@@@2@$00@std@@QEAA@XZ
pdata	ENDS
;	COMDAT pdata
pdata	SEGMENT
$pdata$??0runtime_error@std@@QEAA@AEBV?$basic_string@DU?$char_traits@D@std@@V?$allocator@D@2@@1@@Z DD imagerel $LN4
	DD	imagerel $LN4+97
	DD	imagerel $unwind$??0runtime_error@std@@QEAA@AEBV?$basic_string@DU?$char_traits@D@std@@V?$allocator@D@2@@1@@Z
pdata	ENDS
;	COMDAT pdata
pdata	SEGMENT
$pdata$??1runtime_error@std@@UEAA@XZ DD imagerel $LN3
	DD	imagerel $LN3+41
	DD	imagerel $unwind$??1runtime_error@std@@UEAA@XZ
pdata	ENDS
;	COMDAT pdata
pdata	SEGMENT
$pdata$??0runtime_error@std@@QEAA@AEBV01@@Z DD imagerel $LN3
	DD	imagerel $LN3+77
	DD	imagerel $unwind$??0runtime_error@std@@QEAA@AEBV01@@Z
pdata	ENDS
;	COMDAT pdata
pdata	SEGMENT
$pdata$??_Gruntime_error@std@@UEAAPEAXI@Z DD imagerel $LN4
	DD	imagerel $LN4+82
	DD	imagerel $unwind$??_Gruntime_error@std@@UEAAPEAXI@Z
pdata	ENDS
;	COMDAT pdata
pdata	SEGMENT
$pdata$?generic_category@std@@YAAEBVerror_category@1@XZ DD imagerel $LN3
	DD	imagerel $LN3+42
	DD	imagerel $unwind$?generic_category@std@@YAAEBVerror_category@1@XZ
pdata	ENDS
;	COMDAT pdata
pdata	SEGMENT
$pdata$?system_category@std@@YAAEBVerror_category@1@XZ DD imagerel $LN3
	DD	imagerel $LN3+42
	DD	imagerel $unwind$?system_category@std@@YAAEBVerror_category@1@XZ
pdata	ENDS
;	COMDAT pdata
pdata	SEGMENT
$pdata$??1error_category@std@@UEAA@XZ DD imagerel $LN3
	DD	imagerel $LN3+41
	DD	imagerel $unwind$??1error_category@std@@UEAA@XZ
pdata	ENDS
;	COMDAT pdata
pdata	SEGMENT
$pdata$?default_error_condition@error_category@std@@UEBA?AVerror_condition@2@H@Z DD imagerel $LN3
	DD	imagerel $LN3+83
	DD	imagerel $unwind$?default_error_condition@error_category@std@@UEBA?AVerror_condition@2@H@Z
pdata	ENDS
;	COMDAT pdata
pdata	SEGMENT
$pdata$?equivalent@error_category@std@@UEBA_NHAEBVerror_condition@2@@Z DD imagerel $LN3
	DD	imagerel $LN3+113
	DD	imagerel $unwind$?equivalent@error_category@std@@UEBA_NHAEBVerror_condition@2@@Z
pdata	ENDS
;	COMDAT pdata
pdata	SEGMENT
$pdata$?equivalent@error_category@std@@UEBA_NAEBVerror_code@2@H@Z DD imagerel $LN5
	DD	imagerel $LN5+134
	DD	imagerel $unwind$?equivalent@error_category@std@@UEBA_NAEBVerror_code@2@H@Z
pdata	ENDS
;	COMDAT pdata
pdata	SEGMENT
$pdata$??8error_category@std@@QEBA_NAEBV01@@Z DD imagerel $LN5
	DD	imagerel $LN5+129
	DD	imagerel $unwind$??8error_category@std@@QEBA_NAEBV01@@Z
pdata	ENDS
;	COMDAT pdata
pdata	SEGMENT
$pdata$??$_Bit_cast@_KT_Addr_storage@error_category@std@@$0A@@std@@YA_KAEBT_Addr_storage@error_category@0@@Z DD imagerel $LN3
	DD	imagerel $LN3+65
	DD	imagerel $unwind$??$_Bit_cast@_KT_Addr_storage@error_category@std@@$0A@@std@@YA_KAEBT_Addr_storage@error_category@0@@Z
pdata	ENDS
;	COMDAT pdata
pdata	SEGMENT
$pdata$??0error_code@std@@QEAA@HAEBVerror_category@1@@Z DD imagerel $LN3
	DD	imagerel $LN3+90
	DD	imagerel $unwind$??0error_code@std@@QEAA@HAEBVerror_category@1@@Z
pdata	ENDS
;	COMDAT pdata
pdata	SEGMENT
$pdata$?value@error_code@std@@QEBAHXZ DD imagerel $LN3
	DD	imagerel $LN3+50
	DD	imagerel $unwind$?value@error_code@std@@QEBAHXZ
pdata	ENDS
;	COMDAT pdata
pdata	SEGMENT
$pdata$?category@error_code@std@@QEBAAEBVerror_category@2@XZ DD imagerel $LN3
	DD	imagerel $LN3+52
	DD	imagerel $unwind$?category@error_code@std@@QEBAAEBVerror_category@2@XZ
pdata	ENDS
;	COMDAT pdata
pdata	SEGMENT
$pdata$?message@error_code@std@@QEBA?AV?$basic_string@DU?$char_traits@D@std@@V?$allocator@D@2@@2@XZ DD imagerel $LN5
	DD	imagerel $LN5+163
	DD	imagerel $unwind$?message@error_code@std@@QEBA?AV?$basic_string@DU?$char_traits@D@std@@V?$allocator@D@2@@2@XZ
pdata	ENDS
;	COMDAT pdata
pdata	SEGMENT
$pdata$??0error_condition@std@@QEAA@HAEBVerror_category@1@@Z DD imagerel $LN3
	DD	imagerel $LN3+90
	DD	imagerel $unwind$??0error_condition@std@@QEAA@HAEBVerror_category@1@@Z
pdata	ENDS
;	COMDAT pdata
pdata	SEGMENT
$pdata$?value@error_condition@std@@QEBAHXZ DD imagerel $LN3
	DD	imagerel $LN3+50
	DD	imagerel $unwind$?value@error_condition@std@@QEBAHXZ
pdata	ENDS
;	COMDAT pdata
pdata	SEGMENT
$pdata$?category@error_condition@std@@QEBAAEBVerror_category@2@XZ DD imagerel $LN3
	DD	imagerel $LN3+52
	DD	imagerel $unwind$?category@error_condition@std@@QEBAAEBVerror_category@2@XZ
pdata	ENDS
;	COMDAT pdata
pdata	SEGMENT
$pdata$??8std@@YA_NAEBVerror_condition@0@0@Z DD imagerel $LN5
	DD	imagerel $LN5+179
	DD	imagerel $unwind$??8std@@YA_NAEBVerror_condition@0@0@Z
pdata	ENDS
;	COMDAT pdata
pdata	SEGMENT
$pdata$?make_error_code@std@@YA?AVerror_code@1@W4errc@1@@Z DD imagerel $LN3
	DD	imagerel $LN3+78
	DD	imagerel $unwind$?make_error_code@std@@YA?AVerror_code@1@W4errc@1@@Z
pdata	ENDS
;	COMDAT pdata
pdata	SEGMENT
$pdata$?_Makestr@_System_error@std@@CA?AV?$basic_string@DU?$char_traits@D@std@@V?$allocator@D@2@@2@Verror_code@2@V32@@Z DD imagerel $LN8
	DD	imagerel $LN8+238
	DD	imagerel $unwind$?_Makestr@_System_error@std@@CA?AV?$basic_string@DU?$char_traits@D@std@@V?$allocator@D@2@@2@Verror_code@2@V32@@Z
pdata	ENDS
;	COMDAT pdata
pdata	SEGMENT
$pdata$?dtor$0@?0??_Makestr@_System_error@std@@CA?AV?$basic_string@DU?$char_traits@D@std@@V?$allocator@D@2@@2@Verror_code@2@V32@@Z@4HA DD imagerel ?dtor$0@?0??_Makestr@_System_error@std@@CA?AV?$basic_string@DU?$char_traits@D@std@@V?$allocator@D@2@@2@Verror_code@2@V32@@Z@4HA
	DD	imagerel ?dtor$0@?0??_Makestr@_System_error@std@@CA?AV?$basic_string@DU?$char_traits@D@std@@V?$allocator@D@2@@2@Verror_code@2@V32@@Z@4HA+39
	DD	imagerel $unwind$?dtor$0@?0??_Makestr@_System_error@std@@CA?AV?$basic_string@DU?$char_traits@D@std@@V?$allocator@D@2@@2@Verror_code@2@V32@@Z@4HA
pdata	ENDS
;	COMDAT pdata
pdata	SEGMENT
$pdata$?dtor$1@?0??_Makestr@_System_error@std@@CA?AV?$basic_string@DU?$char_traits@D@std@@V?$allocator@D@2@@2@Verror_code@2@V32@@Z@4HA DD imagerel ?dtor$1@?0??_Makestr@_System_error@std@@CA?AV?$basic_string@DU?$char_traits@D@std@@V?$allocator@D@2@@2@Verror_code@2@V32@@Z@4HA
	DD	imagerel ?dtor$1@?0??_Makestr@_System_error@std@@CA?AV?$basic_string@DU?$char_traits@D@std@@V?$allocator@D@2@@2@Verror_code@2@V32@@Z@4HA+39
	DD	imagerel $unwind$?dtor$1@?0??_Makestr@_System_error@std@@CA?AV?$basic_string@DU?$char_traits@D@std@@V?$allocator@D@2@@2@Verror_code@2@V32@@Z@4HA
pdata	ENDS
;	COMDAT pdata
pdata	SEGMENT
$pdata$??0_System_error@std@@IEAA@Verror_code@1@@Z DD imagerel $LN5
	DD	imagerel $LN5+169
	DD	imagerel $unwind$??0_System_error@std@@IEAA@Verror_code@1@@Z
pdata	ENDS
;	COMDAT pdata
pdata	SEGMENT
$pdata$?dtor$0@?0???0_System_error@std@@IEAA@Verror_code@1@@Z@4HA DD imagerel ?dtor$0@?0???0_System_error@std@@IEAA@Verror_code@1@@Z@4HA
	DD	imagerel ?dtor$0@?0???0_System_error@std@@IEAA@Verror_code@1@@Z@4HA+39
	DD	imagerel $unwind$?dtor$0@?0???0_System_error@std@@IEAA@Verror_code@1@@Z@4HA
pdata	ENDS
;	COMDAT pdata
pdata	SEGMENT
$pdata$??0_System_error@std@@IEAA@Verror_code@1@AEBV?$basic_string@DU?$char_traits@D@std@@V?$allocator@D@2@@1@@Z DD imagerel $LN6
	DD	imagerel $LN6+286
	DD	imagerel $unwind$??0_System_error@std@@IEAA@Verror_code@1@AEBV?$basic_string@DU?$char_traits@D@std@@V?$allocator@D@2@@1@@Z
pdata	ENDS
;	COMDAT pdata
pdata	SEGMENT
$pdata$?dtor$1@?0???0_System_error@std@@IEAA@Verror_code@1@AEBV?$basic_string@DU?$char_traits@D@std@@V?$allocator@D@2@@1@@Z@4HA DD imagerel ?dtor$1@?0???0_System_error@std@@IEAA@Verror_code@1@AEBV?$basic_string@DU?$char_traits@D@std@@V?$allocator@D@2@@1@@Z@4HA
	DD	imagerel ?dtor$1@?0???0_System_error@std@@IEAA@Verror_code@1@AEBV?$basic_string@DU?$char_traits@D@std@@V?$allocator@D@2@@1@@Z@4HA+39
	DD	imagerel $unwind$?dtor$1@?0???0_System_error@std@@IEAA@Verror_code@1@AEBV?$basic_string@DU?$char_traits@D@std@@V?$allocator@D@2@@1@@Z@4HA
pdata	ENDS
;	COMDAT pdata
pdata	SEGMENT
$pdata$??1_System_error@std@@UEAA@XZ DD imagerel $LN3
	DD	imagerel $LN3+41
	DD	imagerel $unwind$??1_System_error@std@@UEAA@XZ
pdata	ENDS
;	COMDAT pdata
pdata	SEGMENT
$pdata$??0_System_error@std@@QEAA@AEBV01@@Z DD imagerel $LN3
	DD	imagerel $LN3+108
	DD	imagerel $unwind$??0_System_error@std@@QEAA@AEBV01@@Z
pdata	ENDS
;	COMDAT pdata
pdata	SEGMENT
$pdata$??_G_System_error@std@@UEAAPEAXI@Z DD imagerel $LN4
	DD	imagerel $LN4+82
	DD	imagerel $unwind$??_G_System_error@std@@UEAAPEAXI@Z
pdata	ENDS
;	COMDAT pdata
pdata	SEGMENT
$pdata$??0system_error@std@@QEAA@Verror_code@1@@Z DD imagerel $LN4
	DD	imagerel $LN4+115
	DD	imagerel $unwind$??0system_error@std@@QEAA@Verror_code@1@@Z
pdata	ENDS
;	COMDAT pdata
pdata	SEGMENT
$pdata$??0system_error@std@@QEAA@Verror_code@1@AEBV?$basic_string@DU?$char_traits@D@std@@V?$allocator@D@2@@1@@Z DD imagerel $LN4
	DD	imagerel $LN4+127
	DD	imagerel $unwind$??0system_error@std@@QEAA@Verror_code@1@AEBV?$basic_string@DU?$char_traits@D@std@@V?$allocator@D@2@@1@@Z
pdata	ENDS
;	COMDAT pdata
pdata	SEGMENT
$pdata$??1system_error@std@@UEAA@XZ DD imagerel $LN3
	DD	imagerel $LN3+41
	DD	imagerel $unwind$??1system_error@std@@UEAA@XZ
pdata	ENDS
;	COMDAT pdata
pdata	SEGMENT
$pdata$??0system_error@std@@QEAA@AEBV01@@Z DD imagerel $LN3
	DD	imagerel $LN3+77
	DD	imagerel $unwind$??0system_error@std@@QEAA@AEBV01@@Z
pdata	ENDS
;	COMDAT pdata
pdata	SEGMENT
$pdata$??_Gsystem_error@std@@UEAAPEAXI@Z DD imagerel $LN4
	DD	imagerel $LN4+82
	DD	imagerel $unwind$??_Gsystem_error@std@@UEAAPEAXI@Z
pdata	ENDS
;	COMDAT pdata
pdata	SEGMENT
$pdata$?_Throw_system_error@std@@YAXW4errc@1@@Z DD imagerel $LN3
	DD	imagerel $LN3+118
	DD	imagerel $unwind$?_Throw_system_error@std@@YAXW4errc@1@@Z
pdata	ENDS
;	COMDAT pdata
pdata	SEGMENT
$pdata$??0_System_error_message@std@@QEAA@K@Z DD imagerel $LN3
	DD	imagerel $LN3+98
	DD	imagerel $unwind$??0_System_error_message@std@@QEAA@K@Z
pdata	ENDS
;	COMDAT pdata
pdata	SEGMENT
$pdata$??1_System_error_message@std@@QEAA@XZ DD imagerel $LN3
	DD	imagerel $LN3+56
	DD	imagerel $unwind$??1_System_error_message@std@@QEAA@XZ
pdata	ENDS
;	COMDAT pdata
pdata	SEGMENT
$pdata$?name@_Generic_error_category@std@@UEBAPEBDXZ DD imagerel $LN3
	DD	imagerel $LN3+48
	DD	imagerel $unwind$?name@_Generic_error_category@std@@UEBAPEBDXZ
pdata	ENDS
;	COMDAT pdata
pdata	SEGMENT
$pdata$?message@_Generic_error_category@std@@UEBA?AV?$basic_string@DU?$char_traits@D@std@@V?$allocator@D@2@@2@H@Z DD imagerel $LN5
	DD	imagerel $LN5+109
	DD	imagerel $unwind$?message@_Generic_error_category@std@@UEBA?AV?$basic_string@DU?$char_traits@D@std@@V?$allocator@D@2@@2@H@Z
pdata	ENDS
;	COMDAT pdata
pdata	SEGMENT
$pdata$??1_Generic_error_category@std@@UEAA@XZ DD imagerel $LN3
	DD	imagerel $LN3+41
	DD	imagerel $unwind$??1_Generic_error_category@std@@UEAA@XZ
pdata	ENDS
;	COMDAT pdata
pdata	SEGMENT
$pdata$??_G_Generic_error_category@std@@UEAAPEAXI@Z DD imagerel $LN4
	DD	imagerel $LN4+82
	DD	imagerel $unwind$??_G_Generic_error_category@std@@UEAAPEAXI@Z
pdata	ENDS
;	COMDAT pdata
pdata	SEGMENT
$pdata$?name@_System_error_category@std@@UEBAPEBDXZ DD imagerel $LN3
	DD	imagerel $LN3+48
	DD	imagerel $unwind$?name@_System_error_category@std@@UEBAPEBDXZ
pdata	ENDS
;	COMDAT pdata
pdata	SEGMENT
$pdata$?message@_System_error_category@std@@UEBA?AV?$basic_string@DU?$char_traits@D@std@@V?$allocator@D@2@@2@H@Z DD imagerel $LN8
	DD	imagerel $LN8+294
	DD	imagerel $unwind$?message@_System_error_category@std@@UEBA?AV?$basic_string@DU?$char_traits@D@std@@V?$allocator@D@2@@2@H@Z
pdata	ENDS
;	COMDAT pdata
pdata	SEGMENT
$pdata$?dtor$0@?0??message@_System_error_category@std@@UEBA?AV?$basic_string@DU?$char_traits@D@std@@V?$allocator@D@2@@2@H@Z@4HA DD imagerel ?dtor$0@?0??message@_System_error_category@std@@UEBA?AV?$basic_string@DU?$char_traits@D@std@@V?$allocator@D@2@@2@H@Z@4HA
	DD	imagerel ?dtor$0@?0??message@_System_error_category@std@@UEBA?AV?$basic_string@DU?$char_traits@D@std@@V?$allocator@D@2@@2@H@Z@4HA+36
	DD	imagerel $unwind$?dtor$0@?0??message@_System_error_category@std@@UEBA?AV?$basic_string@DU?$char_traits@D@std@@V?$allocator@D@2@@2@H@Z@4HA
pdata	ENDS
;	COMDAT pdata
pdata	SEGMENT
$pdata$?default_error_condition@_System_error_category@std@@UEBA?AVerror_condition@2@H@Z DD imagerel $LN6
	DD	imagerel $LN6+178
	DD	imagerel $unwind$?default_error_condition@_System_error_category@std@@UEBA?AVerror_condition@2@H@Z
pdata	ENDS
;	COMDAT pdata
pdata	SEGMENT
$pdata$??1_System_error_category@std@@UEAA@XZ DD imagerel $LN3
	DD	imagerel $LN3+41
	DD	imagerel $unwind$??1_System_error_category@std@@UEAA@XZ
pdata	ENDS
;	COMDAT pdata
pdata	SEGMENT
$pdata$??_G_System_error_category@std@@UEAAPEAXI@Z DD imagerel $LN4
	DD	imagerel $LN4+82
	DD	imagerel $unwind$??_G_System_error_category@std@@UEAAPEAXI@Z
pdata	ENDS
;	COMDAT pdata
pdata	SEGMENT
$pdata$??$_Immortalize_memcpy_image@V_Generic_error_category@std@@@std@@YAAEBV_Generic_error_category@0@XZ DD imagerel $LN3
	DD	imagerel $LN3+44
	DD	imagerel $unwind$??$_Immortalize_memcpy_image@V_Generic_error_category@std@@@std@@YAAEBV_Generic_error_category@0@XZ
pdata	ENDS
;	COMDAT pdata
pdata	SEGMENT
$pdata$??$_Immortalize_memcpy_image@V_System_error_category@std@@@std@@YAAEBV_System_error_category@0@XZ DD imagerel $LN3
	DD	imagerel $LN3+44
	DD	imagerel $unwind$??$_Immortalize_memcpy_image@V_System_error_category@std@@@std@@YAAEBV_System_error_category@0@XZ
pdata	ENDS
;	COMDAT pdata
pdata	SEGMENT
$pdata$?_Make_ec@std@@YA?AVerror_code@1@W4__std_win_error@@@Z DD imagerel $LN3
	DD	imagerel $LN3+78
	DD	imagerel $unwind$?_Make_ec@std@@YA?AVerror_code@1@W4__std_win_error@@@Z
pdata	ENDS
;	COMDAT pdata
pdata	SEGMENT
$pdata$?_Throw_system_error_from_std_win_error@std@@YAXW4__std_win_error@@@Z DD imagerel $LN3
	DD	imagerel $LN3+118
	DD	imagerel $unwind$?_Throw_system_error_from_std_win_error@std@@YAXW4__std_win_error@@@Z
pdata	ENDS
;	COMDAT pdata
pdata	SEGMENT
$pdata$??0bad_cast@std@@QEAA@XZ DD imagerel $LN3
	DD	imagerel $LN3+90
	DD	imagerel $unwind$??0bad_cast@std@@QEAA@XZ
pdata	ENDS
;	COMDAT pdata
pdata	SEGMENT
$pdata$??1bad_cast@std@@UEAA@XZ DD imagerel $LN3
	DD	imagerel $LN3+41
	DD	imagerel $unwind$??1bad_cast@std@@UEAA@XZ
pdata	ENDS
;	COMDAT pdata
pdata	SEGMENT
$pdata$??0bad_cast@std@@QEAA@AEBV01@@Z DD imagerel $LN3
	DD	imagerel $LN3+77
	DD	imagerel $unwind$??0bad_cast@std@@QEAA@AEBV01@@Z
pdata	ENDS
;	COMDAT pdata
pdata	SEGMENT
$pdata$??_Gbad_cast@std@@UEAAPEAXI@Z DD imagerel $LN4
	DD	imagerel $LN4+82
	DD	imagerel $unwind$??_Gbad_cast@std@@UEAAPEAXI@Z
pdata	ENDS
;	COMDAT pdata
pdata	SEGMENT
$pdata$?_Throw_bad_cast@std@@YAXXZ DD imagerel $LN3
	DD	imagerel $LN3+68
	DD	imagerel $unwind$?_Throw_bad_cast@std@@YAXXZ
pdata	ENDS
;	COMDAT pdata
pdata	SEGMENT
$pdata$??0_Ref_count_base@std@@IEAA@XZ DD imagerel $LN3
	DD	imagerel $LN3+76
	DD	imagerel $unwind$??0_Ref_count_base@std@@IEAA@XZ
pdata	ENDS
;	COMDAT pdata
pdata	SEGMENT
$pdata$??1_Ref_count_base@std@@UEAA@XZ DD imagerel $LN3
	DD	imagerel $LN3+41
	DD	imagerel $unwind$??1_Ref_count_base@std@@UEAA@XZ
pdata	ENDS
;	COMDAT pdata
pdata	SEGMENT
$pdata$?_Incref@_Ref_count_base@std@@QEAAXXZ DD imagerel $LN3
	DD	imagerel $LN3+55
	DD	imagerel $unwind$?_Incref@_Ref_count_base@std@@QEAAXXZ
pdata	ENDS
;	COMDAT pdata
pdata	SEGMENT
$pdata$?_Decref@_Ref_count_base@std@@QEAAXXZ DD imagerel $LN4
	DD	imagerel $LN4+100
	DD	imagerel $unwind$?_Decref@_Ref_count_base@std@@QEAAXXZ
pdata	ENDS
;	COMDAT pdata
pdata	SEGMENT
$pdata$?_Decwref@_Ref_count_base@std@@QEAAXXZ DD imagerel $LN4
	DD	imagerel $LN4+89
	DD	imagerel $unwind$?_Decwref@_Ref_count_base@std@@QEAAXXZ
pdata	ENDS
;	COMDAT pdata
pdata	SEGMENT
$pdata$?_Get_deleter@_Ref_count_base@std@@UEBAPEAXAEBVtype_info@@@Z DD imagerel $LN3
	DD	imagerel $LN3+48
	DD	imagerel $unwind$?_Get_deleter@_Ref_count_base@std@@UEBAPEAXAEBVtype_info@@@Z
pdata	ENDS
;	COMDAT pdata
pdata	SEGMENT
$pdata$??1locale@std@@QEAA@XZ DD imagerel $LN6
	DD	imagerel $LN6+158
	DD	imagerel $unwind$??1locale@std@@QEAA@XZ
pdata	ENDS
;	COMDAT pdata
pdata	SEGMENT
$pdata$?_Getfacet@locale@std@@QEBAPEBVfacet@12@_K@Z DD imagerel $LN8
	DD	imagerel $LN8+208
	DD	imagerel $unwind$?_Getfacet@locale@std@@QEBAPEBVfacet@12@_K@Z
pdata	ENDS
;	COMDAT pdata
pdata	SEGMENT
$pdata$??$_Maklocstr@_W@std@@YAPEA_WPEBDPEA_WAEBU_Cvtvec@@@Z DD imagerel $LN12
	DD	imagerel $LN12+586
	DD	imagerel $unwind$??$_Maklocstr@_W@std@@YAPEA_WPEBDPEA_WAEBU_Cvtvec@@@Z
pdata	ENDS
;	COMDAT pdata
pdata	SEGMENT
$pdata$??$_Adl_verify_range@PEB_WPEB_W@std@@YAXAEBQEB_W0@Z DD imagerel $LN3
	DD	imagerel $LN3+71
	DD	imagerel $unwind$??$_Adl_verify_range@PEB_WPEB_W@std@@YAXAEBQEB_W0@Z
pdata	ENDS
;	COMDAT pdata
pdata	SEGMENT
$pdata$??$_Fgetc@D@std@@YA_NAEADPEAU_iobuf@@@Z DD imagerel $LN5
	DD	imagerel $LN5+89
	DD	imagerel $unwind$??$_Fgetc@D@std@@YA_NAEADPEAU_iobuf@@@Z
pdata	ENDS
;	COMDAT pdata
pdata	SEGMENT
$pdata$??$_Fputc@D@std@@YA_NDPEAU_iobuf@@@Z DD imagerel $LN5
	DD	imagerel $LN5+101
	DD	imagerel $unwind$??$_Fputc@D@std@@YA_NDPEAU_iobuf@@@Z
pdata	ENDS
;	COMDAT pdata
pdata	SEGMENT
$pdata$??$_Ungetc@D@std@@YA_NAEBDPEAU_iobuf@@@Z DD imagerel $LN5
	DD	imagerel $LN5+105
	DD	imagerel $unwind$??$_Ungetc@D@std@@YA_NAEBDPEAU_iobuf@@@Z
pdata	ENDS
;	COMDAT pdata
pdata	SEGMENT
$pdata$?_Maklocwcs@std@@YAPEA_WPEB_W@Z DD imagerel $LN4
	DD	imagerel $LN4+142
	DD	imagerel $unwind$?_Maklocwcs@std@@YAPEA_WPEB_W@Z
pdata	ENDS
;	COMDAT pdata
pdata	SEGMENT
$pdata$??$_Maklocstr@D@std@@YAPEADPEBDPEADAEBU_Cvtvec@@@Z DD imagerel $LN7
	DD	imagerel $LN7+200
	DD	imagerel $unwind$??$_Maklocstr@D@std@@YAPEADPEBDPEADAEBU_Cvtvec@@@Z
pdata	ENDS
;	COMDAT pdata
pdata	SEGMENT
$pdata$__std_is_file_not_found DD imagerel $LN10
	DD	imagerel $LN10+96
	DD	imagerel $unwind$__std_is_file_not_found
pdata	ENDS
;	COMDAT pdata
pdata	SEGMENT
$pdata$??I@YA?AW4__std_fs_file_attr@@W40@0@Z DD imagerel $LN3
	DD	imagerel $LN3+60
	DD	imagerel $unwind$??I@YA?AW4__std_fs_file_attr@@W40@0@Z
pdata	ENDS
;	COMDAT pdata
pdata	SEGMENT
$pdata$??U@YA?AW4__std_fs_stats_flags@@W40@0@Z DD imagerel $LN3
	DD	imagerel $LN3+60
	DD	imagerel $unwind$??U@YA?AW4__std_fs_stats_flags@@W40@0@Z
pdata	ENDS
;	COMDAT pdata
pdata	SEGMENT
$pdata$??_5@YAAEAW4__std_fs_stats_flags@@AEAW40@W40@@Z DD imagerel $LN3
	DD	imagerel $LN3+81
	DD	imagerel $unwind$??_5@YAAEAW4__std_fs_stats_flags@@AEAW40@W40@@Z
pdata	ENDS
;	COMDAT pdata
pdata	SEGMENT
$pdata$??$_Getvals@_W@?$time_get@DV?$istreambuf_iterator@DU?$char_traits@D@std@@@std@@@std@@IEAAX_WAEBV_Locinfo@1@@Z DD imagerel $LN5
	DD	imagerel $LN5+356
	DD	imagerel $unwind$??$_Getvals@_W@?$time_get@DV?$istreambuf_iterator@DU?$char_traits@D@std@@@std@@@std@@IEAAX_WAEBV_Locinfo@1@@Z
pdata	ENDS
;	COMDAT pdata
pdata	SEGMENT
$pdata$??$_Getvals@_W@?$time_get@_WV?$istreambuf_iterator@_WU?$char_traits@_W@std@@@std@@@std@@IEAAX_WAEBV_Locinfo@1@@Z DD imagerel $LN5
	DD	imagerel $LN5+356
	DD	imagerel $unwind$??$_Getvals@_W@?$time_get@_WV?$istreambuf_iterator@_WU?$char_traits@_W@std@@@std@@@std@@IEAAX_WAEBV_Locinfo@1@@Z
pdata	ENDS
;	COMDAT pdata
pdata	SEGMENT
$pdata$?_Check_convert_result@std@@YAHU__std_fs_convert_result@@@Z DD imagerel $LN4
	DD	imagerel $LN4+67
	DD	imagerel $unwind$?_Check_convert_result@std@@YAHU__std_fs_convert_result@@@Z
pdata	ENDS
;	COMDAT pdata
pdata	SEGMENT
$pdata$??$max@_K@std@@YAAEB_KAEB_K0@Z DD imagerel $LN5
	DD	imagerel $LN5+119
	DD	imagerel $unwind$??$max@_K@std@@YAAEB_KAEB_K0@Z
pdata	ENDS
;	COMDAT pdata
pdata	SEGMENT
$pdata$?_Convert_narrow_to_wide@filesystem@std@@YA?AV?$basic_string@_WU?$char_traits@_W@std@@V?$allocator@_W@2@@2@W4__std_code_page@@V?$basic_string_view@DU?$char_traits@D@std@@@2@@Z DD imagerel $LN8
	DD	imagerel $LN8+433
	DD	imagerel $unwind$?_Convert_narrow_to_wide@filesystem@std@@YA?AV?$basic_string@_WU?$char_traits@_W@std@@V?$allocator@_W@2@@2@W4__std_code_page@@V?$basic_string_view@DU?$char_traits@D@std@@@2@@Z
pdata	ENDS
;	COMDAT pdata
pdata	SEGMENT
$pdata$?dtor$0@?0??_Convert_narrow_to_wide@filesystem@std@@YA?AV?$basic_string@_WU?$char_traits@_W@std@@V?$allocator@_W@2@@2@W4__std_code_page@@V?$basic_string_view@DU?$char_traits@D@std@@@2@@Z@4HA DD imagerel ?dtor$0@?0??_Convert_narrow_to_wide@filesystem@std@@YA?AV?$basic_string@_WU?$char_traits@_W@std@@V?$allocator@_W@2@@2@W4__std_code_page@@V?$basic_string_view@DU?$char_traits@D@std@@@2@@Z@4HA
	DD	imagerel ?dtor$0@?0??_Convert_narrow_to_wide@filesystem@std@@YA?AV?$basic_string@_WU?$char_traits@_W@std@@V?$allocator@_W@2@@2@W4__std_code_page@@V?$basic_string_view@DU?$char_traits@D@std@@@2@@Z@4HA+59
	DD	imagerel $unwind$?dtor$0@?0??_Convert_narrow_to_wide@filesystem@std@@YA?AV?$basic_string@_WU?$char_traits@_W@std@@V?$allocator@_W@2@@2@W4__std_code_page@@V?$basic_string_view@DU?$char_traits@D@std@@@2@@Z@4HA
pdata	ENDS
;	COMDAT pdata
pdata	SEGMENT
$pdata$??$_Unfancy@_W@std@@YAPEA_WPEA_W@Z DD imagerel $LN3
	DD	imagerel $LN3+48
	DD	imagerel $unwind$??$_Unfancy@_W@std@@YAPEA_WPEA_W@Z
pdata	ENDS
;	COMDAT pdata
pdata	SEGMENT
$pdata$??R_Is_slash_oper@filesystem@std@@QEBA_N_W@Z DD imagerel $LN5
	DD	imagerel $LN5+99
	DD	imagerel $unwind$??R_Is_slash_oper@filesystem@std@@QEBA_N_W@Z
pdata	ENDS
;	COMDAT pdata
pdata	SEGMENT
$pdata$?_Is_drive_prefix@filesystem@std@@YA_NQEB_W@Z DD imagerel $LN5
	DD	imagerel $LN5+111
	DD	imagerel $unwind$?_Is_drive_prefix@filesystem@std@@YA_NQEB_W@Z
pdata	ENDS
;	COMDAT pdata
pdata	SEGMENT
$pdata$??$_Unaligned_load@I@filesystem@std@@YAIPEBX@Z DD imagerel $LN3
	DD	imagerel $LN3+143
	DD	imagerel $unwind$??$_Unaligned_load@I@filesystem@std@@YAIPEBX@Z
pdata	ENDS
;	COMDAT pdata
pdata	SEGMENT
$pdata$?_Has_drive_letter_prefix@filesystem@std@@YA_NQEB_W0@Z DD imagerel $LN5
	DD	imagerel $LN5+123
	DD	imagerel $unwind$?_Has_drive_letter_prefix@filesystem@std@@YA_NQEB_W0@Z
pdata	ENDS
;	COMDAT pdata
pdata	SEGMENT
$pdata$?_Find_root_name_end@filesystem@std@@YAPEB_WQEB_W0@Z DD imagerel $LN11
	DD	imagerel $LN11+633
	DD	imagerel $unwind$?_Find_root_name_end@filesystem@std@@YAPEB_WQEB_W0@Z
pdata	ENDS
;	COMDAT pdata
pdata	SEGMENT
$pdata$??$find_if@PEB_WU_Is_slash_oper@filesystem@std@@@std@@YAPEB_WPEB_WQEB_WU_Is_slash_oper@filesystem@0@@Z DD imagerel $LN7
	DD	imagerel $LN7+258
	DD	imagerel $unwind$??$find_if@PEB_WU_Is_slash_oper@filesystem@std@@@std@@YAPEB_WPEB_WQEB_WU_Is_slash_oper@filesystem@0@@Z
pdata	ENDS
;	COMDAT pdata
pdata	SEGMENT
$pdata$?_Find_relative_path@filesystem@std@@YAPEB_WQEB_W0@Z DD imagerel $LN3
	DD	imagerel $LN3+112
	DD	imagerel $unwind$?_Find_relative_path@filesystem@std@@YAPEB_WQEB_W0@Z
pdata	ENDS
;	COMDAT pdata
pdata	SEGMENT
$pdata$??$find_if_not@PEB_WU_Is_slash_oper@filesystem@std@@@std@@YAPEB_WPEB_WQEB_WU_Is_slash_oper@filesystem@0@@Z DD imagerel $LN7
	DD	imagerel $LN7+258
	DD	imagerel $unwind$??$find_if_not@PEB_WU_Is_slash_oper@filesystem@std@@@std@@YAPEB_WPEB_WQEB_WU_Is_slash_oper@filesystem@0@@Z
pdata	ENDS
;	COMDAT pdata
pdata	SEGMENT
$pdata$?_Find_filename@filesystem@std@@YAPEB_WQEB_WPEB_W@Z DD imagerel $LN5
	DD	imagerel $LN5+148
	DD	imagerel $unwind$?_Find_filename@filesystem@std@@YAPEB_WQEB_WPEB_W@Z
pdata	ENDS
;	COMDAT pdata
pdata	SEGMENT
$pdata$?_Find_extension@filesystem@std@@YAPEB_WQEB_W0@Z DD imagerel $LN11
	DD	imagerel $LN11+236
	DD	imagerel $unwind$?_Find_extension@filesystem@std@@YAPEB_WQEB_W0@Z
pdata	ENDS
;	COMDAT pdata
pdata	SEGMENT
$pdata$??$find@PEB_W_W@std@@YAPEB_WPEB_WQEB_WAEB_W@Z DD imagerel $LN3
	DD	imagerel $LN3+167
	DD	imagerel $unwind$??$find@PEB_W_W@std@@YAPEB_WPEB_WQEB_WAEB_W@Z
pdata	ENDS
;	COMDAT pdata
pdata	SEGMENT
$pdata$?_Parse_extension@filesystem@std@@YA?AV?$basic_string_view@_WU?$char_traits@_W@std@@@2@V32@@Z DD imagerel $LN3
	DD	imagerel $LN3+208
	DD	imagerel $unwind$?_Parse_extension@filesystem@std@@YA?AV?$basic_string_view@_WU?$char_traits@_W@std@@@2@V32@@Z
pdata	ENDS
;	COMDAT pdata
pdata	SEGMENT
$pdata$?_Range_compare@filesystem@std@@YAHQEB_W000@Z DD imagerel $LN3
	DD	imagerel $LN3+127
	DD	imagerel $unwind$?_Range_compare@filesystem@std@@YAHQEB_W000@Z
pdata	ENDS
;	COMDAT pdata
pdata	SEGMENT
$pdata$??$_Traits_compare@U?$char_traits@_W@std@@@std@@YAHQEB_W_K01@Z DD imagerel $LN6
	DD	imagerel $LN6+159
	DD	imagerel $unwind$??$_Traits_compare@U?$char_traits@_W@std@@@std@@YAHQEB_W_K01@Z
pdata	ENDS
;	COMDAT pdata
pdata	SEGMENT
$pdata$?_Is_dot_or_dotdot@filesystem@std@@YA_NAEBU__std_fs_find_data@@@Z DD imagerel $LN8
	DD	imagerel $LN8+175
	DD	imagerel $unwind$?_Is_dot_or_dotdot@filesystem@std@@YA_NAEBU__std_fs_find_data@@@Z
pdata	ENDS
;	COMDAT pdata
pdata	SEGMENT
$pdata$??0_Find_file_handle@filesystem@std@@QEAA@XZ DD imagerel $LN3
	DD	imagerel $LN3+62
	DD	imagerel $unwind$??0_Find_file_handle@filesystem@std@@QEAA@XZ
pdata	ENDS
;	COMDAT pdata
pdata	SEGMENT
$pdata$??0_Find_file_handle@filesystem@std@@QEAA@$$QEAU012@@Z DD imagerel $LN3
	DD	imagerel $LN3+96
	DD	imagerel $unwind$??0_Find_file_handle@filesystem@std@@QEAA@$$QEAU012@@Z
pdata	ENDS
;	COMDAT pdata
pdata	SEGMENT
$pdata$??4_Find_file_handle@filesystem@std@@QEAAAEAU012@$$QEAU012@@Z DD imagerel $LN3
	DD	imagerel $LN3+201
	DD	imagerel $unwind$??4_Find_file_handle@filesystem@std@@QEAAAEAU012@$$QEAU012@@Z
pdata	ENDS
;	COMDAT pdata
pdata	SEGMENT
$pdata$?_Open@_Find_file_handle@filesystem@std@@QEAA?AW4__std_win_error@@PEB_WPEAU__std_fs_find_data@@@Z DD imagerel $LN3
	DD	imagerel $LN3+80
	DD	imagerel $unwind$?_Open@_Find_file_handle@filesystem@std@@QEAA?AW4__std_win_error@@PEB_WPEAU__std_fs_find_data@@@Z
pdata	ENDS
;	COMDAT pdata
pdata	SEGMENT
$pdata$??1_Find_file_handle@filesystem@std@@QEAA@XZ DD imagerel $LN3
	DD	imagerel $LN3+56
	DD	imagerel $unwind$??1_Find_file_handle@filesystem@std@@QEAA@XZ
pdata	ENDS
;	COMDAT pdata
pdata	SEGMENT
$pdata$??_G_Find_file_handle@filesystem@std@@QEAAPEAXI@Z DD imagerel $LN4
	DD	imagerel $LN4+82
	DD	imagerel $unwind$??_G_Find_file_handle@filesystem@std@@QEAAPEAXI@Z
pdata	ENDS
;	COMDAT pdata
pdata	SEGMENT
$pdata$??$exchange@W4__std_fs_dir_handle@@W41@@std@@YA?AW4__std_fs_dir_handle@@AEAW41@$$QEAW41@@Z DD imagerel $LN3
	DD	imagerel $LN3+84
	DD	imagerel $unwind$??$exchange@W4__std_fs_dir_handle@@W41@@std@@YA?AW4__std_fs_dir_handle@@AEAW41@$$QEAW41@@Z
pdata	ENDS
;	COMDAT pdata
pdata	SEGMENT
$pdata$??$exchange@W4__std_fs_dir_handle@@AEAW41@@std@@YA?AW4__std_fs_dir_handle@@AEAW41@0@Z DD imagerel $LN3
	DD	imagerel $LN3+84
	DD	imagerel $unwind$??$exchange@W4__std_fs_dir_handle@@AEAW41@@std@@YA?AW4__std_fs_dir_handle@@AEAW41@0@Z
pdata	ENDS
;	COMDAT pdata
pdata	SEGMENT
$pdata$??0path@filesystem@std@@QEAA@XZ DD imagerel $LN3
	DD	imagerel $LN3+63
	DD	imagerel $unwind$??0path@filesystem@std@@QEAA@XZ
pdata	ENDS
;	COMDAT pdata
pdata	SEGMENT
$pdata$??0path@filesystem@std@@QEAA@AEBV012@@Z DD imagerel $LN4
	DD	imagerel $LN4+89
	DD	imagerel $unwind$??0path@filesystem@std@@QEAA@AEBV012@@Z
pdata	ENDS
;	COMDAT pdata
pdata	SEGMENT
$pdata$??1path@filesystem@std@@QEAA@XZ DD imagerel $LN3
	DD	imagerel $LN3+56
	DD	imagerel $unwind$??1path@filesystem@std@@QEAA@XZ
pdata	ENDS
;	COMDAT pdata
pdata	SEGMENT
$pdata$??4path@filesystem@std@@QEAAAEAV012@AEBV012@@Z DD imagerel $LN3
	DD	imagerel $LN3+75
	DD	imagerel $unwind$??4path@filesystem@std@@QEAAAEAV012@AEBV012@@Z
pdata	ENDS
;	COMDAT pdata
pdata	SEGMENT
$pdata$??4path@filesystem@std@@QEAAAEAV012@$$QEAV012@@Z DD imagerel $LN3
	DD	imagerel $LN3+75
	DD	imagerel $unwind$??4path@filesystem@std@@QEAAAEAV012@$$QEAV012@@Z
pdata	ENDS
;	COMDAT pdata
pdata	SEGMENT
$pdata$??_0path@filesystem@std@@QEAAAEAV012@AEBV012@@Z DD imagerel $LN11
	DD	imagerel $LN11+585
	DD	imagerel $unwind$??_0path@filesystem@std@@QEAAAEAV012@AEBV012@@Z
pdata	ENDS
;	COMDAT pdata
pdata	SEGMENT
$pdata$?remove_filename@path@filesystem@std@@QEAAAEAV123@XZ DD imagerel $LN3
	DD	imagerel $LN3+172
	DD	imagerel $unwind$?remove_filename@path@filesystem@std@@QEAAAEAV123@XZ
pdata	ENDS
;	COMDAT pdata
pdata	SEGMENT
$pdata$?_Remove_filename_and_separator@path@filesystem@std@@QEAAXXZ DD imagerel $LN5
	DD	imagerel $LN5+517
	DD	imagerel $unwind$?_Remove_filename_and_separator@path@filesystem@std@@QEAAXXZ
pdata	ENDS
;	COMDAT pdata
pdata	SEGMENT
$pdata$?replace_filename@path@filesystem@std@@QEAAAEAV123@AEBV123@@Z DD imagerel $LN3
	DD	imagerel $LN3+77
	DD	imagerel $unwind$?replace_filename@path@filesystem@std@@QEAAAEAV123@AEBV123@@Z
pdata	ENDS
;	COMDAT pdata
pdata	SEGMENT
$pdata$?native@path@filesystem@std@@QEBAAEBV?$basic_string@_WU?$char_traits@_W@std@@V?$allocator@_W@2@@3@XZ DD imagerel $LN3
	DD	imagerel $LN3+48
	DD	imagerel $unwind$?native@path@filesystem@std@@QEBAAEBV?$basic_string@_WU?$char_traits@_W@std@@V?$allocator@_W@2@@3@XZ
pdata	ENDS
;	COMDAT pdata
pdata	SEGMENT
$pdata$?c_str@path@filesystem@std@@QEBAPEB_WXZ DD imagerel $LN3
	DD	imagerel $LN3+56
	DD	imagerel $unwind$?c_str@path@filesystem@std@@QEBAPEB_WXZ
pdata	ENDS
;	COMDAT pdata
pdata	SEGMENT
$pdata$?string@path@filesystem@std@@QEBA?AV?$basic_string@DU?$char_traits@D@std@@V?$allocator@D@2@@3@XZ DD imagerel $LN5
	DD	imagerel $LN5+112
	DD	imagerel $unwind$?string@path@filesystem@std@@QEBA?AV?$basic_string@DU?$char_traits@D@std@@V?$allocator@D@2@@3@XZ
pdata	ENDS
;	COMDAT pdata
pdata	SEGMENT
$pdata$?extension@path@filesystem@std@@QEBA?AV123@XZ DD imagerel $LN5
	DD	imagerel $LN5+170
	DD	imagerel $unwind$?extension@path@filesystem@std@@QEBA?AV123@XZ
pdata	ENDS
;	COMDAT pdata
pdata	SEGMENT
$pdata$?is_absolute@path@filesystem@std@@QEBA_NXZ DD imagerel $LN8
	DD	imagerel $LN8+245
	DD	imagerel $unwind$?is_absolute@path@filesystem@std@@QEBA_NXZ
pdata	ENDS
;	COMDAT pdata
pdata	SEGMENT
$pdata$??0?$reverse_iterator@PEB_W@std@@QEAA@PEB_W@Z DD imagerel $LN3
	DD	imagerel $LN3+70
	DD	imagerel $unwind$??0?$reverse_iterator@PEB_W@std@@QEAA@PEB_W@Z
pdata	ENDS
;	COMDAT pdata
pdata	SEGMENT
$pdata$??D?$reverse_iterator@PEB_W@std@@QEBAAEB_WXZ DD imagerel $LN3
	DD	imagerel $LN3+71
	DD	imagerel $unwind$??D?$reverse_iterator@PEB_W@std@@QEBAAEB_WXZ
pdata	ENDS
;	COMDAT pdata
pdata	SEGMENT
$pdata$??E?$reverse_iterator@PEB_W@std@@QEAAAEAV01@XZ DD imagerel $LN3
	DD	imagerel $LN3+72
	DD	imagerel $unwind$??E?$reverse_iterator@PEB_W@std@@QEAAAEAV01@XZ
pdata	ENDS
;	COMDAT pdata
pdata	SEGMENT
$pdata$?_Get_current@?$reverse_iterator@PEB_W@std@@QEBAAEBQEB_WXZ DD imagerel $LN3
	DD	imagerel $LN3+48
	DD	imagerel $unwind$?_Get_current@?$reverse_iterator@PEB_W@std@@QEBAAEBQEB_WXZ
pdata	ENDS
;	COMDAT pdata
pdata	SEGMENT
$pdata$?__autoclassinit2@?$reverse_iterator@PEB_W@std@@QEAAX_K@Z DD imagerel $LN3
	DD	imagerel $LN3+50
	DD	imagerel $unwind$?__autoclassinit2@?$reverse_iterator@PEB_W@std@@QEAAX_K@Z
pdata	ENDS
;	COMDAT pdata
pdata	SEGMENT
$pdata$??$find_if@V?$reverse_iterator@PEB_W@std@@U_Is_slash_oper@filesystem@2@@std@@YA?AV?$reverse_iterator@PEB_W@0@V10@V10@U_Is_slash_oper@filesystem@0@@Z DD imagerel $LN7
	DD	imagerel $LN7+326
	DD	imagerel $unwind$??$find_if@V?$reverse_iterator@PEB_W@std@@U_Is_slash_oper@filesystem@2@@std@@YA?AV?$reverse_iterator@PEB_W@0@V10@V10@U_Is_slash_oper@filesystem@0@@Z
pdata	ENDS
;	COMDAT pdata
pdata	SEGMENT
$pdata$??$find_if_not@V?$reverse_iterator@PEB_W@std@@U_Is_slash_oper@filesystem@2@@std@@YA?AV?$reverse_iterator@PEB_W@0@V10@V10@U_Is_slash_oper@filesystem@0@@Z DD imagerel $LN7
	DD	imagerel $LN7+326
	DD	imagerel $unwind$??$find_if_not@V?$reverse_iterator@PEB_W@std@@U_Is_slash_oper@filesystem@2@@std@@YA?AV?$reverse_iterator@PEB_W@0@V10@V10@U_Is_slash_oper@filesystem@0@@Z
pdata	ENDS
;	COMDAT pdata
pdata	SEGMENT
$pdata$??$?GPEB_WPEB_W@std@@YA_JAEBV?$reverse_iterator@PEB_W@0@0@Z DD imagerel $LN3
	DD	imagerel $LN3+99
	DD	imagerel $unwind$??$?GPEB_WPEB_W@std@@YA_JAEBV?$reverse_iterator@PEB_W@0@0@Z
pdata	ENDS
;	COMDAT pdata
pdata	SEGMENT
$pdata$??$string@DU?$char_traits@D@std@@V?$allocator@D@2@$0A@@path@filesystem@std@@QEBA?AV?$basic_string@DU?$char_traits@D@std@@V?$allocator@D@2@@2@AEBV?$allocator@D@2@@Z DD imagerel $LN5
	DD	imagerel $LN5+164
	DD	imagerel $unwind$??$string@DU?$char_traits@D@std@@V?$allocator@D@2@$0A@@path@filesystem@std@@QEBA?AV?$basic_string@DU?$char_traits@D@std@@V?$allocator@D@2@@2@AEBV?$allocator@D@2@@Z
pdata	ENDS
;	COMDAT pdata
pdata	SEGMENT
$pdata$??$?0V?$basic_string_view@_WU?$char_traits@_W@std@@@std@@$0A@@path@filesystem@std@@QEAA@AEBV?$basic_string_view@_WU?$char_traits@_W@std@@@2@W4format@012@@Z DD imagerel $LN4
	DD	imagerel $LN4+107
	DD	imagerel $unwind$??$?0V?$basic_string_view@_WU?$char_traits@_W@std@@@std@@$0A@@path@filesystem@std@@QEAA@AEBV?$basic_string_view@_WU?$char_traits@_W@std@@@2@W4format@012@@Z
pdata	ENDS
;	COMDAT pdata
pdata	SEGMENT
$pdata$??$?_0V?$basic_string_view@_WU?$char_traits@_W@std@@@std@@$0A@@path@filesystem@std@@QEAAAEAV012@AEBV?$basic_string_view@_WU?$char_traits@_W@std@@@2@@Z DD imagerel $LN4
	DD	imagerel $LN4+134
	DD	imagerel $unwind$??$?_0V?$basic_string_view@_WU?$char_traits@_W@std@@@std@@$0A@@path@filesystem@std@@QEAAAEAV012@AEBV?$basic_string_view@_WU?$char_traits@_W@std@@@2@@Z
pdata	ENDS
;	COMDAT pdata
pdata	SEGMENT
$pdata$?dtor$0@?0???$?_0V?$basic_string_view@_WU?$char_traits@_W@std@@@std@@$0A@@path@filesystem@std@@QEAAAEAV012@AEBV?$basic_string_view@_WU?$char_traits@_W@std@@@2@@Z@4HA DD imagerel ?dtor$0@?0???$?_0V?$basic_string_view@_WU?$char_traits@_W@std@@@std@@$0A@@path@filesystem@std@@QEAAAEAV012@AEBV?$basic_string_view@_WU?$char_traits@_W@std@@@2@@Z@4HA
	DD	imagerel ?dtor$0@?0???$?_0V?$basic_string_view@_WU?$char_traits@_W@std@@@std@@$0A@@path@filesystem@std@@QEAAAEAV012@AEBV?$basic_string_view@_WU?$char_traits@_W@std@@@2@@Z@4HA+39
	DD	imagerel $unwind$?dtor$0@?0???$?_0V?$basic_string_view@_WU?$char_traits@_W@std@@@std@@$0A@@path@filesystem@std@@QEAAAEAV012@AEBV?$basic_string_view@_WU?$char_traits@_W@std@@@2@@Z@4HA
pdata	ENDS
;	COMDAT pdata
pdata	SEGMENT
$pdata$??0filesystem_error@filesystem@std@@QEAA@AEBV?$basic_string@DU?$char_traits@D@std@@V?$allocator@D@2@@2@Verror_code@2@@Z DD imagerel $LN7
	DD	imagerel $LN7+214
	DD	imagerel $unwind$??0filesystem_error@filesystem@std@@QEAA@AEBV?$basic_string@DU?$char_traits@D@std@@V?$allocator@D@2@@2@Verror_code@2@@Z
pdata	ENDS
;	COMDAT pdata
pdata	SEGMENT
$pdata$?dtor$0@?0???0filesystem_error@filesystem@std@@QEAA@AEBV?$basic_string@DU?$char_traits@D@std@@V?$allocator@D@2@@2@Verror_code@2@@Z@4HA DD imagerel ?dtor$0@?0???0filesystem_error@filesystem@std@@QEAA@AEBV?$basic_string@DU?$char_traits@D@std@@V?$allocator@D@2@@2@Verror_code@2@@Z@4HA
	DD	imagerel ?dtor$0@?0???0filesystem_error@filesystem@std@@QEAA@AEBV?$basic_string@DU?$char_traits@D@std@@V?$allocator@D@2@@2@Verror_code@2@@Z@4HA+39
	DD	imagerel $unwind$?dtor$0@?0???0filesystem_error@filesystem@std@@QEAA@AEBV?$basic_string@DU?$char_traits@D@std@@V?$allocator@D@2@@2@Verror_code@2@@Z@4HA
pdata	ENDS
;	COMDAT pdata
pdata	SEGMENT
$pdata$?dtor$1@?0???0filesystem_error@filesystem@std@@QEAA@AEBV?$basic_string@DU?$char_traits@D@std@@V?$allocator@D@2@@2@Verror_code@2@@Z@4HA DD imagerel ?dtor$1@?0???0filesystem_error@filesystem@std@@QEAA@AEBV?$basic_string@DU?$char_traits@D@std@@V?$allocator@D@2@@2@Verror_code@2@@Z@4HA
	DD	imagerel ?dtor$1@?0???0filesystem_error@filesystem@std@@QEAA@AEBV?$basic_string@DU?$char_traits@D@std@@V?$allocator@D@2@@2@Verror_code@2@@Z@4HA+43
	DD	imagerel $unwind$?dtor$1@?0???0filesystem_error@filesystem@std@@QEAA@AEBV?$basic_string@DU?$char_traits@D@std@@V?$allocator@D@2@@2@Verror_code@2@@Z@4HA
pdata	ENDS
;	COMDAT pdata
pdata	SEGMENT
$pdata$?dtor$2@?0???0filesystem_error@filesystem@std@@QEAA@AEBV?$basic_string@DU?$char_traits@D@std@@V?$allocator@D@2@@2@Verror_code@2@@Z@4HA DD imagerel ?dtor$2@?0???0filesystem_error@filesystem@std@@QEAA@AEBV?$basic_string@DU?$char_traits@D@std@@V?$allocator@D@2@@2@Verror_code@2@@Z@4HA
	DD	imagerel ?dtor$2@?0???0filesystem_error@filesystem@std@@QEAA@AEBV?$basic_string@DU?$char_traits@D@std@@V?$allocator@D@2@@2@Verror_code@2@@Z@4HA+43
	DD	imagerel $unwind$?dtor$2@?0???0filesystem_error@filesystem@std@@QEAA@AEBV?$basic_string@DU?$char_traits@D@std@@V?$allocator@D@2@@2@Verror_code@2@@Z@4HA
pdata	ENDS
;	COMDAT pdata
pdata	SEGMENT
$pdata$??0filesystem_error@filesystem@std@@QEAA@AEBV?$basic_string@DU?$char_traits@D@std@@V?$allocator@D@2@@2@AEBVpath@12@Verror_code@2@@Z DD imagerel $LN8
	DD	imagerel $LN8+361
	DD	imagerel $unwind$??0filesystem_error@filesystem@std@@QEAA@AEBV?$basic_string@DU?$char_traits@D@std@@V?$allocator@D@2@@2@AEBVpath@12@Verror_code@2@@Z
pdata	ENDS
;	COMDAT pdata
pdata	SEGMENT
$pdata$?dtor$0@?0???0filesystem_error@filesystem@std@@QEAA@AEBV?$basic_string@DU?$char_traits@D@std@@V?$allocator@D@2@@2@AEBVpath@12@Verror_code@2@@Z@4HA DD imagerel ?dtor$0@?0???0filesystem_error@filesystem@std@@QEAA@AEBV?$basic_string@DU?$char_traits@D@std@@V?$allocator@D@2@@2@AEBVpath@12@Verror_code@2@@Z@4HA
	DD	imagerel ?dtor$0@?0???0filesystem_error@filesystem@std@@QEAA@AEBV?$basic_string@DU?$char_traits@D@std@@V?$allocator@D@2@@2@AEBVpath@12@Verror_code@2@@Z@4HA+39
	DD	imagerel $unwind$?dtor$0@?0???0filesystem_error@filesystem@std@@QEAA@AEBV?$basic_string@DU?$char_traits@D@std@@V?$allocator@D@2@@2@AEBVpath@12@Verror_code@2@@Z@4HA
pdata	ENDS
;	COMDAT pdata
pdata	SEGMENT
$pdata$?dtor$1@?0???0filesystem_error@filesystem@std@@QEAA@AEBV?$basic_string@DU?$char_traits@D@std@@V?$allocator@D@2@@2@AEBVpath@12@Verror_code@2@@Z@4HA DD imagerel ?dtor$1@?0???0filesystem_error@filesystem@std@@QEAA@AEBV?$basic_string@DU?$char_traits@D@std@@V?$allocator@D@2@@2@AEBVpath@12@Verror_code@2@@Z@4HA
	DD	imagerel ?dtor$1@?0???0filesystem_error@filesystem@std@@QEAA@AEBV?$basic_string@DU?$char_traits@D@std@@V?$allocator@D@2@@2@AEBVpath@12@Verror_code@2@@Z@4HA+43
	DD	imagerel $unwind$?dtor$1@?0???0filesystem_error@filesystem@std@@QEAA@AEBV?$basic_string@DU?$char_traits@D@std@@V?$allocator@D@2@@2@AEBVpath@12@Verror_code@2@@Z@4HA
pdata	ENDS
;	COMDAT pdata
pdata	SEGMENT
$pdata$?dtor$2@?0???0filesystem_error@filesystem@std@@QEAA@AEBV?$basic_string@DU?$char_traits@D@std@@V?$allocator@D@2@@2@AEBVpath@12@Verror_code@2@@Z@4HA DD imagerel ?dtor$2@?0???0filesystem_error@filesystem@std@@QEAA@AEBV?$basic_string@DU?$char_traits@D@std@@V?$allocator@D@2@@2@AEBVpath@12@Verror_code@2@@Z@4HA
	DD	imagerel ?dtor$2@?0???0filesystem_error@filesystem@std@@QEAA@AEBV?$basic_string@DU?$char_traits@D@std@@V?$allocator@D@2@@2@AEBVpath@12@Verror_code@2@@Z@4HA+43
	DD	imagerel $unwind$?dtor$2@?0???0filesystem_error@filesystem@std@@QEAA@AEBV?$basic_string@DU?$char_traits@D@std@@V?$allocator@D@2@@2@AEBVpath@12@Verror_code@2@@Z@4HA
pdata	ENDS
;	COMDAT pdata
pdata	SEGMENT
