; Listing generated by Microsoft (R) Optimizing Compiler Version 19.38.33135.0 

include listing.inc

INCLUDELIB MSVCRTD
INCLUDELIB OLDNAMES

msvcjmc	SEGMENT
__6628E330_concurrencysal@h DB 01H
__DD735C24_sal@h DB 01H
__95D07812_vadefs@h DB 01H
__2C966F75_vcruntime@h DB 01H
__C84B2A68_xkeycheck@h DB 01H
__E4981F91_yvals_core@h DB 01H
__1B0272D9_corecrt@h DB 01H
__50BF2FAA_vcruntime_new@h DB 01H
__973DD6D2_vcruntime_new_debug@h DB 01H
__935DC21B_crtdbg@h DB 01H
__EA84BEDA_crtdefs@h DB 01H
__7A2C09FE_use_ansi@h DB 01H
__B806B4B7_yvals@h DB 01H
__44420885_corecrt_stdio_config@h DB 01H
__AB601D8D_corecrt_wstdio@h DB 01H
__C1EC35D3_stdio@h DB 01H
__099E6B1A_cstdio DB 01H
__8ECB7138_corecrt_share@h DB 01H
__F7972D0B_share@h DB 01H
__13F5961F_stddef@h DB 01H
__81223BB7_xtr1common DB 01H
__AB8DD8A5_cstddef DB 01H
__C9486F03___msvc_system_error_abi@hpp DB 01H
__61CC25A1_errno@h DB 01H
__94BF1FE1_cerrno DB 01H
__BB16330F_corecrt_math@h DB 01H
__3BF2A406_math@h DB 01H
__45DED006_corecrt_malloc@h DB 01H
__FD6DBD68_corecrt_search@h DB 01H
__E2E33A61_corecrt_wstdlib@h DB 01H
__53AB384B_limits@h DB 01H
__6E5ACABA_stdlib@h DB 01H
__0E460208_cstdlib DB 01H
__EDDD1674_stdint@h DB 01H
__B318E375_cstdint DB 01H
__86E2ECA3_type_traits DB 01H
__FA77ED4C_malloc@h DB 01H
__89766DA4_corecrt_terminate@h DB 01H
__597317E9_eh@h DB 01H
__9FD3D380_vcruntime_exception@h DB 01H
__22DBD04C_exception DB 01H
__FFDAFD70___msvc_sanitizer_annotate_container@hpp DB 01H
__21B98AC3_vcruntime_string@h DB 01H
__E4C945B4_corecrt_memcpy_s@h DB 01H
__8EAFF484_corecrt_memory@h DB 01H
__6490AEC5_corecrt_wstring@h DB 01H
__E8295E1E_string@h DB 01H
__42D4AAE8_cstring DB 01H
__EF1F6BBA_corecrt_wconio@h DB 01H
__74484FB3_corecrt_wctype@h DB 01H
__3D1D430C_corecrt_wdirect@h DB 01H
__DB7FEBA6_corecrt_wio@h DB 01H
__9A9F0068_corecrt_wprocess@h DB 01H
__369A9BC3_corecrt_wtime@h DB 01H
__CE789B9D_types@h DB 01H
__9901C817_stat@h DB 01H
__3FCAD62E_wchar@h DB 01H
__9315BD49_cwchar DB 01H
__D0D5387F_iosfwd DB 01H
__B9985323_float@h DB 01H
__7ADAA09D_cfloat DB 01H
__8AA920FA_climits DB 01H
__2FEC17FD_intrin0@inl@h DB 01H
__F3A907D1_intrin0@h DB 01H
__1C3CEDF9_limits DB 01H
__6B6686E8_new DB 01H
__28D75C9A_xatomic@h DB 01H
__7CEE9503_initializer_list DB 01H
__05AD8743_concepts DB 01H
__F75338B9_compare DB 01H
__394B8783_utility DB 01H
__6CD66C6A___msvc_iter_core@hpp DB 01H
__81056E89_xutility DB 01H
__19EA4BD2_tuple DB 01H
__53DEE440_xmemory DB 01H
__C1E54F69_xpolymorphic_allocator@h DB 01H
__270D62DC_xstring DB 01H
__AB95EA11_stdexcept DB 01H
__A700C1C1_xcall_once@h DB 01H
__1093A1B8_xerrc@h DB 01H
__8E83AFDB_xatomic_wait@h DB 01H
__0A9237D2_time@h DB 01H
__797ACE9B_ctime DB 01H
__37C18DC8_xtimec@h DB 01H
__1B623E4D_xthreads@h DB 01H
__7709B13B_atomic DB 01H
__185DD3E1_system_error DB 01H
__78388AF5_vcruntime_typeinfo@h DB 01H
__F1DA9D90_typeinfo DB 01H
__A092E177_memory DB 01H
__8CD7B678_xfacet DB 01H
__8B91FF0A___msvc_xlocinfo_types@hpp DB 01H
__1EC467ED_ctype@h DB 01H
__06558CBD_cctype DB 01H
__791C33B7_locale@h DB 01H
__9DEADED9_clocale DB 01H
__EE537E58_xlocinfo DB 01H
__F83316ED_xlocale DB 01H
__D7B6094B_xiosbase DB 01H
__A93552AD_streambuf DB 01H
__AD982FC2___msvc_filebuf@hpp DB 01H
__BFC95293_cmath DB 01H
__90A9D9C9_iterator DB 01H
__66B470FA_xlocnum DB 01H
__93ABBCFE_ios DB 01H
__EB23CC29_ostream DB 01H
__88F3F913_istream DB 01H
__7EBB89FA_fstream DB 01H
__C8179298_algorithm DB 01H
__D37ACB3D_ratio DB 01H
__368A71EB___msvc_chrono@hpp DB 01H
__DE87ED23_xfilesystem_abi@h DB 01H
__EA190C3F___msvc_tzdb@hpp DB 01H
__23BB31BF_forward_list DB 01H
__863D0478_xsmf_control@h DB 01H
__E8D1C288_optional DB 01H
__D44167EB_string DB 01H
__4B5D3A93_sstream DB 01H
__187EA84C___msvc_bit_utils@hpp DB 01H
__51919D19_vector DB 01H
__4A4ED74A_xloctime DB 01H
__C8CB7150___msvc_format_ucd_tables@hpp DB 01H
__A07C8C4C___msvc_print@hpp DB 01H
__57C0613A_bit DB 01H
__AE686A70_xbit_ops@h DB 01H
__82C730B3_xcharconv@h DB 01H
__D48FA755_xcharconv_ryu_tables@h DB 01H
__4AEC53CD_xcharconv_ryu@h DB 01H
__E350A92B_xcharconv_tables@h DB 01H
__9E8A00EF_charconv DB 01H
__F87C5016_xlocbuf DB 01H
__D43FE191_xlocmes DB 01H
__4DD665C2_xlocmon DB 01H
__0B7F13DA_locale DB 01H
__9445A79D_format DB 01H
__74313F41_iomanip DB 01H
__78D1EB73_chrono DB 01H
__77C0A0AD_filesystem DB 01H
__E37C1496_iostream DB 01H
__6E434CEF_vcruntime_startup@h DB 01H
__005E73E1_corecrt_startup@h DB 01H
__8B12B2C4_process@h DB 01H
__4CE3A781_stop_token DB 01H
__7BDF99C1_thread DB 01H
__B3D148E0_deque DB 01H
__50E70C21_queue DB 01H
__C1D7C16D_mutex DB 01H
__3EAD4D02_list DB 01H
__DA916AFB_xnode_handle@h DB 01H
__D06692F5_xhash DB 01H
__43E0D473_unordered_map DB 01H
__7931BFA6_functional DB 01H
__82DE502A_includes@h DB 01H
__EB3D323B_thread_pool@h DB 01H
__A50BEB60_filemanip@h DB 01H
__6CEEF113_main@cpp DB 01H
__6A59E0E5_predefined C++ types (compiler internal) DB 01H
msvcjmc	ENDS
PUBLIC	?__empty_global_delete@@YAXPEAX@Z		; __empty_global_delete
PUBLIC	?__empty_global_delete@@YAXPEAX_K@Z		; __empty_global_delete
PUBLIC	?__empty_global_delete@@YAXPEAXW4align_val_t@std@@@Z ; __empty_global_delete
PUBLIC	?__empty_global_delete@@YAXPEAX_KW4align_val_t@std@@@Z ; __empty_global_delete
PUBLIC	??2@YAPEAX_KPEAX@Z				; operator new
PUBLIC	?is_constant_evaluated@std@@YA_NXZ		; std::is_constant_evaluated
PUBLIC	??0exception@std@@QEAA@QEBDH@Z			; std::exception::exception
PUBLIC	??0exception@std@@QEAA@AEBV01@@Z		; std::exception::exception
PUBLIC	??1exception@std@@UEAA@XZ			; std::exception::~exception
PUBLIC	?what@exception@std@@UEBAPEBDXZ			; std::exception::what
PUBLIC	??_Gexception@std@@UEAAPEAXI@Z			; std::exception::`scalar deleting destructor'
PUBLIC	??0bad_alloc@std@@AEAA@QEBD@Z			; std::bad_alloc::bad_alloc
PUBLIC	??1bad_alloc@std@@UEAA@XZ			; std::bad_alloc::~bad_alloc
PUBLIC	??0bad_alloc@std@@QEAA@AEBV01@@Z		; std::bad_alloc::bad_alloc
PUBLIC	??_Gbad_alloc@std@@UEAAPEAXI@Z			; std::bad_alloc::`scalar deleting destructor'
PUBLIC	??0bad_array_new_length@std@@QEAA@XZ		; std::bad_array_new_length::bad_array_new_length
PUBLIC	??1bad_array_new_length@std@@UEAA@XZ		; std::bad_array_new_length::~bad_array_new_length
PUBLIC	??0bad_array_new_length@std@@QEAA@AEBV01@@Z	; std::bad_array_new_length::bad_array_new_length
PUBLIC	??_Gbad_array_new_length@std@@UEAAPEAXI@Z	; std::bad_array_new_length::`scalar deleting destructor'
PUBLIC	?_Throw_bad_array_new_length@std@@YAXXZ		; std::_Throw_bad_array_new_length
PUBLIC	wmemcpy
PUBLIC	?max@?$numeric_limits@_J@std@@SA_JXZ		; std::numeric_limits<__int64>::max
PUBLIC	?_Allocate@_Default_allocate_traits@std@@SAPEAX_K@Z ; std::_Default_allocate_traits::_Allocate
PUBLIC	?_Adjust_manually_vector_aligned@std@@YAXAEAPEAXAEA_K@Z ; std::_Adjust_manually_vector_aligned
PUBLIC	??0_Container_proxy@std@@QEAA@PEAU_Container_base12@1@@Z ; std::_Container_proxy::_Container_proxy
PUBLIC	??0_Container_base12@std@@QEAA@XZ		; std::_Container_base12::_Container_base12
PUBLIC	?_Orphan_all@_Container_base12@std@@QEAAXXZ	; std::_Container_base12::_Orphan_all
PUBLIC	?_Orphan_all_unlocked_v3@_Container_base12@std@@AEAAXXZ ; std::_Container_base12::_Orphan_all_unlocked_v3
PUBLIC	?_Orphan_all_locked_v3@_Container_base12@std@@AEAAXXZ ; std::_Container_base12::_Orphan_all_locked_v3
PUBLIC	??$exchange@PEAU_Iterator_base12@std@@$$T@std@@YAPEAU_Iterator_base12@0@AEAPEAU10@$$QEA$$T@Z ; std::exchange<std::_Iterator_base12 *,std::nullptr_t>
PUBLIC	?_Release@_Basic_container_proxy_ptr12@std@@QEAAXXZ ; std::_Basic_container_proxy_ptr12::_Release
PUBLIC	??0_Basic_container_proxy_ptr12@std@@IEAA@XZ	; std::_Basic_container_proxy_ptr12::_Basic_container_proxy_ptr12
PUBLIC	??$addressof@U_Container_base12@std@@@std@@YAPEAU_Container_base12@0@AEAU10@@Z ; std::addressof<std::_Container_base12>
PUBLIC	??$_Construct_in_place@U_Container_proxy@std@@PEAU_Container_base12@2@@std@@YAXAEAU_Container_proxy@0@$$QEAPEAU_Container_base12@0@@Z ; std::_Construct_in_place<std::_Container_proxy,std::_Container_base12 *>
PUBLIC	?copy@?$_Char_traits@DH@std@@SAPEADQEADQEBD_K@Z	; std::_Char_traits<char,int>::copy
PUBLIC	?assign@?$_Char_traits@DH@std@@SAXAEADAEBD@Z	; std::_Char_traits<char,int>::assign
PUBLIC	?length@?$_Narrow_char_traits@DH@std@@SA_KQEBD@Z ; std::_Narrow_char_traits<char,int>::length
PUBLIC	?assign@?$_Narrow_char_traits@DH@std@@SAXAEADAEBD@Z ; std::_Narrow_char_traits<char,int>::assign
PUBLIC	?to_char_type@?$_Narrow_char_traits@DH@std@@SADH@Z ; std::_Narrow_char_traits<char,int>::to_char_type
PUBLIC	?eq_int_type@?$_Narrow_char_traits@DH@std@@SA_NHH@Z ; std::_Narrow_char_traits<char,int>::eq_int_type
PUBLIC	?eof@?$_Narrow_char_traits@DH@std@@SAHXZ	; std::_Narrow_char_traits<char,int>::eof
PUBLIC	?_Xlen_string@std@@YAXXZ			; std::_Xlen_string
PUBLIC	??0?$allocator@D@std@@QEAA@XZ			; std::allocator<char>::allocator<char>
PUBLIC	?deallocate@?$allocator@D@std@@QEAAXQEAD_K@Z	; std::allocator<char>::deallocate
PUBLIC	?allocate@?$allocator@D@std@@QEAAPEAD_K@Z	; std::allocator<char>::allocate
PUBLIC	?max_size@?$_Default_allocator_traits@V?$allocator@D@std@@@std@@SA_KAEBV?$allocator@D@2@@Z ; std::_Default_allocator_traits<std::allocator<char> >::max_size
PUBLIC	?select_on_container_copy_construction@?$_Default_allocator_traits@V?$allocator@D@std@@@std@@SA?AV?$allocator@D@2@AEBV32@@Z ; std::_Default_allocator_traits<std::allocator<char> >::select_on_container_copy_construction
PUBLIC	??0?$_String_val@U?$_Simple_types@D@std@@@std@@QEAA@XZ ; std::_String_val<std::_Simple_types<char> >::_String_val<std::_Simple_types<char> >
PUBLIC	?_Myptr@?$_String_val@U?$_Simple_types@D@std@@@std@@QEAAPEADXZ ; std::_String_val<std::_Simple_types<char> >::_Myptr
PUBLIC	?_Myptr@?$_String_val@U?$_Simple_types@D@std@@@std@@QEBAPEBDXZ ; std::_String_val<std::_Simple_types<char> >::_Myptr
PUBLIC	?_Large_mode_engaged@?$_String_val@U?$_Simple_types@D@std@@@std@@QEBA_NXZ ; std::_String_val<std::_Simple_types<char> >::_Large_mode_engaged
PUBLIC	?_Activate_SSO_buffer@?$_String_val@U?$_Simple_types@D@std@@@std@@QEAAXXZ ; std::_String_val<std::_Simple_types<char> >::_Activate_SSO_buffer
PUBLIC	?_Check_offset@?$_String_val@U?$_Simple_types@D@std@@@std@@QEBAX_K@Z ; std::_String_val<std::_Simple_types<char> >::_Check_offset
PUBLIC	?_Xran@?$_String_val@U?$_Simple_types@D@std@@@std@@SAXXZ ; std::_String_val<std::_Simple_types<char> >::_Xran
PUBLIC	??0_Bxty@?$_String_val@U?$_Simple_types@D@std@@@std@@QEAA@XZ ; std::_String_val<std::_Simple_types<char> >::_Bxty::_Bxty
PUBLIC	??1_Bxty@?$_String_val@U?$_Simple_types@D@std@@@std@@QEAA@XZ ; std::_String_val<std::_Simple_types<char> >::_Bxty::~_Bxty
PUBLIC	??1?$_String_val@U?$_Simple_types@D@std@@@std@@QEAA@XZ ; std::_String_val<std::_Simple_types<char> >::~_String_val<std::_Simple_types<char> >
PUBLIC	??0?$basic_string@DU?$char_traits@D@std@@V?$allocator@D@2@@std@@QEAA@AEBV01@@Z ; std::basic_string<char,std::char_traits<char>,std::allocator<char> >::basic_string<char,std::char_traits<char>,std::allocator<char> >
PUBLIC	??0?$basic_string@DU?$char_traits@D@std@@V?$allocator@D@2@@std@@QEAA@QEBD@Z ; std::basic_string<char,std::char_traits<char>,std::allocator<char> >::basic_string<char,std::char_traits<char>,std::allocator<char> >
PUBLIC	?_Deallocate_for_capacity@?$basic_string@DU?$char_traits@D@std@@V?$allocator@D@2@@std@@CAXAEAV?$allocator@D@2@QEAD_K@Z ; std::basic_string<char,std::char_traits<char>,std::allocator<char> >::_Deallocate_for_capacity
PUBLIC	??1?$basic_string@DU?$char_traits@D@std@@V?$allocator@D@2@@std@@QEAA@XZ ; std::basic_string<char,std::char_traits<char>,std::allocator<char> >::~basic_string<char,std::char_traits<char>,std::allocator<char> >
PUBLIC	?erase@?$basic_string@DU?$char_traits@D@std@@V?$allocator@D@2@@std@@QEAAAEAV12@_K@Z ; std::basic_string<char,std::char_traits<char>,std::allocator<char> >::erase
PUBLIC	?push_back@?$basic_string@DU?$char_traits@D@std@@V?$allocator@D@2@@std@@QEAAXD@Z ; std::basic_string<char,std::char_traits<char>,std::allocator<char> >::push_back
PUBLIC	?max_size@?$basic_string@DU?$char_traits@D@std@@V?$allocator@D@2@@std@@QEBA_KXZ ; std::basic_string<char,std::char_traits<char>,std::allocator<char> >::max_size
PUBLIC	?_Calculate_growth@?$basic_string@DU?$char_traits@D@std@@V?$allocator@D@2@@std@@CA_K_K00@Z ; std::basic_string<char,std::char_traits<char>,std::allocator<char> >::_Calculate_growth
PUBLIC	?_Calculate_growth@?$basic_string@DU?$char_traits@D@std@@V?$allocator@D@2@@std@@AEBA_K_K@Z ; std::basic_string<char,std::char_traits<char>,std::allocator<char> >::_Calculate_growth
PUBLIC	?_Eos@?$basic_string@DU?$char_traits@D@std@@V?$allocator@D@2@@std@@AEAAX_K@Z ; std::basic_string<char,std::char_traits<char>,std::allocator<char> >::_Eos
PUBLIC	?_Tidy_deallocate@?$basic_string@DU?$char_traits@D@std@@V?$allocator@D@2@@std@@AEAAXXZ ; std::basic_string<char,std::char_traits<char>,std::allocator<char> >::_Tidy_deallocate
PUBLIC	?_Getal@?$basic_string@DU?$char_traits@D@std@@V?$allocator@D@2@@std@@AEAAAEAV?$allocator@D@2@XZ ; std::basic_string<char,std::char_traits<char>,std::allocator<char> >::_Getal
PUBLIC	?_Getal@?$basic_string@DU?$char_traits@D@std@@V?$allocator@D@2@@std@@AEBAAEBV?$allocator@D@2@XZ ; std::basic_string<char,std::char_traits<char>,std::allocator<char> >::_Getal
PUBLIC	?_Get_first@?$_Compressed_pair@V?$allocator@D@std@@V?$_String_val@U?$_Simple_types@D@std@@@2@$00@std@@QEAAAEAV?$allocator@D@2@XZ ; std::_Compressed_pair<std::allocator<char>,std::_String_val<std::_Simple_types<char> >,1>::_Get_first
PUBLIC	?_Get_first@?$_Compressed_pair@V?$allocator@D@std@@V?$_String_val@U?$_Simple_types@D@std@@@2@$00@std@@QEBAAEBV?$allocator@D@2@XZ ; std::_Compressed_pair<std::allocator<char>,std::_String_val<std::_Simple_types<char> >,1>::_Get_first
PUBLIC	??1?$_Compressed_pair@V?$allocator@D@std@@V?$_String_val@U?$_Simple_types@D@std@@@2@$00@std@@QEAA@XZ ; std::_Compressed_pair<std::allocator<char>,std::_String_val<std::_Simple_types<char> >,1>::~_Compressed_pair<std::allocator<char>,std::_String_val<std::_Simple_types<char> >,1>
PUBLIC	??0bad_cast@std@@QEAA@XZ			; std::bad_cast::bad_cast
PUBLIC	??1bad_cast@std@@UEAA@XZ			; std::bad_cast::~bad_cast
PUBLIC	??0bad_cast@std@@QEAA@AEBV01@@Z			; std::bad_cast::bad_cast
PUBLIC	??_Gbad_cast@std@@UEAAPEAXI@Z			; std::bad_cast::`scalar deleting destructor'
PUBLIC	?_Throw_bad_cast@std@@YAXXZ			; std::_Throw_bad_cast
PUBLIC	?_Decref@_Ref_count_base@std@@QEAAXXZ		; std::_Ref_count_base::_Decref
PUBLIC	?_Decwref@_Ref_count_base@std@@QEAAXXZ		; std::_Ref_count_base::_Decwref
PUBLIC	??1locale@std@@QEAA@XZ				; std::locale::~locale
PUBLIC	?_Getfacet@locale@std@@QEBAPEBVfacet@12@_K@Z	; std::locale::_Getfacet
PUBLIC	??$_Maklocstr@_W@std@@YAPEA_WPEBDPEA_WAEBU_Cvtvec@@@Z ; std::_Maklocstr<wchar_t>
PUBLIC	??$use_facet@V?$ctype@D@std@@@std@@YAAEBV?$ctype@D@0@AEBVlocale@0@@Z ; std::use_facet<std::ctype<char> >
PUBLIC	?_Maklocwcs@std@@YAPEA_WPEB_W@Z			; std::_Maklocwcs
PUBLIC	??$_Maklocstr@D@std@@YAPEADPEBDPEADAEBU_Cvtvec@@@Z ; std::_Maklocstr<char>
PUBLIC	?now@steady_clock@chrono@std@@SA?AV?$time_point@Usteady_clock@chrono@std@@V?$duration@_JU?$ratio@$00$0DLJKMKAA@@std@@@23@@23@XZ ; std::chrono::steady_clock::now
PUBLIC	?count@?$duration@_JU?$ratio@$00$0DLJKMKAA@@std@@@chrono@std@@QEBA_JXZ ; std::chrono::duration<__int64,std::ratio<1,1000000000> >::count
PUBLIC	??0?$time_point@Usteady_clock@chrono@std@@V?$duration@_JU?$ratio@$00$0DLJKMKAA@@std@@@23@@chrono@std@@QEAA@AEBV?$duration@_JU?$ratio@$00$0DLJKMKAA@@std@@@12@@Z ; std::chrono::time_point<std::chrono::steady_clock,std::chrono::duration<__int64,std::ratio<1,1000000000> > >::time_point<std::chrono::steady_clock,std::chrono::duration<__int64,std::ratio<1,1000000000> > >
PUBLIC	?time_since_epoch@?$time_point@Usteady_clock@chrono@std@@V?$duration@_JU?$ratio@$00$0DLJKMKAA@@std@@@23@@chrono@std@@QEBA?AV?$duration@_JU?$ratio@$00$0DLJKMKAA@@std@@@23@XZ ; std::chrono::time_point<std::chrono::steady_clock,std::chrono::duration<__int64,std::ratio<1,1000000000> > >::time_since_epoch
PUBLIC	??$?0_J$0A@@?$duration@_JU?$ratio@$00$0DLJKMKAA@@std@@@chrono@std@@QEAA@AEB_J@Z ; std::chrono::duration<__int64,std::ratio<1,1000000000> >::duration<__int64,std::ratio<1,1000000000> ><__int64,0>
PUBLIC	?count@?$duration@NU?$ratio@$00$00@std@@@chrono@std@@QEBANXZ ; std::chrono::duration<double,std::ratio<1,1> >::count
PUBLIC	??$?0_JU?$ratio@$00$0DLJKMKAA@@std@@$0A@@?$duration@NU?$ratio@$00$00@std@@@chrono@std@@QEAA@AEBV?$duration@_JU?$ratio@$00$0DLJKMKAA@@std@@@12@@Z ; std::chrono::duration<double,std::ratio<1,1> >::duration<double,std::ratio<1,1> ><__int64,std::ratio<1,1000000000>,0>
PUBLIC	??$duration_cast@V?$duration@NU?$ratio@$00$00@std@@@chrono@std@@_JU?$ratio@$00$0DLJKMKAA@@3@$0A@@chrono@std@@YA?AV?$duration@NU?$ratio@$00$00@std@@@01@AEBV?$duration@_JU?$ratio@$00$0DLJKMKAA@@std@@@01@@Z ; std::chrono::duration_cast<std::chrono::duration<double,std::ratio<1,1> >,__int64,std::ratio<1,1000000000>,0>
PUBLIC	??$?0N$0A@@?$duration@NU?$ratio@$00$00@std@@@chrono@std@@QEAA@AEBN@Z ; std::chrono::duration<double,std::ratio<1,1> >::duration<double,std::ratio<1,1> ><double,0>
PUBLIC	??$_Getvals@_W@?$time_get@DV?$istreambuf_iterator@DU?$char_traits@D@std@@@std@@@std@@IEAAX_WAEBV_Locinfo@1@@Z ; std::time_get<char,std::istreambuf_iterator<char,std::char_traits<char> > >::_Getvals<wchar_t>
PUBLIC	??$_Getvals@_W@?$time_get@_WV?$istreambuf_iterator@_WU?$char_traits@_W@std@@@std@@@std@@IEAAX_WAEBV_Locinfo@1@@Z ; std::time_get<wchar_t,std::istreambuf_iterator<wchar_t,std::char_traits<wchar_t> > >::_Getvals<wchar_t>
PUBLIC	??$max@_K@std@@YAAEB_KAEB_K0@Z			; std::max<unsigned __int64>
PUBLIC	?_Decref@?$_Ptr_base@V?$basic_ifstream@DU?$char_traits@D@std@@@std@@@std@@IEAAXXZ ; std::_Ptr_base<std::basic_ifstream<char,std::char_traits<char> > >::_Decref
PUBLIC	??1?$shared_ptr@V?$basic_ifstream@DU?$char_traits@D@std@@@std@@@std@@QEAA@XZ ; std::shared_ptr<std::basic_ifstream<char,std::char_traits<char> > >::~shared_ptr<std::basic_ifstream<char,std::char_traits<char> > >
PUBLIC	??1file_task@@QEAA@XZ				; file_task::~file_task
PUBLIC	??_Gfile_task@@QEAAPEAXI@Z			; file_task::`scalar deleting destructor'
PUBLIC	?deallocate@?$allocator@Ufile_task@@@std@@QEAAXQEAUfile_task@@_K@Z ; std::allocator<file_task>::deallocate
PUBLIC	??1?$vector@Ufile_task@@V?$allocator@Ufile_task@@@std@@@std@@QEAA@XZ ; std::vector<file_task,std::allocator<file_task> >::~vector<file_task,std::allocator<file_task> >
PUBLIC	?_Tidy@?$vector@Ufile_task@@V?$allocator@Ufile_task@@@std@@@std@@AEAAXXZ ; std::vector<file_task,std::allocator<file_task> >::_Tidy
PUBLIC	?_Getal@?$vector@Ufile_task@@V?$allocator@Ufile_task@@@std@@@std@@AEAAAEAV?$allocator@Ufile_task@@@2@XZ ; std::vector<file_task,std::allocator<file_task> >::_Getal
PUBLIC	?_Get_first@?$_Compressed_pair@V?$allocator@Ufile_task@@@std@@V?$_Vector_val@U?$_Simple_types@Ufile_task@@@std@@@2@$00@std@@QEAAAEAV?$allocator@Ufile_task@@@2@XZ ; std::_Compressed_pair<std::allocator<file_task>,std::_Vector_val<std::_Simple_types<file_task> >,1>::_Get_first
PUBLIC	??1filemanip@@QEAA@XZ				; filemanip::~filemanip
PUBLIC	?__autoclassinit2@filemanip@@QEAAX_K@Z		; filemanip::__autoclassinit2
PUBLIC	main
PUBLIC	??$?6U?$char_traits@D@std@@@std@@YAAEAV?$basic_ostream@DU?$char_traits@D@std@@@0@AEAV10@PEBD@Z ; std::operator<<<std::char_traits<char> >
PUBLIC	??$?5DU?$char_traits@D@std@@V?$allocator@D@1@@std@@YAAEAV?$basic_istream@DU?$char_traits@D@std@@@0@AEAV10@AEAV?$basic_string@DU?$char_traits@D@std@@V?$allocator@D@2@@0@@Z ; std::operator>><char,std::char_traits<char>,std::allocator<char> >
PUBLIC	??$?GUsteady_clock@chrono@std@@V?$duration@_JU?$ratio@$00$0DLJKMKAA@@std@@@12@V312@@chrono@std@@YA?AV?$duration@_JU?$ratio@$00$0DLJKMKAA@@std@@@01@AEBV?$time_point@Usteady_clock@chrono@std@@V?$duration@_JU?$ratio@$00$0DLJKMKAA@@std@@@23@@01@0@Z ; std::chrono::operator-<std::chrono::steady_clock,std::chrono::duration<__int64,std::ratio<1,1000000000> >,std::chrono::duration<__int64,std::ratio<1,1000000000> > >
PUBLIC	??$endl@DU?$char_traits@D@std@@@std@@YAAEAV?$basic_ostream@DU?$char_traits@D@std@@@0@AEAV10@@Z ; std::endl<char,std::char_traits<char> >
PUBLIC	?deallocate@?$allocator@U_Container_proxy@std@@@std@@QEAAXQEAU_Container_proxy@2@_K@Z ; std::allocator<std::_Container_proxy>::deallocate
PUBLIC	?allocate@?$allocator@U_Container_proxy@std@@@std@@QEAAPEAU_Container_proxy@2@_K@Z ; std::allocator<std::_Container_proxy>::allocate
PUBLIC	??$?0Ufile_task@@@?$allocator@U_Container_proxy@std@@@std@@QEAA@AEBV?$allocator@Ufile_task@@@1@@Z ; std::allocator<std::_Container_proxy>::allocator<std::_Container_proxy><file_task>
PUBLIC	??$exchange@PEAU_Container_proxy@std@@$$T@std@@YAPEAU_Container_proxy@0@AEAPEAU10@$$QEA$$T@Z ; std::exchange<std::_Container_proxy *,std::nullptr_t>
PUBLIC	??$_Delete_plain_internal@V?$allocator@U_Container_proxy@std@@@std@@@std@@YAXAEAV?$allocator@U_Container_proxy@std@@@0@QEAU_Container_proxy@0@@Z ; std::_Delete_plain_internal<std::allocator<std::_Container_proxy> >
PUBLIC	??$_Allocate_at_least_helper@V?$allocator@D@std@@@std@@YAPEADAEAV?$allocator@D@0@AEA_K@Z ; std::_Allocate_at_least_helper<std::allocator<char> >
PUBLIC	??$_Unfancy@D@std@@YAPEADPEAD@Z			; std::_Unfancy<char>
PUBLIC	??0_Sentry_base@?$basic_ostream@DU?$char_traits@D@std@@@std@@QEAA@AEAV12@@Z ; std::basic_ostream<char,std::char_traits<char> >::_Sentry_base::_Sentry_base
PUBLIC	??1_Sentry_base@?$basic_ostream@DU?$char_traits@D@std@@@std@@QEAA@XZ ; std::basic_ostream<char,std::char_traits<char> >::_Sentry_base::~_Sentry_base
PUBLIC	??0sentry@?$basic_ostream@DU?$char_traits@D@std@@@std@@QEAA@AEAV12@@Z ; std::basic_ostream<char,std::char_traits<char> >::sentry::sentry
PUBLIC	??1sentry@?$basic_ostream@DU?$char_traits@D@std@@@std@@QEAA@XZ ; std::basic_ostream<char,std::char_traits<char> >::sentry::~sentry
PUBLIC	??Bsentry@?$basic_ostream@DU?$char_traits@D@std@@@std@@QEBA_NXZ ; std::basic_ostream<char,std::char_traits<char> >::sentry::operator bool
PUBLIC	??$min@_K@std@@YAAEB_KAEB_K0@Z			; std::min<unsigned __int64>
PUBLIC	??$_Convert_size@_K_K@std@@YA_K_K@Z		; std::_Convert_size<unsigned __int64,unsigned __int64>
PUBLIC	??$?0D@?$allocator@U_Container_proxy@std@@@std@@QEAA@AEBV?$allocator@D@1@@Z ; std::allocator<std::_Container_proxy>::allocator<std::_Container_proxy><char>
PUBLIC	??$?0V?$allocator@D@std@@$$V@?$_Compressed_pair@V?$allocator@D@std@@V?$_String_val@U?$_Simple_types@D@std@@@2@$00@std@@QEAA@U_One_then_variadic_args_t@1@$$QEAV?$allocator@D@1@@Z ; std::_Compressed_pair<std::allocator<char>,std::_String_val<std::_Simple_types<char> >,1>::_Compressed_pair<std::allocator<char>,std::_String_val<std::_Simple_types<char> >,1><std::allocator<char> >
PUBLIC	??$?0$$V@?$_Compressed_pair@V?$allocator@D@std@@V?$_String_val@U?$_Simple_types@D@std@@@2@$00@std@@QEAA@U_Zero_then_variadic_args_t@1@@Z ; std::_Compressed_pair<std::allocator<char>,std::_String_val<std::_Simple_types<char> >,1>::_Compressed_pair<std::allocator<char>,std::_String_val<std::_Simple_types<char> >,1><>
PUBLIC	??$_Construct@$00PEBD@?$basic_string@DU?$char_traits@D@std@@V?$allocator@D@2@@std@@AEAAXQEBD_K@Z ; std::basic_string<char,std::char_traits<char>,std::allocator<char> >::_Construct<1,char const *>
PUBLIC	??$_Construct@$01PEBD@?$basic_string@DU?$char_traits@D@std@@V?$allocator@D@2@@std@@AEAAXQEBD_K@Z ; std::basic_string<char,std::char_traits<char>,std::allocator<char> >::_Construct<2,char const *>
PUBLIC	??$addressof@D@std@@YAPEADAEAD@Z		; std::addressof<char>
PUBLIC	??$_Destroy_range@V?$allocator@Ufile_task@@@std@@@std@@YAXPEAUfile_task@@QEAU1@AEAV?$allocator@Ufile_task@@@0@@Z ; std::_Destroy_range<std::allocator<file_task> >
PUBLIC	??$_Destroy_in_place@PEAD@std@@YAXAEAPEAD@Z	; std::_Destroy_in_place<char *>
PUBLIC	??R<lambda_1>@?1??push_back@?$basic_string@DU?$char_traits@D@std@@V?$allocator@D@2@@std@@QEAAXD@Z@QEBA@QEADQEBD_KD@Z ; `std::basic_string<char,std::char_traits<char>,std::allocator<char> >::push_back'::`2'::<lambda_1>::operator()
PUBLIC	??$_Reallocate_grow_by@V<lambda_1>@?1??push_back@?$basic_string@DU?$char_traits@D@std@@V?$allocator@D@2@@std@@QEAAXD@Z@D@?$basic_string@DU?$char_traits@D@std@@V?$allocator@D@2@@std@@AEAAAEAV01@_KV<lambda_1>@?1??push_back@01@QEAAXD@Z@D@Z ; std::basic_string<char,std::char_traits<char>,std::allocator<char> >::_Reallocate_grow_by<`std::basic_string<char,std::char_traits<char>,std::allocator<char> >::push_back'::`2'::<lambda_1>,char>
PUBLIC	??$_Deallocate@$0BA@$0A@@std@@YAXPEAX_K@Z	; std::_Deallocate<16,0>
PUBLIC	??$construct_at@DAEBD$0A@@std@@YAPEADQEADAEBD@Z	; std::construct_at<char,char const &,0>
PUBLIC	??$addressof@U_Container_proxy@std@@@std@@YAPEAU_Container_proxy@0@AEAU10@@Z ; std::addressof<std::_Container_proxy>
PUBLIC	??$construct_at@U_Container_proxy@std@@PEAU_Container_base12@2@$0A@@std@@YAPEAU_Container_proxy@0@QEAU10@$$QEAPEAU_Container_base12@0@@Z ; std::construct_at<std::_Container_proxy,std::_Container_base12 *,0>
PUBLIC	??R?$default_delete@V_Facet_base@std@@@std@@QEBAXPEAV_Facet_base@1@@Z ; std::default_delete<std::_Facet_base>::operator()
PUBLIC	??1?$unique_ptr@V_Facet_base@std@@U?$default_delete@V_Facet_base@std@@@2@@std@@QEAA@XZ ; std::unique_ptr<std::_Facet_base,std::default_delete<std::_Facet_base> >::~unique_ptr<std::_Facet_base,std::default_delete<std::_Facet_base> >
PUBLIC	?release@?$unique_ptr@V_Facet_base@std@@U?$default_delete@V_Facet_base@std@@@2@@std@@QEAAPEAV_Facet_base@2@XZ ; std::unique_ptr<std::_Facet_base,std::default_delete<std::_Facet_base> >::release
PUBLIC	?_Get_first@?$_Compressed_pair@U?$default_delete@V_Facet_base@std@@@std@@PEAV_Facet_base@2@$00@std@@QEAAAEAU?$default_delete@V_Facet_base@std@@@2@XZ ; std::_Compressed_pair<std::default_delete<std::_Facet_base>,std::_Facet_base *,1>::_Get_first
PUBLIC	?__autoclassinit2@?$unique_ptr@V_Facet_base@std@@U?$default_delete@V_Facet_base@std@@@2@@std@@QEAAX_K@Z ; std::unique_ptr<std::_Facet_base,std::default_delete<std::_Facet_base> >::__autoclassinit2
PUBLIC	??$?0U?$default_delete@V_Facet_base@std@@@std@@$0A@@?$unique_ptr@V_Facet_base@std@@U?$default_delete@V_Facet_base@std@@@2@@std@@QEAA@PEAV_Facet_base@1@@Z ; std::unique_ptr<std::_Facet_base,std::default_delete<std::_Facet_base> >::unique_ptr<std::_Facet_base,std::default_delete<std::_Facet_base> ><std::default_delete<std::_Facet_base>,0>
PUBLIC	??0_Sentry_base@?$basic_istream@DU?$char_traits@D@std@@@std@@QEAA@AEAV12@@Z ; std::basic_istream<char,std::char_traits<char> >::_Sentry_base::_Sentry_base
PUBLIC	??1_Sentry_base@?$basic_istream@DU?$char_traits@D@std@@@std@@QEAA@XZ ; std::basic_istream<char,std::char_traits<char> >::_Sentry_base::~_Sentry_base
PUBLIC	??0sentry@?$basic_istream@DU?$char_traits@D@std@@@std@@QEAA@AEAV12@_N@Z ; std::basic_istream<char,std::char_traits<char> >::sentry::sentry
PUBLIC	??Bsentry@?$basic_istream@DU?$char_traits@D@std@@@std@@QEBA_NXZ ; std::basic_istream<char,std::char_traits<char> >::sentry::operator bool
PUBLIC	??1sentry@?$basic_istream@DU?$char_traits@D@std@@@std@@QEAA@XZ ; std::basic_istream<char,std::char_traits<char> >::sentry::~sentry
PUBLIC	??$?G_JU?$ratio@$00$0DLJKMKAA@@std@@_JU01@@chrono@std@@YA?AV?$duration@_JU?$ratio@$00$0DLJKMKAA@@std@@@01@AEBV201@0@Z ; std::chrono::operator-<__int64,std::ratio<1,1000000000>,__int64,std::ratio<1,1000000000> >
PUBLIC	??$_Deallocate_plain@V?$allocator@U_Container_proxy@std@@@std@@@std@@YAXAEAV?$allocator@U_Container_proxy@std@@@0@QEAU_Container_proxy@0@@Z ; std::_Deallocate_plain<std::allocator<std::_Container_proxy> >
PUBLIC	??$_Unfancy@U_Container_proxy@std@@@std@@YAPEAU_Container_proxy@0@PEAU10@@Z ; std::_Unfancy<std::_Container_proxy>
PUBLIC	??0?$_Container_proxy_ptr12@V?$allocator@U_Container_proxy@std@@@std@@@std@@QEAA@AEAV?$allocator@U_Container_proxy@std@@@1@AEAU_Container_base12@1@@Z ; std::_Container_proxy_ptr12<std::allocator<std::_Container_proxy> >::_Container_proxy_ptr12<std::allocator<std::_Container_proxy> >
PUBLIC	??1?$_Container_proxy_ptr12@V?$allocator@U_Container_proxy@std@@@std@@@std@@QEAA@XZ ; std::_Container_proxy_ptr12<std::allocator<std::_Container_proxy> >::~_Container_proxy_ptr12<std::allocator<std::_Container_proxy> >
PUBLIC	??$_Allocate_for_capacity@$0A@@?$basic_string@DU?$char_traits@D@std@@V?$allocator@D@2@@std@@CAPEADAEAV?$allocator@D@1@AEA_K@Z ; std::basic_string<char,std::char_traits<char>,std::allocator<char> >::_Allocate_for_capacity<0>
PUBLIC	??$_Construct_in_place@PEADAEBQEAD@std@@YAXAEAPEADAEBQEAD@Z ; std::_Construct_in_place<char *,char * const &>
PUBLIC	??$_Unfancy@Ufile_task@@@std@@YAPEAUfile_task@@PEAU1@@Z ; std::_Unfancy<file_task>
PUBLIC	??$destroy@Ufile_task@@@?$_Default_allocator_traits@V?$allocator@Ufile_task@@@std@@@std@@SAXAEAV?$allocator@Ufile_task@@@1@QEAUfile_task@@@Z ; std::_Default_allocator_traits<std::allocator<file_task> >::destroy<file_task>
PUBLIC	??$addressof@PEAD@std@@YAPEAPEADAEAPEAD@Z	; std::addressof<char *>
PUBLIC	??$exchange@PEAV_Facet_base@std@@$$T@std@@YAPEAV_Facet_base@0@AEAPEAV10@$$QEA$$T@Z ; std::exchange<std::_Facet_base *,std::nullptr_t>
PUBLIC	??$_Get_size_of_n@$0BA@@std@@YA_K_K@Z		; std::_Get_size_of_n<16>
PUBLIC	??$_Allocate@$0BA@U_Default_allocate_traits@std@@$0A@@std@@YAPEAX_K@Z ; std::_Allocate<16,std::_Default_allocate_traits,0>
PUBLIC	??$_Get_size_of_n@$00@std@@YA_K_K@Z		; std::_Get_size_of_n<1>
PUBLIC	??$?0AEAPEAV_Facet_base@std@@@?$_Compressed_pair@U?$default_delete@V_Facet_base@std@@@std@@PEAV_Facet_base@2@$00@std@@QEAA@U_Zero_then_variadic_args_t@1@AEAPEAV_Facet_base@1@@Z ; std::_Compressed_pair<std::default_delete<std::_Facet_base>,std::_Facet_base *,1>::_Compressed_pair<std::default_delete<std::_Facet_base>,std::_Facet_base *,1><std::_Facet_base * &>
PUBLIC	?deallocate@?$_Default_allocator_traits@V?$allocator@U_Container_proxy@std@@@std@@@std@@SAXAEAV?$allocator@U_Container_proxy@std@@@2@QEAU_Container_proxy@2@_K@Z ; std::_Default_allocator_traits<std::allocator<std::_Container_proxy> >::deallocate
PUBLIC	??$construct_at@D$$V$0A@@std@@YAPEADQEAD@Z	; std::construct_at<char,0>
PUBLIC	??$construct_at@PEADAEBQEAD$0A@@std@@YAPEAPEADQEAPEADAEBQEAD@Z ; std::construct_at<char *,char * const &,0>
PUBLIC	??$destroy_at@Ufile_task@@@std@@YAXQEAUfile_task@@@Z ; std::destroy_at<file_task>
PUBLIC	??$_Allocate_manually_vector_aligned@U_Default_allocate_traits@std@@@std@@YAPEAX_K@Z ; std::_Allocate_manually_vector_aligned<std::_Default_allocate_traits>
PUBLIC	__JustMyCode_Default
PUBLIC	??_7exception@std@@6B@				; std::exception::`vftable'
PUBLIC	??_C@_0BC@EOODALEL@Unknown?5exception@		; `string'
PUBLIC	??_7bad_alloc@std@@6B@				; std::bad_alloc::`vftable'
PUBLIC	??_7bad_array_new_length@std@@6B@		; std::bad_array_new_length::`vftable'
PUBLIC	??_C@_0BF@KINCDENJ@bad?5array?5new?5length@	; `string'
PUBLIC	_TI3?AVbad_array_new_length@std@@
PUBLIC	_CTA3?AVbad_array_new_length@std@@
PUBLIC	??_R0?AVbad_array_new_length@std@@@8		; std::bad_array_new_length `RTTI Type Descriptor'
PUBLIC	_CT??_R0?AVbad_array_new_length@std@@@8??0bad_array_new_length@std@@QEAA@AEBV01@@Z24
PUBLIC	??_R0?AVbad_alloc@std@@@8			; std::bad_alloc `RTTI Type Descriptor'
PUBLIC	_CT??_R0?AVbad_alloc@std@@@8??0bad_alloc@std@@QEAA@AEBV01@@Z24
PUBLIC	??_R0?AVexception@std@@@8			; std::exception `RTTI Type Descriptor'
PUBLIC	_CT??_R0?AVexception@std@@@8??0exception@std@@QEAA@AEBV01@@Z24
PUBLIC	?__LINE__Var@?0??_Adjust_manually_vector_aligned@std@@YAXAEAPEAXAEA_K@Z@4JA ; `std::_Adjust_manually_vector_aligned'::`1'::__LINE__Var
PUBLIC	??_C@_0BB@FCMFBGOM@invalid?5argument@		; `string'
PUBLIC	??_C@_02DKCKIIND@?$CFs@				; `string'
PUBLIC	??_C@_0GC@MFPFMMDA@C?3?2Program?5Files?2Microsoft?5Visu@ ; `string'
PUBLIC	??_C@_1ME@HBHJKKLJ@?$AAC?$AA?3?$AA?2?$AAP?$AAr?$AAo?$AAg?$AAr?$AAa?$AAm?$AA?5?$AAF?$AAi?$AAl?$AAe@ ; `string'
PUBLIC	??_C@_11LOCGONAA@@				; `string'
PUBLIC	??_C@_1CG@JNLFBNGN@?$AA?$CC?$AAi?$AAn?$AAv?$AAa?$AAl?$AAi?$AAd?$AA?5?$AAa?$AAr?$AAg?$AAu?$AAm?$AAe@ ; `string'
PUBLIC	??_C@_0BA@JFNIOLAK@string?5too?5long@		; `string'
PUBLIC	??_7bad_cast@std@@6B@				; std::bad_cast::`vftable'
PUBLIC	??_C@_08EPJLHIJG@bad?5cast@			; `string'
PUBLIC	_TI2?AVbad_cast@std@@
PUBLIC	_CTA2?AVbad_cast@std@@
PUBLIC	??_R0?AVbad_cast@std@@@8			; std::bad_cast `RTTI Type Descriptor'
PUBLIC	_CT??_R0?AVbad_cast@std@@@8??0bad_cast@std@@QEAA@AEBV01@@Z24
PUBLIC	??_C@_0GC@GNDJPOJH@C?3?2Program?5Files?2Microsoft?5Visu@ ; `string'
PUBLIC	??_C@_00CNPNBAHC@@				; `string'
PUBLIC	?__LINE__Var@?0??_Maklocwcs@std@@YAPEA_WPEB_W@Z@4JA ; `std::_Maklocwcs'::`1'::__LINE__Var
PUBLIC	??_C@_0GC@OOHEPMDG@C?3?2Program?5Files?2Microsoft?5Visu@ ; `string'
PUBLIC	??_C@_0DE@FJKPEFHF@Select?5directory?5with?5?4txt?5pass@ ; `string'
PUBLIC	??_C@_0BE@DHIDOINI@Type?5target?5line?6?9?$DO@	; `string'
PUBLIC	??_C@_0BJ@OOIMIEOI@Type?5count?5of?5threads?6?9?$DO@ ; `string'
PUBLIC	??_C@_09GCOJOCEP@?5threads?6@			; `string'
PUBLIC	??_C@_0BK@BEABPPAF@Brutforcing?5now?4?4?4?5using?5@ ; `string'
PUBLIC	??_C@_04IAOMPPPM@?5mb?6@			; `string'
PUBLIC	??_C@_0BH@CNNLBLI@Total?5directory?5size?3?5@	; `string'
PUBLIC	??_C@_01EEMJAFIK@?6@				; `string'
PUBLIC	??_C@_0BB@OBBOOBAB@Count?5of?5files?3?5@	; `string'
PUBLIC	??_C@_08GDFIMAAO@?5minutes@			; `string'
PUBLIC	??_C@_0BB@LCEDBKEJ@Execution?5time?3?5@		; `string'
PUBLIC	??_C@_0N@LPFKKEBD@?3AM?3am?3PM?3pm@		; `string'
PUBLIC	??_C@_0DG@KGHKKGBC@null?5pointer?5cannot?5point?5to?5a?5@ ; `string'
PUBLIC	??_C@_1HA@FACCKGGH@?$AA?$CC?$AAn?$AAu?$AAl?$AAl?$AA?5?$AAp?$AAo?$AAi?$AAn?$AAt?$AAe?$AAr?$AA?5?$AAc@ ; `string'
PUBLIC	??_C@_0BI@CFPLBAOH@invalid?5string?5position@	; `string'
PUBLIC	?_Psave@?$_Facetptr@V?$ctype@D@std@@@std@@2PEBVfacet@locale@2@EB ; std::_Facetptr<std::ctype<char> >::_Psave
PUBLIC	??_C@_1BK@MHIKGOKE@?$AA?3?$AAA?$AAM?$AA?3?$AAa?$AAm?$AA?3?$AAP?$AAM?$AA?3?$AAp?$AAm@ ; `string'
PUBLIC	??_R4exception@std@@6B@				; std::exception::`RTTI Complete Object Locator'
PUBLIC	??_R3exception@std@@8				; std::exception::`RTTI Class Hierarchy Descriptor'
PUBLIC	??_R2exception@std@@8				; std::exception::`RTTI Base Class Array'
PUBLIC	??_R1A@?0A@EA@exception@std@@8			; std::exception::`RTTI Base Class Descriptor at (0,-1,0,64)'
PUBLIC	??_R4bad_alloc@std@@6B@				; std::bad_alloc::`RTTI Complete Object Locator'
PUBLIC	??_R3bad_alloc@std@@8				; std::bad_alloc::`RTTI Class Hierarchy Descriptor'
PUBLIC	??_R2bad_alloc@std@@8				; std::bad_alloc::`RTTI Base Class Array'
PUBLIC	??_R1A@?0A@EA@bad_alloc@std@@8			; std::bad_alloc::`RTTI Base Class Descriptor at (0,-1,0,64)'
PUBLIC	??_R4bad_array_new_length@std@@6B@		; std::bad_array_new_length::`RTTI Complete Object Locator'
PUBLIC	??_R3bad_array_new_length@std@@8		; std::bad_array_new_length::`RTTI Class Hierarchy Descriptor'
PUBLIC	??_R2bad_array_new_length@std@@8		; std::bad_array_new_length::`RTTI Base Class Array'
PUBLIC	??_R1A@?0A@EA@bad_array_new_length@std@@8	; std::bad_array_new_length::`RTTI Base Class Descriptor at (0,-1,0,64)'
PUBLIC	??_R4bad_cast@std@@6B@				; std::bad_cast::`RTTI Complete Object Locator'
PUBLIC	??_R3bad_cast@std@@8				; std::bad_cast::`RTTI Class Hierarchy Descriptor'
PUBLIC	??_R2bad_cast@std@@8				; std::bad_cast::`RTTI Base Class Array'
PUBLIC	??_R1A@?0A@EA@bad_cast@std@@8			; std::bad_cast::`RTTI Base Class Descriptor at (0,-1,0,64)'
PUBLIC	__real@404e000000000000
PUBLIC	__real@4130000000000000
PUBLIC	__real@41cdcd6500000000
EXTRN	??2@YAPEAX_K@Z:PROC				; operator new
EXTRN	??3@YAXPEAX@Z:PROC				; operator delete
EXTRN	??3@YAXPEAX_K@Z:PROC				; operator delete
EXTRN	__imp__invalid_parameter:PROC
EXTRN	__imp__calloc_dbg:PROC
EXTRN	__imp__CrtDbgReport:PROC
EXTRN	__imp_??0_Lockit@std@@QEAA@H@Z:PROC
EXTRN	__imp_??1_Lockit@std@@QEAA@XZ:PROC
EXTRN	?uncaught_exceptions@std@@YAHXZ:PROC		; std::uncaught_exceptions
EXTRN	__std_exception_copy:PROC
EXTRN	__std_exception_destroy:PROC
EXTRN	??_Eexception@std@@UEAAPEAXI@Z:PROC		; std::exception::`vector deleting destructor'
EXTRN	??_Ebad_alloc@std@@UEAAPEAXI@Z:PROC		; std::bad_alloc::`vector deleting destructor'
EXTRN	??_Ebad_array_new_length@std@@UEAAPEAXI@Z:PROC	; std::bad_array_new_length::`vector deleting destructor'
EXTRN	memcpy:PROC
EXTRN	__imp_wcslen:PROC
EXTRN	strlen:PROC
EXTRN	?_Xbad_alloc@std@@YAXXZ:PROC			; std::_Xbad_alloc
EXTRN	?_Xlength_error@std@@YAXPEBD@Z:PROC		; std::_Xlength_error
EXTRN	?_Xout_of_range@std@@YAXPEBD@Z:PROC		; std::_Xout_of_range
EXTRN	_Query_perf_counter:PROC
EXTRN	_Query_perf_frequency:PROC
EXTRN	??_Ebad_cast@std@@UEAAPEAXI@Z:PROC		; std::bad_cast::`vector deleting destructor'
EXTRN	?_Facet_Register@std@@YAXPEAV_Facet_base@1@@Z:PROC ; std::_Facet_Register
EXTRN	_Mbrtowc:PROC
EXTRN	__imp_?_Getcvt@_Locinfo@std@@QEBA?AU_Cvtvec@@XZ:PROC
EXTRN	__imp_?_Getdays@_Locinfo@std@@QEBAPEBDXZ:PROC
EXTRN	__imp_?_Getmonths@_Locinfo@std@@QEBAPEBDXZ:PROC
EXTRN	__imp_?_W_Getdays@_Locinfo@std@@QEBAPEBGXZ:PROC
EXTRN	__imp_?_W_Getmonths@_Locinfo@std@@QEBAPEBGXZ:PROC
EXTRN	__imp_??Bid@locale@std@@QEAA_KXZ:PROC
EXTRN	?_Getgloballocale@locale@std@@CAPEAV_Locimp@12@XZ:PROC ; std::locale::_Getgloballocale
EXTRN	__imp_?is@?$ctype@D@std@@QEBA_NFD@Z:PROC
EXTRN	__imp_?_Getcat@?$ctype@D@std@@SA_KPEAPEBVfacet@locale@2@PEBV42@@Z:PROC
EXTRN	__imp_?good@ios_base@std@@QEBA_NXZ:PROC
EXTRN	__imp_?flags@ios_base@std@@QEBAHXZ:PROC
EXTRN	__imp_?width@ios_base@std@@QEBA_JXZ:PROC
EXTRN	__imp_?width@ios_base@std@@QEAA_J_J@Z:PROC
EXTRN	__imp_?getloc@ios_base@std@@QEBA?AVlocale@2@XZ:PROC
EXTRN	__imp_?sgetc@?$basic_streambuf@DU?$char_traits@D@std@@@std@@QEAAHXZ:PROC
EXTRN	__imp_?snextc@?$basic_streambuf@DU?$char_traits@D@std@@@std@@QEAAHXZ:PROC
EXTRN	__imp_?sputc@?$basic_streambuf@DU?$char_traits@D@std@@@std@@QEAAHD@Z:PROC
EXTRN	__imp_?sputn@?$basic_streambuf@DU?$char_traits@D@std@@@std@@QEAA_JPEBD_J@Z:PROC
EXTRN	__imp_?setstate@?$basic_ios@DU?$char_traits@D@std@@@std@@QEAAXH_N@Z:PROC
EXTRN	__imp_?tie@?$basic_ios@DU?$char_traits@D@std@@@std@@QEBAPEAV?$basic_ostream@DU?$char_traits@D@std@@@2@XZ:PROC
EXTRN	__imp_?rdbuf@?$basic_ios@DU?$char_traits@D@std@@@std@@QEBAPEAV?$basic_streambuf@DU?$char_traits@D@std@@@2@XZ:PROC
EXTRN	__imp_?fill@?$basic_ios@DU?$char_traits@D@std@@@std@@QEBADXZ:PROC
EXTRN	__imp_?widen@?$basic_ios@DU?$char_traits@D@std@@@std@@QEBADD@Z:PROC
EXTRN	__imp_?_Osfx@?$basic_ostream@DU?$char_traits@D@std@@@std@@QEAAXXZ:PROC
EXTRN	__imp_??6?$basic_ostream@DU?$char_traits@D@std@@@std@@QEAAAEAV01@P6AAEAV01@AEAV01@@Z@Z:PROC
EXTRN	__imp_??6?$basic_ostream@DU?$char_traits@D@std@@@std@@QEAAAEAV01@H@Z:PROC
EXTRN	__imp_??6?$basic_ostream@DU?$char_traits@D@std@@@std@@QEAAAEAV01@N@Z:PROC
EXTRN	__imp_?put@?$basic_ostream@DU?$char_traits@D@std@@@std@@QEAAAEAV12@D@Z:PROC
EXTRN	__imp_?flush@?$basic_ostream@DU?$char_traits@D@std@@@std@@QEAAAEAV12@XZ:PROC
EXTRN	__imp_?_Ipfx@?$basic_istream@DU?$char_traits@D@std@@@std@@QEAA_N_N@Z:PROC
EXTRN	__imp_??5?$basic_istream@DU?$char_traits@D@std@@@std@@QEAAAEAV01@AEAH@Z:PROC
EXTRN	??0filemanip@@QEAA@V?$basic_string@DU?$char_traits@D@std@@V?$allocator@D@2@@std@@0@Z:PROC ; filemanip::filemanip
EXTRN	?dir_traversal@filemanip@@QEAAXXZ:PROC		; filemanip::dir_traversal
EXTRN	?bruteforce@filemanip@@QEAAXH@Z:PROC		; filemanip::bruteforce
EXTRN	?get_total_dir_size@filemanip@@QEBANXZ:PROC	; filemanip::get_total_dir_size
EXTRN	?get_count_of_files@filemanip@@QEBAHXZ:PROC	; filemanip::get_count_of_files
EXTRN	_CxxThrowException:PROC
EXTRN	_RTC_CheckStackVars:PROC
EXTRN	_RTC_InitBase:PROC
EXTRN	_RTC_Shutdown:PROC
EXTRN	__CheckForDebuggerJustMyCode:PROC
EXTRN	__CxxFrameHandler4:PROC
EXTRN	__GSHandlerCheck:PROC
EXTRN	__GSHandlerCheck_EH4:PROC
EXTRN	__security_check_cookie:PROC
EXTRN	??_7type_info@@6B@:BYTE				; type_info::`vftable'
EXTRN	__imp_?id@?$ctype@D@std@@2V0locale@2@A:QWORD
EXTRN	__imp_?cin@std@@3V?$basic_istream@DU?$char_traits@D@std@@@1@A:BYTE
EXTRN	__imp_?cout@std@@3V?$basic_ostream@DU?$char_traits@D@std@@@1@A:BYTE
EXTRN	__security_cookie:QWORD
EXTRN	_fltused:DWORD
;	COMDAT ?_Psave@?$_Facetptr@V?$ctype@D@std@@@std@@2PEBVfacet@locale@2@EB
_BSS	SEGMENT
?_Psave@?$_Facetptr@V?$ctype@D@std@@@std@@2PEBVfacet@locale@2@EB DQ 01H DUP (?) ; std::_Facetptr<std::ctype<char> >::_Psave
_BSS	ENDS
;	COMDAT pdata
pdata	SEGMENT
$pdata$?__empty_global_delete@@YAXPEAX@Z DD imagerel $LN3
	DD	imagerel $LN3+41
	DD	imagerel $unwind$?__empty_global_delete@@YAXPEAX@Z
pdata	ENDS
;	COMDAT pdata
pdata	SEGMENT
$pdata$?__empty_global_delete@@YAXPEAX_K@Z DD imagerel $LN3
	DD	imagerel $LN3+46
	DD	imagerel $unwind$?__empty_global_delete@@YAXPEAX_K@Z
pdata	ENDS
;	COMDAT pdata
pdata	SEGMENT
$pdata$?__empty_global_delete@@YAXPEAXW4align_val_t@std@@@Z DD imagerel $LN3
	DD	imagerel $LN3+46
	DD	imagerel $unwind$?__empty_global_delete@@YAXPEAXW4align_val_t@std@@@Z
pdata	ENDS
;	COMDAT pdata
pdata	SEGMENT
$pdata$?__empty_global_delete@@YAXPEAX_KW4align_val_t@std@@@Z DD imagerel $LN3
	DD	imagerel $LN3+51
	DD	imagerel $unwind$?__empty_global_delete@@YAXPEAX_KW4align_val_t@std@@@Z
pdata	ENDS
;	COMDAT pdata
pdata	SEGMENT
$pdata$??2@YAPEAX_KPEAX@Z DD imagerel $LN3
	DD	imagerel $LN3+53
	DD	imagerel $unwind$??2@YAPEAX_KPEAX@Z
pdata	ENDS
;	COMDAT pdata
pdata	SEGMENT
$pdata$?is_constant_evaluated@std@@YA_NXZ DD imagerel $LN3
	DD	imagerel $LN3+39
	DD	imagerel $unwind$?is_constant_evaluated@std@@YA_NXZ
pdata	ENDS
;	COMDAT pdata
pdata	SEGMENT
$pdata$??0exception@std@@QEAA@QEBDH@Z DD imagerel $LN3
	DD	imagerel $LN3+116
	DD	imagerel $unwind$??0exception@std@@QEAA@QEBDH@Z
pdata	ENDS
;	COMDAT pdata
pdata	SEGMENT
$pdata$??0exception@std@@QEAA@AEBV01@@Z DD imagerel $LN3
	DD	imagerel $LN3+123
	DD	imagerel $unwind$??0exception@std@@QEAA@AEBV01@@Z
pdata	ENDS
;	COMDAT pdata
pdata	SEGMENT
$pdata$??1exception@std@@UEAA@XZ DD imagerel $LN3
	DD	imagerel $LN3+77
	DD	imagerel $unwind$??1exception@std@@UEAA@XZ
pdata	ENDS
;	COMDAT pdata
pdata	SEGMENT
$pdata$?what@exception@std@@UEBAPEBDXZ DD imagerel $LN5
	DD	imagerel $LN5+96
	DD	imagerel $unwind$?what@exception@std@@UEBAPEBDXZ
pdata	ENDS
;	COMDAT pdata
pdata	SEGMENT
$pdata$??_Gexception@std@@UEAAPEAXI@Z DD imagerel $LN4
	DD	imagerel $LN4+82
	DD	imagerel $unwind$??_Gexception@std@@UEAAPEAXI@Z
pdata	ENDS
;	COMDAT pdata
pdata	SEGMENT
$pdata$??0bad_alloc@std@@AEAA@QEBD@Z DD imagerel $LN3
	DD	imagerel $LN3+95
	DD	imagerel $unwind$??0bad_alloc@std@@AEAA@QEBD@Z
pdata	ENDS
;	COMDAT pdata
pdata	SEGMENT
$pdata$??1bad_alloc@std@@UEAA@XZ DD imagerel $LN3
	DD	imagerel $LN3+41
	DD	imagerel $unwind$??1bad_alloc@std@@UEAA@XZ
pdata	ENDS
;	COMDAT pdata
pdata	SEGMENT
$pdata$??0bad_alloc@std@@QEAA@AEBV01@@Z DD imagerel $LN3
	DD	imagerel $LN3+77
	DD	imagerel $unwind$??0bad_alloc@std@@QEAA@AEBV01@@Z
pdata	ENDS
;	COMDAT pdata
pdata	SEGMENT
$pdata$??_Gbad_alloc@std@@UEAAPEAXI@Z DD imagerel $LN4
	DD	imagerel $LN4+82
	DD	imagerel $unwind$??_Gbad_alloc@std@@UEAAPEAXI@Z
pdata	ENDS
;	COMDAT pdata
pdata	SEGMENT
$pdata$??0bad_array_new_length@std@@QEAA@XZ DD imagerel $LN3
	DD	imagerel $LN3+84
	DD	imagerel $unwind$??0bad_array_new_length@std@@QEAA@XZ
pdata	ENDS
;	COMDAT pdata
pdata	SEGMENT
$pdata$??1bad_array_new_length@std@@UEAA@XZ DD imagerel $LN3
	DD	imagerel $LN3+41
	DD	imagerel $unwind$??1bad_array_new_length@std@@UEAA@XZ
pdata	ENDS
;	COMDAT pdata
pdata	SEGMENT
$pdata$??0bad_array_new_length@std@@QEAA@AEBV01@@Z DD imagerel $LN3
	DD	imagerel $LN3+77
	DD	imagerel $unwind$??0bad_array_new_length@std@@QEAA@AEBV01@@Z
pdata	ENDS
;	COMDAT pdata
pdata	SEGMENT
$pdata$??_Gbad_array_new_length@std@@UEAAPEAXI@Z DD imagerel $LN4
	DD	imagerel $LN4+82
	DD	imagerel $unwind$??_Gbad_array_new_length@std@@UEAAPEAXI@Z
pdata	ENDS
;	COMDAT pdata
pdata	SEGMENT
$pdata$?_Throw_bad_array_new_length@std@@YAXXZ DD imagerel $LN3
	DD	imagerel $LN3+68
	DD	imagerel $unwind$?_Throw_bad_array_new_length@std@@YAXXZ
pdata	ENDS
;	COMDAT pdata
pdata	SEGMENT
$pdata$wmemcpy DD imagerel $LN3
	DD	imagerel $LN3+83
	DD	imagerel $unwind$wmemcpy
pdata	ENDS
;	COMDAT pdata
pdata	SEGMENT
$pdata$?max@?$numeric_limits@_J@std@@SA_JXZ DD imagerel $LN3
	DD	imagerel $LN3+47
	DD	imagerel $unwind$?max@?$numeric_limits@_J@std@@SA_JXZ
pdata	ENDS
;	COMDAT pdata
pdata	SEGMENT
$pdata$?_Allocate@_Default_allocate_traits@std@@SAPEAX_K@Z DD imagerel $LN3
	DD	imagerel $LN3+53
	DD	imagerel $unwind$?_Allocate@_Default_allocate_traits@std@@SAPEAX_K@Z
pdata	ENDS
;	COMDAT pdata
pdata	SEGMENT
$pdata$?_Adjust_manually_vector_aligned@std@@YAXAEAPEAXAEA_K@Z DD imagerel $LN21
	DD	imagerel $LN21+453
	DD	imagerel $unwind$?_Adjust_manually_vector_aligned@std@@YAXAEAPEAXAEA_K@Z
pdata	ENDS
;	COMDAT pdata
pdata	SEGMENT
$pdata$??0_Container_proxy@std@@QEAA@PEAU_Container_base12@1@@Z DD imagerel $LN3
	DD	imagerel $LN3+85
	DD	imagerel $unwind$??0_Container_proxy@std@@QEAA@PEAU_Container_base12@1@@Z
pdata	ENDS
;	COMDAT pdata
pdata	SEGMENT
$pdata$??0_Container_base12@std@@QEAA@XZ DD imagerel $LN3
	DD	imagerel $LN3+62
	DD	imagerel $unwind$??0_Container_base12@std@@QEAA@XZ
pdata	ENDS
;	COMDAT pdata
pdata	SEGMENT
$pdata$?_Orphan_all@_Container_base12@std@@QEAAXXZ DD imagerel $LN5
	DD	imagerel $LN5+79
	DD	imagerel $unwind$?_Orphan_all@_Container_base12@std@@QEAAXXZ
pdata	ENDS
;	COMDAT pdata
pdata	SEGMENT
$pdata$?_Orphan_all_unlocked_v3@_Container_base12@std@@AEAAXXZ DD imagerel $LN7
	DD	imagerel $LN7+134
	DD	imagerel $unwind$?_Orphan_all_unlocked_v3@_Container_base12@std@@AEAAXXZ
pdata	ENDS
;	COMDAT pdata
pdata	SEGMENT
$pdata$?_Orphan_all_locked_v3@_Container_base12@std@@AEAAXXZ DD imagerel $LN3
	DD	imagerel $LN3+151
	DD	imagerel $unwind$?_Orphan_all_locked_v3@_Container_base12@std@@AEAAXXZ
pdata	ENDS
;	COMDAT pdata
pdata	SEGMENT
$pdata$??$exchange@PEAU_Iterator_base12@std@@$$T@std@@YAPEAU_Iterator_base12@0@AEAPEAU10@$$QEA$$T@Z DD imagerel $LN3
	DD	imagerel $LN3+84
	DD	imagerel $unwind$??$exchange@PEAU_Iterator_base12@std@@$$T@std@@YAPEAU_Iterator_base12@0@AEAPEAU10@$$QEA$$T@Z
pdata	ENDS
;	COMDAT pdata
pdata	SEGMENT
$pdata$?_Release@_Basic_container_proxy_ptr12@std@@QEAAXXZ DD imagerel $LN3
	DD	imagerel $LN3+55
	DD	imagerel $unwind$?_Release@_Basic_container_proxy_ptr12@std@@QEAAXXZ
pdata	ENDS
;	COMDAT pdata
pdata	SEGMENT
$pdata$??0_Basic_container_proxy_ptr12@std@@IEAA@XZ DD imagerel $LN3
	DD	imagerel $LN3+62
	DD	imagerel $unwind$??0_Basic_container_proxy_ptr12@std@@IEAA@XZ
pdata	ENDS
;	COMDAT pdata
pdata	SEGMENT
$pdata$??$addressof@U_Container_base12@std@@@std@@YAPEAU_Container_base12@0@AEAU10@@Z DD imagerel $LN3
	DD	imagerel $LN3+48
	DD	imagerel $unwind$??$addressof@U_Container_base12@std@@@std@@YAPEAU_Container_base12@0@AEAU10@@Z
pdata	ENDS
;	COMDAT pdata
pdata	SEGMENT
$pdata$??$_Construct_in_place@U_Container_proxy@std@@PEAU_Container_base12@2@@std@@YAXAEAU_Container_proxy@0@$$QEAPEAU_Container_base12@0@@Z DD imagerel $LN5
	DD	imagerel $LN5+141
	DD	imagerel $unwind$??$_Construct_in_place@U_Container_proxy@std@@PEAU_Container_base12@2@@std@@YAXAEAU_Container_proxy@0@$$QEAPEAU_Container_base12@0@@Z
pdata	ENDS
;	COMDAT pdata
pdata	SEGMENT
$pdata$?copy@?$_Char_traits@DH@std@@SAPEADQEADQEBD_K@Z DD imagerel $LN7
	DD	imagerel $LN7+180
	DD	imagerel $unwind$?copy@?$_Char_traits@DH@std@@SAPEADQEADQEBD_K@Z
pdata	ENDS
;	COMDAT pdata
pdata	SEGMENT
$pdata$?assign@?$_Char_traits@DH@std@@SAXAEADAEBD@Z DD imagerel $LN5
	DD	imagerel $LN5+106
	DD	imagerel $unwind$?assign@?$_Char_traits@DH@std@@SAXAEADAEBD@Z
pdata	ENDS
;	COMDAT pdata
pdata	SEGMENT
$pdata$?length@?$_Narrow_char_traits@DH@std@@SA_KQEBD@Z DD imagerel $LN4
	DD	imagerel $LN4+100
	DD	imagerel $unwind$?length@?$_Narrow_char_traits@DH@std@@SA_KQEBD@Z
pdata	ENDS
;	COMDAT pdata
pdata	SEGMENT
$pdata$?assign@?$_Narrow_char_traits@DH@std@@SAXAEADAEBD@Z DD imagerel $LN4
	DD	imagerel $LN4+98
	DD	imagerel $unwind$?assign@?$_Narrow_char_traits@DH@std@@SAXAEADAEBD@Z
pdata	ENDS
;	COMDAT pdata
pdata	SEGMENT
$pdata$?to_char_type@?$_Narrow_char_traits@DH@std@@SADH@Z DD imagerel $LN3
	DD	imagerel $LN3+47
	DD	imagerel $unwind$?to_char_type@?$_Narrow_char_traits@DH@std@@SADH@Z
pdata	ENDS
;	COMDAT pdata
pdata	SEGMENT
$pdata$?eq_int_type@?$_Narrow_char_traits@DH@std@@SA_NHH@Z DD imagerel $LN5
	DD	imagerel $LN5+87
	DD	imagerel $unwind$?eq_int_type@?$_Narrow_char_traits@DH@std@@SA_NHH@Z
pdata	ENDS
;	COMDAT pdata
pdata	SEGMENT
$pdata$?eof@?$_Narrow_char_traits@DH@std@@SAHXZ DD imagerel $LN3
	DD	imagerel $LN3+42
	DD	imagerel $unwind$?eof@?$_Narrow_char_traits@DH@std@@SAHXZ
pdata	ENDS
;	COMDAT pdata
pdata	SEGMENT
$pdata$?_Xlen_string@std@@YAXXZ DD imagerel $LN3
	DD	imagerel $LN3+49
	DD	imagerel $unwind$?_Xlen_string@std@@YAXXZ
pdata	ENDS
;	COMDAT pdata
pdata	SEGMENT
$pdata$??0?$allocator@D@std@@QEAA@XZ DD imagerel $LN3
	DD	imagerel $LN3+48
	DD	imagerel $unwind$??0?$allocator@D@std@@QEAA@XZ
pdata	ENDS
;	COMDAT pdata
pdata	SEGMENT
$pdata$?deallocate@?$allocator@D@std@@QEAAXQEAD_K@Z DD imagerel $LN13
	DD	imagerel $LN13+209
	DD	imagerel $unwind$?deallocate@?$allocator@D@std@@QEAAXQEAD_K@Z
pdata	ENDS
;	COMDAT pdata
pdata	SEGMENT
$pdata$?allocate@?$allocator@D@std@@QEAAPEAD_K@Z DD imagerel $LN3
	DD	imagerel $LN3+66
	DD	imagerel $unwind$?allocate@?$allocator@D@std@@QEAAPEAD_K@Z
pdata	ENDS
;	COMDAT pdata
pdata	SEGMENT
$pdata$?max_size@?$_Default_allocator_traits@V?$allocator@D@std@@@std@@SA_KAEBV?$allocator@D@2@@Z DD imagerel $LN3
	DD	imagerel $LN3+48
	DD	imagerel $unwind$?max_size@?$_Default_allocator_traits@V?$allocator@D@std@@@std@@SA_KAEBV?$allocator@D@2@@Z
pdata	ENDS
;	COMDAT pdata
pdata	SEGMENT
$pdata$?select_on_container_copy_construction@?$_Default_allocator_traits@V?$allocator@D@std@@@std@@SA?AV?$allocator@D@2@AEBV32@@Z DD imagerel $LN3
	DD	imagerel $LN3+53
	DD	imagerel $unwind$?select_on_container_copy_construction@?$_Default_allocator_traits@V?$allocator@D@std@@@std@@SA?AV?$allocator@D@2@AEBV32@@Z
pdata	ENDS
;	COMDAT pdata
pdata	SEGMENT
$pdata$??0?$_String_val@U?$_Simple_types@D@std@@@std@@QEAA@XZ DD imagerel $LN3
	DD	imagerel $LN3+109
	DD	imagerel $unwind$??0?$_String_val@U?$_Simple_types@D@std@@@std@@QEAA@XZ
pdata	ENDS
;	COMDAT pdata
pdata	SEGMENT
$pdata$?_Myptr@?$_String_val@U?$_Simple_types@D@std@@@std@@QEAAPEADXZ DD imagerel $LN4
	DD	imagerel $LN4+99
	DD	imagerel $unwind$?_Myptr@?$_String_val@U?$_Simple_types@D@std@@@std@@QEAAPEADXZ
pdata	ENDS
;	COMDAT pdata
pdata	SEGMENT
$pdata$?_Myptr@?$_String_val@U?$_Simple_types@D@std@@@std@@QEBAPEBDXZ DD imagerel $LN4
	DD	imagerel $LN4+99
	DD	imagerel $unwind$?_Myptr@?$_String_val@U?$_Simple_types@D@std@@@std@@QEBAPEBDXZ
pdata	ENDS
;	COMDAT pdata
pdata	SEGMENT
$pdata$?_Large_mode_engaged@?$_String_val@U?$_Simple_types@D@std@@@std@@QEBA_NXZ DD imagerel $LN5
	DD	imagerel $LN5+84
	DD	imagerel $unwind$?_Large_mode_engaged@?$_String_val@U?$_Simple_types@D@std@@@std@@QEBA_NXZ
pdata	ENDS
;	COMDAT pdata
pdata	SEGMENT
$pdata$?_Activate_SSO_buffer@?$_String_val@U?$_Simple_types@D@std@@@std@@QEAAXXZ DD imagerel $LN7
	DD	imagerel $LN7+104
	DD	imagerel $unwind$?_Activate_SSO_buffer@?$_String_val@U?$_Simple_types@D@std@@@std@@QEAAXXZ
pdata	ENDS
;	COMDAT pdata
pdata	SEGMENT
$pdata$?_Check_offset@?$_String_val@U?$_Simple_types@D@std@@@std@@QEBAX_K@Z DD imagerel $LN4
	DD	imagerel $LN4+71
	DD	imagerel $unwind$?_Check_offset@?$_String_val@U?$_Simple_types@D@std@@@std@@QEBAX_K@Z
pdata	ENDS
;	COMDAT pdata
pdata	SEGMENT
$pdata$?_Xran@?$_String_val@U?$_Simple_types@D@std@@@std@@SAXXZ DD imagerel $LN3
	DD	imagerel $LN3+49
	DD	imagerel $unwind$?_Xran@?$_String_val@U?$_Simple_types@D@std@@@std@@SAXXZ
pdata	ENDS
;	COMDAT pdata
pdata	SEGMENT
$pdata$??0_Bxty@?$_String_val@U?$_Simple_types@D@std@@@std@@QEAA@XZ DD imagerel $LN3
	DD	imagerel $LN3+71
	DD	imagerel $unwind$??0_Bxty@?$_String_val@U?$_Simple_types@D@std@@@std@@QEAA@XZ
pdata	ENDS
;	COMDAT pdata
pdata	SEGMENT
$pdata$??1_Bxty@?$_String_val@U?$_Simple_types@D@std@@@std@@QEAA@XZ DD imagerel $LN3
	DD	imagerel $LN3+41
	DD	imagerel $unwind$??1_Bxty@?$_String_val@U?$_Simple_types@D@std@@@std@@QEAA@XZ
pdata	ENDS
;	COMDAT pdata
pdata	SEGMENT
$pdata$??1?$_String_val@U?$_Simple_types@D@std@@@std@@QEAA@XZ DD imagerel $LN3
	DD	imagerel $LN3+48
	DD	imagerel $unwind$??1?$_String_val@U?$_Simple_types@D@std@@@std@@QEAA@XZ
pdata	ENDS
;	COMDAT pdata
pdata	SEGMENT
$pdata$??0?$basic_string@DU?$char_traits@D@std@@V?$allocator@D@2@@std@@QEAA@AEBV01@@Z DD imagerel $LN4
	DD	imagerel $LN4+208
	DD	imagerel $unwind$??0?$basic_string@DU?$char_traits@D@std@@V?$allocator@D@2@@std@@QEAA@AEBV01@@Z
pdata	ENDS
;	COMDAT pdata
pdata	SEGMENT
$pdata$?dtor$0@?0???0?$basic_string@DU?$char_traits@D@std@@V?$allocator@D@2@@std@@QEAA@AEBV01@@Z@4HA DD imagerel ?dtor$0@?0???0?$basic_string@DU?$char_traits@D@std@@V?$allocator@D@2@@std@@QEAA@AEBV01@@Z@4HA
	DD	imagerel ?dtor$0@?0???0?$basic_string@DU?$char_traits@D@std@@V?$allocator@D@2@@std@@QEAA@AEBV01@@Z@4HA+39
	DD	imagerel $unwind$?dtor$0@?0???0?$basic_string@DU?$char_traits@D@std@@V?$allocator@D@2@@std@@QEAA@AEBV01@@Z@4HA
pdata	ENDS
;	COMDAT pdata
pdata	SEGMENT
$pdata$??0?$basic_string@DU?$char_traits@D@std@@V?$allocator@D@2@@std@@QEAA@QEBD@Z DD imagerel $LN4
	DD	imagerel $LN4+130
	DD	imagerel $unwind$??0?$basic_string@DU?$char_traits@D@std@@V?$allocator@D@2@@std@@QEAA@QEBD@Z
pdata	ENDS
;	COMDAT pdata
pdata	SEGMENT
$pdata$?dtor$0@?0???0?$basic_string@DU?$char_traits@D@std@@V?$allocator@D@2@@std@@QEAA@QEBD@Z@4HA DD imagerel ?dtor$0@?0???0?$basic_string@DU?$char_traits@D@std@@V?$allocator@D@2@@std@@QEAA@QEBD@Z@4HA
	DD	imagerel ?dtor$0@?0???0?$basic_string@DU?$char_traits@D@std@@V?$allocator@D@2@@std@@QEAA@QEBD@Z@4HA+39
	DD	imagerel $unwind$?dtor$0@?0???0?$basic_string@DU?$char_traits@D@std@@V?$allocator@D@2@@std@@QEAA@QEBD@Z@4HA
pdata	ENDS
;	COMDAT pdata
pdata	SEGMENT
$pdata$?_Deallocate_for_capacity@?$basic_string@DU?$char_traits@D@std@@V?$allocator@D@2@@std@@CAXAEAV?$allocator@D@2@QEAD_K@Z DD imagerel $LN3
	DD	imagerel $LN3+84
	DD	imagerel $unwind$?_Deallocate_for_capacity@?$basic_string@DU?$char_traits@D@std@@V?$allocator@D@2@@std@@CAXAEAV?$allocator@D@2@QEAD_K@Z
pdata	ENDS
;	COMDAT pdata
pdata	SEGMENT
$pdata$??1?$basic_string@DU?$char_traits@D@std@@V?$allocator@D@2@@std@@QEAA@XZ DD imagerel $LN3
	DD	imagerel $LN3+214
	DD	imagerel $unwind$??1?$basic_string@DU?$char_traits@D@std@@V?$allocator@D@2@@std@@QEAA@XZ
pdata	ENDS
;	COMDAT pdata
pdata	SEGMENT
$pdata$?erase@?$basic_string@DU?$char_traits@D@std@@V?$allocator@D@2@@std@@QEAAAEAV12@_K@Z DD imagerel $LN3
	DD	imagerel $LN3+105
	DD	imagerel $unwind$?erase@?$basic_string@DU?$char_traits@D@std@@V?$allocator@D@2@@std@@QEAAAEAV12@_K@Z
pdata	ENDS
;	COMDAT pdata
pdata	SEGMENT
$pdata$?push_back@?$basic_string@DU?$char_traits@D@std@@V?$allocator@D@2@@std@@QEAAXD@Z DD imagerel $LN4
	DD	imagerel $LN4+213
	DD	imagerel $unwind$?push_back@?$basic_string@DU?$char_traits@D@std@@V?$allocator@D@2@@std@@QEAAXD@Z
pdata	ENDS
;	COMDAT pdata
pdata	SEGMENT
$pdata$?max_size@?$basic_string@DU?$char_traits@D@std@@V?$allocator@D@2@@std@@QEBA_KXZ DD imagerel $LN3
	DD	imagerel $LN3+226
	DD	imagerel $unwind$?max_size@?$basic_string@DU?$char_traits@D@std@@V?$allocator@D@2@@std@@QEBA_KXZ
pdata	ENDS
;	COMDAT pdata
pdata	SEGMENT
$pdata$?_Calculate_growth@?$basic_string@DU?$char_traits@D@std@@V?$allocator@D@2@@std@@CA_K_K00@Z DD imagerel $LN5
	DD	imagerel $LN5+271
	DD	imagerel $unwind$?_Calculate_growth@?$basic_string@DU?$char_traits@D@std@@V?$allocator@D@2@@std@@CA_K_K00@Z
pdata	ENDS
;	COMDAT pdata
pdata	SEGMENT
$pdata$?_Calculate_growth@?$basic_string@DU?$char_traits@D@std@@V?$allocator@D@2@@std@@AEBA_K_K@Z DD imagerel $LN3
	DD	imagerel $LN3+109
	DD	imagerel $unwind$?_Calculate_growth@?$basic_string@DU?$char_traits@D@std@@V?$allocator@D@2@@std@@AEBA_K_K@Z
pdata	ENDS
;	COMDAT pdata
pdata	SEGMENT
$pdata$?_Eos@?$basic_string@DU?$char_traits@D@std@@V?$allocator@D@2@@std@@AEAAX_K@Z DD imagerel $LN3
	DD	imagerel $LN3+142
	DD	imagerel $unwind$?_Eos@?$basic_string@DU?$char_traits@D@std@@V?$allocator@D@2@@std@@AEAAX_K@Z
pdata	ENDS
;	COMDAT pdata
pdata	SEGMENT
$pdata$?_Tidy_deallocate@?$basic_string@DU?$char_traits@D@std@@V?$allocator@D@2@@std@@AEAAXXZ DD imagerel $LN4
	DD	imagerel $LN4+215
	DD	imagerel $unwind$?_Tidy_deallocate@?$basic_string@DU?$char_traits@D@std@@V?$allocator@D@2@@std@@AEAAXXZ
pdata	ENDS
;	COMDAT pdata
pdata	SEGMENT
$pdata$?_Getal@?$basic_string@DU?$char_traits@D@std@@V?$allocator@D@2@@std@@AEAAAEAV?$allocator@D@2@XZ DD imagerel $LN3
	DD	imagerel $LN3+56
	DD	imagerel $unwind$?_Getal@?$basic_string@DU?$char_traits@D@std@@V?$allocator@D@2@@std@@AEAAAEAV?$allocator@D@2@XZ
pdata	ENDS
;	COMDAT pdata
pdata	SEGMENT
$pdata$?_Getal@?$basic_string@DU?$char_traits@D@std@@V?$allocator@D@2@@std@@AEBAAEBV?$allocator@D@2@XZ DD imagerel $LN3
	DD	imagerel $LN3+56
	DD	imagerel $unwind$?_Getal@?$basic_string@DU?$char_traits@D@std@@V?$allocator@D@2@@std@@AEBAAEBV?$allocator@D@2@XZ
pdata	ENDS
;	COMDAT pdata
pdata	SEGMENT
$pdata$?_Get_first@?$_Compressed_pair@V?$allocator@D@std@@V?$_String_val@U?$_Simple_types@D@std@@@2@$00@std@@QEAAAEAV?$allocator@D@2@XZ DD imagerel $LN3
	DD	imagerel $LN3+48
	DD	imagerel $unwind$?_Get_first@?$_Compressed_pair@V?$allocator@D@std@@V?$_String_val@U?$_Simple_types@D@std@@@2@$00@std@@QEAAAEAV?$allocator@D@2@XZ
pdata	ENDS
;	COMDAT pdata
pdata	SEGMENT
$pdata$?_Get_first@?$_Compressed_pair@V?$allocator@D@std@@V?$_String_val@U?$_Simple_types@D@std@@@2@$00@std@@QEBAAEBV?$allocator@D@2@XZ DD imagerel $LN3
	DD	imagerel $LN3+48
	DD	imagerel $unwind$?_Get_first@?$_Compressed_pair@V?$allocator@D@std@@V?$_String_val@U?$_Simple_types@D@std@@@2@$00@std@@QEBAAEBV?$allocator@D@2@XZ
pdata	ENDS
;	COMDAT pdata
pdata	SEGMENT
$pdata$??1?$_Compressed_pair@V?$allocator@D@std@@V?$_String_val@U?$_Simple_types@D@std@@@2@$00@std@@QEAA@XZ DD imagerel $LN3
	DD	imagerel $LN3+44
	DD	imagerel $unwind$??1?$_Compressed_pair@V?$allocator@D@std@@V?$_String_val@U?$_Simple_types@D@std@@@2@$00@std@@QEAA@XZ
pdata	ENDS
;	COMDAT pdata
pdata	SEGMENT
$pdata$??0bad_cast@std@@QEAA@XZ DD imagerel $LN3
	DD	imagerel $LN3+90
	DD	imagerel $unwind$??0bad_cast@std@@QEAA@XZ
pdata	ENDS
;	COMDAT pdata
pdata	SEGMENT
$pdata$??1bad_cast@std@@UEAA@XZ DD imagerel $LN3
	DD	imagerel $LN3+41
	DD	imagerel $unwind$??1bad_cast@std@@UEAA@XZ
pdata	ENDS
;	COMDAT pdata
pdata	SEGMENT
$pdata$??0bad_cast@std@@QEAA@AEBV01@@Z DD imagerel $LN3
	DD	imagerel $LN3+77
	DD	imagerel $unwind$??0bad_cast@std@@QEAA@AEBV01@@Z
pdata	ENDS
;	COMDAT pdata
pdata	SEGMENT
$pdata$??_Gbad_cast@std@@UEAAPEAXI@Z DD imagerel $LN4
	DD	imagerel $LN4+82
	DD	imagerel $unwind$??_Gbad_cast@std@@UEAAPEAXI@Z
pdata	ENDS
;	COMDAT pdata
pdata	SEGMENT
$pdata$?_Throw_bad_cast@std@@YAXXZ DD imagerel $LN3
	DD	imagerel $LN3+68
	DD	imagerel $unwind$?_Throw_bad_cast@std@@YAXXZ
pdata	ENDS
;	COMDAT pdata
pdata	SEGMENT
$pdata$?_Decref@_Ref_count_base@std@@QEAAXXZ DD imagerel $LN4
	DD	imagerel $LN4+100
	DD	imagerel $unwind$?_Decref@_Ref_count_base@std@@QEAAXXZ
pdata	ENDS
;	COMDAT pdata
pdata	SEGMENT
$pdata$?_Decwref@_Ref_count_base@std@@QEAAXXZ DD imagerel $LN4
	DD	imagerel $LN4+89
	DD	imagerel $unwind$?_Decwref@_Ref_count_base@std@@QEAAXXZ
pdata	ENDS
;	COMDAT pdata
pdata	SEGMENT
$pdata$??1locale@std@@QEAA@XZ DD imagerel $LN6
	DD	imagerel $LN6+158
	DD	imagerel $unwind$??1locale@std@@QEAA@XZ
pdata	ENDS
;	COMDAT pdata
pdata	SEGMENT
$pdata$?_Getfacet@locale@std@@QEBAPEBVfacet@12@_K@Z DD imagerel $LN8
	DD	imagerel $LN8+208
	DD	imagerel $unwind$?_Getfacet@locale@std@@QEBAPEBVfacet@12@_K@Z
pdata	ENDS
;	COMDAT pdata
pdata	SEGMENT
$pdata$??$_Maklocstr@_W@std@@YAPEA_WPEBDPEA_WAEBU_Cvtvec@@@Z DD imagerel $LN12
	DD	imagerel $LN12+586
	DD	imagerel $unwind$??$_Maklocstr@_W@std@@YAPEA_WPEBDPEA_WAEBU_Cvtvec@@@Z
pdata	ENDS
;	COMDAT pdata
pdata	SEGMENT
$pdata$??$use_facet@V?$ctype@D@std@@@std@@YAAEBV?$ctype@D@0@AEBVlocale@0@@Z DD imagerel $LN11
	DD	imagerel $LN11+395
	DD	imagerel $unwind$??$use_facet@V?$ctype@D@std@@@std@@YAAEBV?$ctype@D@0@AEBVlocale@0@@Z
pdata	ENDS
;	COMDAT pdata
pdata	SEGMENT
$pdata$?dtor$0@?0???$use_facet@V?$ctype@D@std@@@std@@YAAEBV?$ctype@D@0@AEBVlocale@0@@Z@4HA DD imagerel ?dtor$0@?0???$use_facet@V?$ctype@D@std@@@std@@YAAEBV?$ctype@D@0@AEBVlocale@0@@Z@4HA
	DD	imagerel ?dtor$0@?0???$use_facet@V?$ctype@D@std@@@std@@YAAEBV?$ctype@D@0@AEBVlocale@0@@Z@4HA+37
	DD	imagerel $unwind$?dtor$0@?0???$use_facet@V?$ctype@D@std@@@std@@YAAEBV?$ctype@D@0@AEBVlocale@0@@Z@4HA
pdata	ENDS
;	COMDAT pdata
pdata	SEGMENT
$pdata$?dtor$1@?0???$use_facet@V?$ctype@D@std@@@std@@YAAEBV?$ctype@D@0@AEBVlocale@0@@Z@4HA DD imagerel ?dtor$1@?0???$use_facet@V?$ctype@D@std@@@std@@YAAEBV?$ctype@D@0@AEBVlocale@0@@Z@4HA
	DD	imagerel ?dtor$1@?0???$use_facet@V?$ctype@D@std@@@std@@YAAEBV?$ctype@D@0@AEBVlocale@0@@Z@4HA+39
	DD	imagerel $unwind$?dtor$1@?0???$use_facet@V?$ctype@D@std@@@std@@YAAEBV?$ctype@D@0@AEBVlocale@0@@Z@4HA
pdata	ENDS
;	COMDAT pdata
pdata	SEGMENT
$pdata$?_Maklocwcs@std@@YAPEA_WPEB_W@Z DD imagerel $LN4
	DD	imagerel $LN4+142
	DD	imagerel $unwind$?_Maklocwcs@std@@YAPEA_WPEB_W@Z
pdata	ENDS
;	COMDAT pdata
pdata	SEGMENT
$pdata$??$_Maklocstr@D@std@@YAPEADPEBDPEADAEBU_Cvtvec@@@Z DD imagerel $LN7
	DD	imagerel $LN7+200
	DD	imagerel $unwind$??$_Maklocstr@D@std@@YAPEADPEBDPEADAEBU_Cvtvec@@@Z
pdata	ENDS
;	COMDAT pdata
pdata	SEGMENT
$pdata$?now@steady_clock@chrono@std@@SA?AV?$time_point@Usteady_clock@chrono@std@@V?$duration@_JU?$ratio@$00$0DLJKMKAA@@std@@@23@@23@XZ DD imagerel $LN7
	DD	imagerel $LN7+439
	DD	imagerel $unwind$?now@steady_clock@chrono@std@@SA?AV?$time_point@Usteady_clock@chrono@std@@V?$duration@_JU?$ratio@$00$0DLJKMKAA@@std@@@23@@23@XZ
pdata	ENDS
;	COMDAT pdata
pdata	SEGMENT
$pdata$?count@?$duration@_JU?$ratio@$00$0DLJKMKAA@@std@@@chrono@std@@QEBA_JXZ DD imagerel $LN3
	DD	imagerel $LN3+51
	DD	imagerel $unwind$?count@?$duration@_JU?$ratio@$00$0DLJKMKAA@@std@@@chrono@std@@QEBA_JXZ
pdata	ENDS
;	COMDAT pdata
pdata	SEGMENT
$pdata$??0?$time_point@Usteady_clock@chrono@std@@V?$duration@_JU?$ratio@$00$0DLJKMKAA@@std@@@23@@chrono@std@@QEAA@AEBV?$duration@_JU?$ratio@$00$0DLJKMKAA@@std@@@12@@Z DD imagerel $LN3
	DD	imagerel $LN3+73
	DD	imagerel $unwind$??0?$time_point@Usteady_clock@chrono@std@@V?$duration@_JU?$ratio@$00$0DLJKMKAA@@std@@@23@@chrono@std@@QEAA@AEBV?$duration@_JU?$ratio@$00$0DLJKMKAA@@std@@@12@@Z
pdata	ENDS
;	COMDAT pdata
pdata	SEGMENT
$pdata$?time_since_epoch@?$time_point@Usteady_clock@chrono@std@@V?$duration@_JU?$ratio@$00$0DLJKMKAA@@std@@@23@@chrono@std@@QEBA?AV?$duration@_JU?$ratio@$00$0DLJKMKAA@@std@@@23@XZ DD imagerel $LN3
	DD	imagerel $LN3+73
	DD	imagerel $unwind$?time_since_epoch@?$time_point@Usteady_clock@chrono@std@@V?$duration@_JU?$ratio@$00$0DLJKMKAA@@std@@@23@@chrono@std@@QEBA?AV?$duration@_JU?$ratio@$00$0DLJKMKAA@@std@@@23@XZ
pdata	ENDS
;	COMDAT pdata
pdata	SEGMENT
$pdata$??$?0_J$0A@@?$duration@_JU?$ratio@$00$0DLJKMKAA@@std@@@chrono@std@@QEAA@AEB_J@Z DD imagerel $LN3
	DD	imagerel $LN3+73
	DD	imagerel $unwind$??$?0_J$0A@@?$duration@_JU?$ratio@$00$0DLJKMKAA@@std@@@chrono@std@@QEAA@AEB_J@Z
pdata	ENDS
;	COMDAT pdata
pdata	SEGMENT
$pdata$?count@?$duration@NU?$ratio@$00$00@std@@@chrono@std@@QEBANXZ DD imagerel $LN3
	DD	imagerel $LN3+52
	DD	imagerel $unwind$?count@?$duration@NU?$ratio@$00$00@std@@@chrono@std@@QEBANXZ
pdata	ENDS
;	COMDAT pdata
pdata	SEGMENT
$pdata$??$?0_JU?$ratio@$00$0DLJKMKAA@@std@@$0A@@?$duration@NU?$ratio@$00$00@std@@@chrono@std@@QEAA@AEBV?$duration@_JU?$ratio@$00$0DLJKMKAA@@std@@@12@@Z DD imagerel $LN3
	DD	imagerel $LN3+91
	DD	imagerel $unwind$??$?0_JU?$ratio@$00$0DLJKMKAA@@std@@$0A@@?$duration@NU?$ratio@$00$00@std@@@chrono@std@@QEAA@AEBV?$duration@_JU?$ratio@$00$0DLJKMKAA@@std@@@12@@Z
pdata	ENDS
;	COMDAT pdata
pdata	SEGMENT
$pdata$??$duration_cast@V?$duration@NU?$ratio@$00$00@std@@@chrono@std@@_JU?$ratio@$00$0DLJKMKAA@@3@$0A@@chrono@std@@YA?AV?$duration@NU?$ratio@$00$00@std@@@01@AEBV?$duration@_JU?$ratio@$00$0DLJKMKAA@@std@@@01@@Z DD imagerel $LN3
	DD	imagerel $LN3+113
	DD	imagerel $unwind$??$duration_cast@V?$duration@NU?$ratio@$00$00@std@@@chrono@std@@_JU?$ratio@$00$0DLJKMKAA@@3@$0A@@chrono@std@@YA?AV?$duration@NU?$ratio@$00$00@std@@@01@AEBV?$duration@_JU?$ratio@$00$0DLJKMKAA@@std@@@01@@Z
pdata	ENDS
;	COMDAT pdata
pdata	SEGMENT
$pdata$??$?0N$0A@@?$duration@NU?$ratio@$00$00@std@@@chrono@std@@QEAA@AEBN@Z DD imagerel $LN3
	DD	imagerel $LN3+75
	DD	imagerel $unwind$??$?0N$0A@@?$duration@NU?$ratio@$00$00@std@@@chrono@std@@QEAA@AEBN@Z
pdata	ENDS
;	COMDAT pdata
pdata	SEGMENT
$pdata$??$_Getvals@_W@?$time_get@DV?$istreambuf_iterator@DU?$char_traits@D@std@@@std@@@std@@IEAAX_WAEBV_Locinfo@1@@Z DD imagerel $LN5
	DD	imagerel $LN5+356
	DD	imagerel $unwind$??$_Getvals@_W@?$time_get@DV?$istreambuf_iterator@DU?$char_traits@D@std@@@std@@@std@@IEAAX_WAEBV_Locinfo@1@@Z
pdata	ENDS
;	COMDAT pdata
pdata	SEGMENT
$pdata$??$_Getvals@_W@?$time_get@_WV?$istreambuf_iterator@_WU?$char_traits@_W@std@@@std@@@std@@IEAAX_WAEBV_Locinfo@1@@Z DD imagerel $LN5
	DD	imagerel $LN5+356
	DD	imagerel $unwind$??$_Getvals@_W@?$time_get@_WV?$istreambuf_iterator@_WU?$char_traits@_W@std@@@std@@@std@@IEAAX_WAEBV_Locinfo@1@@Z
pdata	ENDS
;	COMDAT pdata
pdata	SEGMENT
$pdata$??$max@_K@std@@YAAEB_KAEB_K0@Z DD imagerel $LN5
	DD	imagerel $LN5+119
	DD	imagerel $unwind$??$max@_K@std@@YAAEB_KAEB_K0@Z
pdata	ENDS
;	COMDAT pdata
pdata	SEGMENT
$pdata$?_Decref@?$_Ptr_base@V?$basic_ifstream@DU?$char_traits@D@std@@@std@@@std@@IEAAXXZ DD imagerel $LN4
	DD	imagerel $LN4+71
	DD	imagerel $unwind$?_Decref@?$_Ptr_base@V?$basic_ifstream@DU?$char_traits@D@std@@@std@@@std@@IEAAXXZ
pdata	ENDS
;	COMDAT pdata
pdata	SEGMENT
$pdata$??1?$shared_ptr@V?$basic_ifstream@DU?$char_traits@D@std@@@std@@@std@@QEAA@XZ DD imagerel $LN3
	DD	imagerel $LN3+53
	DD	imagerel $unwind$??1?$shared_ptr@V?$basic_ifstream@DU?$char_traits@D@std@@@std@@@std@@QEAA@XZ
pdata	ENDS
;	COMDAT pdata
pdata	SEGMENT
$pdata$??1file_task@@QEAA@XZ DD imagerel $LN3
	DD	imagerel $LN3+44
	DD	imagerel $unwind$??1file_task@@QEAA@XZ
pdata	ENDS
;	COMDAT pdata
pdata	SEGMENT
$pdata$??_Gfile_task@@QEAAPEAXI@Z DD imagerel $LN4
	DD	imagerel $LN4+82
	DD	imagerel $unwind$??_Gfile_task@@QEAAPEAXI@Z
pdata	ENDS
;	COMDAT pdata
pdata	SEGMENT
$pdata$?deallocate@?$allocator@Ufile_task@@@std@@QEAAXQEAUfile_task@@_K@Z DD imagerel $LN13
	DD	imagerel $LN13+213
	DD	imagerel $unwind$?deallocate@?$allocator@Ufile_task@@@std@@QEAAXQEAUfile_task@@_K@Z
pdata	ENDS
;	COMDAT pdata
pdata	SEGMENT
$pdata$??1?$vector@Ufile_task@@V?$allocator@Ufile_task@@@std@@@std@@QEAA@XZ DD imagerel $LN3
	DD	imagerel $LN3+203
	DD	imagerel $unwind$??1?$vector@Ufile_task@@V?$allocator@Ufile_task@@@std@@@std@@QEAA@XZ
pdata	ENDS
;	COMDAT pdata
pdata	SEGMENT
$pdata$?_Tidy@?$vector@Ufile_task@@V?$allocator@Ufile_task@@@std@@@std@@AEAAXXZ DD imagerel $LN4
	DD	imagerel $LN4+228
	DD	imagerel $unwind$?_Tidy@?$vector@Ufile_task@@V?$allocator@Ufile_task@@@std@@@std@@AEAAXXZ
pdata	ENDS
;	COMDAT pdata
pdata	SEGMENT
$pdata$?_Getal@?$vector@Ufile_task@@V?$allocator@Ufile_task@@@std@@@std@@AEAAAEAV?$allocator@Ufile_task@@@2@XZ DD imagerel $LN3
	DD	imagerel $LN3+56
	DD	imagerel $unwind$?_Getal@?$vector@Ufile_task@@V?$allocator@Ufile_task@@@std@@@std@@AEAAAEAV?$allocator@Ufile_task@@@2@XZ
pdata	ENDS
;	COMDAT pdata
pdata	SEGMENT
$pdata$?_Get_first@?$_Compressed_pair@V?$allocator@Ufile_task@@@std@@V?$_Vector_val@U?$_Simple_types@Ufile_task@@@std@@@2@$00@std@@QEAAAEAV?$allocator@Ufile_task@@@2@XZ DD imagerel $LN3
	DD	imagerel $LN3+48
	DD	imagerel $unwind$?_Get_first@?$_Compressed_pair@V?$allocator@Ufile_task@@@std@@V?$_Vector_val@U?$_Simple_types@Ufile_task@@@std@@@2@$00@std@@QEAAAEAV?$allocator@Ufile_task@@@2@XZ
pdata	ENDS
;	COMDAT pdata
pdata	SEGMENT
$pdata$??1filemanip@@QEAA@XZ DD imagerel $LN3
	DD	imagerel $LN3+82
	DD	imagerel $unwind$??1filemanip@@QEAA@XZ
pdata	ENDS
;	COMDAT pdata
pdata	SEGMENT
$pdata$?__autoclassinit2@filemanip@@QEAAX_K@Z DD imagerel $LN3
	DD	imagerel $LN3+50
	DD	imagerel $unwind$?__autoclassinit2@filemanip@@QEAAX_K@Z
pdata	ENDS
;	COMDAT pdata
pdata	SEGMENT
$pdata$main DD	imagerel $LN8
	DD	imagerel $LN8+906
	DD	imagerel $unwind$main
pdata	ENDS
;	COMDAT pdata
pdata	SEGMENT
$pdata$main$dtor$0 DD imagerel main$dtor$0
	DD	imagerel main$dtor$0+36
	DD	imagerel $unwind$main$dtor$0
pdata	ENDS
;	COMDAT pdata
pdata	SEGMENT
$pdata$main$dtor$1 DD imagerel main$dtor$1
	DD	imagerel main$dtor$1+36
	DD	imagerel $unwind$main$dtor$1
pdata	ENDS
;	COMDAT pdata
pdata	SEGMENT
$pdata$main$dtor$2 DD imagerel main$dtor$2
	DD	imagerel main$dtor$2+39
	DD	imagerel $unwind$main$dtor$2
pdata	ENDS
;	COMDAT pdata
pdata	SEGMENT
$pdata$main$dtor$4 DD imagerel main$dtor$4
	DD	imagerel main$dtor$4+39
	DD	imagerel $unwind$main$dtor$4
pdata	ENDS
;	COMDAT pdata
pdata	SEGMENT
$pdata$??$?6U?$char_traits@D@std@@@std@@YAAEAV?$basic_ostream@DU?$char_traits@D@std@@@0@AEAV10@PEBD@Z DD imagerel $LN25
	DD	imagerel $LN25+1042
	DD	imagerel $unwind$??$?6U?$char_traits@D@std@@@std@@YAAEAV?$basic_ostream@DU?$char_traits@D@std@@@0@AEAV10@PEBD@Z
pdata	ENDS
;	COMDAT pdata
pdata	SEGMENT
$pdata$?dtor$0@?0???$?6U?$char_traits@D@std@@@std@@YAAEAV?$basic_ostream@DU?$char_traits@D@std@@@0@AEAV10@PEBD@Z@4HA DD imagerel ?dtor$0@?0???$?6U?$char_traits@D@std@@@std@@YAAEAV?$basic_ostream@DU?$char_traits@D@std@@@0@AEAV10@PEBD@Z@4HA
	DD	imagerel ?dtor$0@?0???$?6U?$char_traits@D@std@@@std@@YAAEAV?$basic_ostream@DU?$char_traits@D@std@@@0@AEAV10@PEBD@Z@4HA+36
	DD	imagerel $unwind$?dtor$0@?0???$?6U?$char_traits@D@std@@@std@@YAAEAV?$basic_ostream@DU?$char_traits@D@std@@@0@AEAV10@PEBD@Z@4HA
pdata	ENDS
;	COMDAT pdata
pdata	SEGMENT
$pdata$?catch$1@?0???$?6U?$char_traits@D@std@@@std@@YAAEAV?$basic_ostream@DU?$char_traits@D@std@@@0@AEAV10@PEBD@Z@4HA DD imagerel ?catch$1@?0???$?6U?$char_traits@D@std@@@std@@YAAEAV?$basic_ostream@DU?$char_traits@D@std@@@0@AEAV10@PEBD@Z@4HA
	DD	imagerel ?catch$1@?0???$?6U?$char_traits@D@std@@@std@@YAAEAV?$basic_ostream@DU?$char_traits@D@std@@@0@AEAV10@PEBD@Z@4HA+91
	DD	imagerel $unwind$?catch$1@?0???$?6U?$char_traits@D@std@@@std@@YAAEAV?$basic_ostream@DU?$char_traits@D@std@@@0@AEAV10@PEBD@Z@4HA
pdata	ENDS
;	COMDAT pdata
pdata	SEGMENT
$pdata$??$?5DU?$char_traits@D@std@@V?$allocator@D@1@@std@@YAAEAV?$basic_istream@DU?$char_traits@D@std@@@0@AEAV10@AEAV?$basic_string@DU?$char_traits@D@std@@V?$allocator@D@2@@0@@Z DD imagerel $LN22
	DD	imagerel $LN22+892
	DD	imagerel $unwind$??$?5DU?$char_traits@D@std@@V?$allocator@D@1@@std@@YAAEAV?$basic_istream@DU?$char_traits@D@std@@@0@AEAV10@AEAV?$basic_string@DU?$char_traits@D@std@@V?$allocator@D@2@@0@@Z
pdata	ENDS
;	COMDAT pdata
pdata	SEGMENT
$pdata$?dtor$0@?0???$?5DU?$char_traits@D@std@@V?$allocator@D@1@@std@@YAAEAV?$basic_istream@DU?$char_traits@D@std@@@0@AEAV10@AEAV?$basic_string@DU?$char_traits@D@std@@V?$allocator@D@2@@0@@Z@4HA DD imagerel ?dtor$0@?0???$?5DU?$char_traits@D@std@@V?$allocator@D@1@@std@@YAAEAV?$basic_istream@DU?$char_traits@D@std@@@0@AEAV10@AEAV?$basic_string@DU?$char_traits@D@std@@V?$allocator@D@2@@0@@Z@4HA
	DD	imagerel ?dtor$0@?0???$?5DU?$char_traits@D@std@@V?$allocator@D@1@@std@@YAAEAV?$basic_istream@DU?$char_traits@D@std@@@0@AEAV10@AEAV?$basic_string@DU?$char_traits@D@std@@V?$allocator@D@2@@0@@Z@4HA+36
	DD	imagerel $unwind$?dtor$0@?0???$?5DU?$char_traits@D@std@@V?$allocator@D@1@@std@@YAAEAV?$basic_istream@DU?$char_traits@D@std@@@0@AEAV10@AEAV?$basic_string@DU?$char_traits@D@std@@V?$allocator@D@2@@0@@Z@4HA
pdata	ENDS
;	COMDAT pdata
pdata	SEGMENT
$pdata$?dtor$1@?0???$?5DU?$char_traits@D@std@@V?$allocator@D@1@@std@@YAAEAV?$basic_istream@DU?$char_traits@D@std@@@0@AEAV10@AEAV?$basic_string@DU?$char_traits@D@std@@V?$allocator@D@2@@0@@Z@4HA DD imagerel ?dtor$1@?0???$?5DU?$char_traits@D@std@@V?$allocator@D@1@@std@@YAAEAV?$basic_istream@DU?$char_traits@D@std@@@0@AEAV10@AEAV?$basic_string@DU?$char_traits@D@std@@V?$allocator@D@2@@0@@Z@4HA
	DD	imagerel ?dtor$1@?0???$?5DU?$char_traits@D@std@@V?$allocator@D@1@@std@@YAAEAV?$basic_istream@DU?$char_traits@D@std@@@0@AEAV10@AEAV?$basic_string@DU?$char_traits@D@std@@V?$allocator@D@2@@0@@Z@4HA+39
	DD	imagerel $unwind$?dtor$1@?0???$?5DU?$char_traits@D@std@@V?$allocator@D@1@@std@@YAAEAV?$basic_istream@DU?$char_traits@D@std@@@0@AEAV10@AEAV?$basic_string@DU?$char_traits@D@std@@V?$allocator@D@2@@0@@Z@4HA
pdata	ENDS
;	COMDAT pdata
pdata	SEGMENT
$pdata$?catch$2@?0???$?5DU?$char_traits@D@std@@V?$allocator@D@1@@std@@YAAEAV?$basic_istream@DU?$char_traits@D@std@@@0@AEAV10@AEAV?$basic_string@DU?$char_traits@D@std@@V?$allocator@D@2@@0@@Z@4HA DD imagerel ?catch$2@?0???$?5DU?$char_traits@D@std@@V?$allocator@D@1@@std@@YAAEAV?$basic_istream@DU?$char_traits@D@std@@@0@AEAV10@AEAV?$basic_string@DU?$char_traits@D@std@@V?$allocator@D@2@@0@@Z@4HA
	DD	imagerel ?catch$2@?0???$?5DU?$char_traits@D@std@@V?$allocator@D@1@@std@@YAAEAV?$basic_istream@DU?$char_traits@D@std@@@0@AEAV10@AEAV?$basic_string@DU?$char_traits@D@std@@V?$allocator@D@2@@0@@Z@4HA+91
	DD	imagerel $unwind$?catch$2@?0???$?5DU?$char_traits@D@std@@V?$allocator@D@1@@std@@YAAEAV?$basic_istream@DU?$char_traits@D@std@@@0@AEAV10@AEAV?$basic_string@DU?$char_traits@D@std@@V?$allocator@D@2@@0@@Z@4HA
pdata	ENDS
;	COMDAT pdata
pdata	SEGMENT
$pdata$??$?GUsteady_clock@chrono@std@@V?$duration@_JU?$ratio@$00$0DLJKMKAA@@std@@@12@V312@@chrono@std@@YA?AV?$duration@_JU?$ratio@$00$0DLJKMKAA@@std@@@01@AEBV?$time_point@Usteady_clock@chrono@std@@V?$duration@_JU?$ratio@$00$0DLJKMKAA@@std@@@23@@01@0@Z DD imagerel $LN3
	DD	imagerel $LN3+136
	DD	imagerel $unwind$??$?GUsteady_clock@chrono@std@@V?$duration@_JU?$ratio@$00$0DLJKMKAA@@std@@@12@V312@@chrono@std@@YA?AV?$duration@_JU?$ratio@$00$0DLJKMKAA@@std@@@01@AEBV?$time_point@Usteady_clock@chrono@std@@V?$duration@_JU?$ratio@$00$0DLJKMKAA@@std@@@23@@01@0@Z
pdata	ENDS
;	COMDAT pdata
pdata	SEGMENT
$pdata$??$endl@DU?$char_traits@D@std@@@std@@YAAEAV?$basic_ostream@DU?$char_traits@D@std@@@0@AEAV10@@Z DD imagerel $LN3
	DD	imagerel $LN3+126
	DD	imagerel $unwind$??$endl@DU?$char_traits@D@std@@@std@@YAAEAV?$basic_ostream@DU?$char_traits@D@std@@@0@AEAV10@@Z
pdata	ENDS
;	COMDAT pdata
pdata	SEGMENT
$pdata$?deallocate@?$allocator@U_Container_proxy@std@@@std@@QEAAXQEAU_Container_proxy@2@_K@Z DD imagerel $LN13
	DD	imagerel $LN13+213
	DD	imagerel $unwind$?deallocate@?$allocator@U_Container_proxy@std@@@std@@QEAAXQEAU_Container_proxy@2@_K@Z
pdata	ENDS
;	COMDAT pdata
pdata	SEGMENT
$pdata$?allocate@?$allocator@U_Container_proxy@std@@@std@@QEAAPEAU_Container_proxy@2@_K@Z DD imagerel $LN3
	DD	imagerel $LN3+66
	DD	imagerel $unwind$?allocate@?$allocator@U_Container_proxy@std@@@std@@QEAAPEAU_Container_proxy@2@_K@Z
pdata	ENDS
;	COMDAT pdata
pdata	SEGMENT
$pdata$??$?0Ufile_task@@@?$allocator@U_Container_proxy@std@@@std@@QEAA@AEBV?$allocator@Ufile_task@@@1@@Z DD imagerel $LN3
	DD	imagerel $LN3+53
	DD	imagerel $unwind$??$?0Ufile_task@@@?$allocator@U_Container_proxy@std@@@std@@QEAA@AEBV?$allocator@Ufile_task@@@1@@Z
pdata	ENDS
;	COMDAT pdata
pdata	SEGMENT
$pdata$??$exchange@PEAU_Container_proxy@std@@$$T@std@@YAPEAU_Container_proxy@0@AEAPEAU10@$$QEA$$T@Z DD imagerel $LN3
	DD	imagerel $LN3+84
	DD	imagerel $unwind$??$exchange@PEAU_Container_proxy@std@@$$T@std@@YAPEAU_Container_proxy@0@AEAPEAU10@$$QEA$$T@Z
pdata	ENDS
;	COMDAT pdata
pdata	SEGMENT
$pdata$??$_Delete_plain_internal@V?$allocator@U_Container_proxy@std@@@std@@@std@@YAXAEAV?$allocator@U_Container_proxy@std@@@0@QEAU_Container_proxy@0@@Z DD imagerel $LN3
	DD	imagerel $LN3+65
	DD	imagerel $unwind$??$_Delete_plain_internal@V?$allocator@U_Container_proxy@std@@@std@@@std@@YAXAEAV?$allocator@U_Container_proxy@std@@@0@QEAU_Container_proxy@0@@Z
pdata	ENDS
;	COMDAT pdata
pdata	SEGMENT
$pdata$??$_Allocate_at_least_helper@V?$allocator@D@std@@@std@@YAPEADAEAV?$allocator@D@0@AEA_K@Z DD imagerel $LN3
	DD	imagerel $LN3+68
	DD	imagerel $unwind$??$_Allocate_at_least_helper@V?$allocator@D@std@@@std@@YAPEADAEAV?$allocator@D@0@AEA_K@Z
pdata	ENDS
;	COMDAT pdata
pdata	SEGMENT
$pdata$??$_Unfancy@D@std@@YAPEADPEAD@Z DD imagerel $LN3
	DD	imagerel $LN3+48
	DD	imagerel $unwind$??$_Unfancy@D@std@@YAPEADPEAD@Z
pdata	ENDS
;	COMDAT pdata
pdata	SEGMENT
$pdata$??0_Sentry_base@?$basic_ostream@DU?$char_traits@D@std@@@std@@QEAA@AEAV12@@Z DD imagerel $LN4
	DD	imagerel $LN4+148
	DD	imagerel $unwind$??0_Sentry_base@?$basic_ostream@DU?$char_traits@D@std@@@std@@QEAA@AEAV12@@Z
pdata	ENDS
;	COMDAT pdata
pdata	SEGMENT
$pdata$??1_Sentry_base@?$basic_ostream@DU?$char_traits@D@std@@@std@@QEAA@XZ DD imagerel $LN4
	DD	imagerel $LN4+120
	DD	imagerel $unwind$??1_Sentry_base@?$basic_ostream@DU?$char_traits@D@std@@@std@@QEAA@XZ
pdata	ENDS
;	COMDAT pdata
pdata	SEGMENT
$pdata$??0sentry@?$basic_ostream@DU?$char_traits@D@std@@@std@@QEAA@AEAV12@@Z DD imagerel $LN7
	DD	imagerel $LN7+261
	DD	imagerel $unwind$??0sentry@?$basic_ostream@DU?$char_traits@D@std@@@std@@QEAA@AEAV12@@Z
pdata	ENDS
;	COMDAT pdata
pdata	SEGMENT
$pdata$?dtor$0@?0???0sentry@?$basic_ostream@DU?$char_traits@D@std@@@std@@QEAA@AEAV12@@Z@4HA DD imagerel ?dtor$0@?0???0sentry@?$basic_ostream@DU?$char_traits@D@std@@@std@@QEAA@AEAV12@@Z@4HA
	DD	imagerel ?dtor$0@?0???0sentry@?$basic_ostream@DU?$char_traits@D@std@@@std@@QEAA@AEAV12@@Z@4HA+39
	DD	imagerel $unwind$?dtor$0@?0???0sentry@?$basic_ostream@DU?$char_traits@D@std@@@std@@QEAA@AEAV12@@Z@4HA
pdata	ENDS
;	COMDAT pdata
pdata	SEGMENT
$pdata$??1sentry@?$basic_ostream@DU?$char_traits@D@std@@@std@@QEAA@XZ DD imagerel $LN6
	DD	imagerel $LN6+112
	DD	imagerel $unwind$??1sentry@?$basic_ostream@DU?$char_traits@D@std@@@std@@QEAA@XZ
pdata	ENDS
;	COMDAT pdata
pdata	SEGMENT
$pdata$??Bsentry@?$basic_ostream@DU?$char_traits@D@std@@@std@@QEBA_NXZ DD imagerel $LN3
	DD	imagerel $LN3+52
	DD	imagerel $unwind$??Bsentry@?$basic_ostream@DU?$char_traits@D@std@@@std@@QEBA_NXZ
pdata	ENDS
;	COMDAT pdata
pdata	SEGMENT
$pdata$??$min@_K@std@@YAAEB_KAEB_K0@Z DD imagerel $LN5
	DD	imagerel $LN5+119
	DD	imagerel $unwind$??$min@_K@std@@YAAEB_KAEB_K0@Z
pdata	ENDS
;	COMDAT pdata
pdata	SEGMENT
$pdata$??$_Convert_size@_K_K@std@@YA_K_K@Z DD imagerel $LN3
	DD	imagerel $LN3+48
	DD	imagerel $unwind$??$_Convert_size@_K_K@std@@YA_K_K@Z
pdata	ENDS
;	COMDAT pdata
pdata	SEGMENT
$pdata$??$?0D@?$allocator@U_Container_proxy@std@@@std@@QEAA@AEBV?$allocator@D@1@@Z DD imagerel $LN3
	DD	imagerel $LN3+53
	DD	imagerel $unwind$??$?0D@?$allocator@U_Container_proxy@std@@@std@@QEAA@AEBV?$allocator@D@1@@Z
pdata	ENDS
;	COMDAT pdata
pdata	SEGMENT
$pdata$??$?0V?$allocator@D@std@@$$V@?$_Compressed_pair@V?$allocator@D@std@@V?$_String_val@U?$_Simple_types@D@std@@@2@$00@std@@QEAA@U_One_then_variadic_args_t@1@$$QEAV?$allocator@D@1@@Z DD imagerel $LN3
	DD	imagerel $LN3+72
	DD	imagerel $unwind$??$?0V?$allocator@D@std@@$$V@?$_Compressed_pair@V?$allocator@D@std@@V?$_String_val@U?$_Simple_types@D@std@@@2@$00@std@@QEAA@U_One_then_variadic_args_t@1@$$QEAV?$allocator@D@1@@Z
pdata	ENDS
;	COMDAT pdata
pdata	SEGMENT
$pdata$??$?0$$V@?$_Compressed_pair@V?$allocator@D@std@@V?$_String_val@U?$_Simple_types@D@std@@@2@$00@std@@QEAA@U_Zero_then_variadic_args_t@1@@Z DD imagerel $LN3
	DD	imagerel $LN3+79
	DD	imagerel $unwind$??$?0$$V@?$_Compressed_pair@V?$allocator@D@std@@V?$_String_val@U?$_Simple_types@D@std@@@2@$00@std@@QEAA@U_Zero_then_variadic_args_t@1@@Z
pdata	ENDS
;	COMDAT pdata
pdata	SEGMENT
$pdata$??$_Construct@$00PEBD@?$basic_string@DU?$char_traits@D@std@@V?$allocator@D@2@@std@@AEAAXQEBD_K@Z DD imagerel $LN7
	DD	imagerel $LN7+568
	DD	imagerel $unwind$??$_Construct@$00PEBD@?$basic_string@DU?$char_traits@D@std@@V?$allocator@D@2@@std@@AEAAXQEBD_K@Z
pdata	ENDS
;	COMDAT pdata
pdata	SEGMENT
$pdata$?dtor$0@?0???$_Construct@$00PEBD@?$basic_string@DU?$char_traits@D@std@@V?$allocator@D@2@@std@@AEAAXQEBD_K@Z@4HA DD imagerel ?dtor$0@?0???$_Construct@$00PEBD@?$basic_string@DU?$char_traits@D@std@@V?$allocator@D@2@@std@@AEAAXQEBD_K@Z@4HA
	DD	imagerel ?dtor$0@?0???$_Construct@$00PEBD@?$basic_string@DU?$char_traits@D@std@@V?$allocator@D@2@@std@@AEAAXQEBD_K@Z@4HA+39
	DD	imagerel $unwind$?dtor$0@?0???$_Construct@$00PEBD@?$basic_string@DU?$char_traits@D@std@@V?$allocator@D@2@@std@@AEAAXQEBD_K@Z@4HA
pdata	ENDS
;	COMDAT pdata
pdata	SEGMENT
$pdata$??$_Construct@$01PEBD@?$basic_string@DU?$char_traits@D@std@@V?$allocator@D@2@@std@@AEAAXQEBD_K@Z DD imagerel $LN7
	DD	imagerel $LN7+508
	DD	imagerel $unwind$??$_Construct@$01PEBD@?$basic_string@DU?$char_traits@D@std@@V?$allocator@D@2@@std@@AEAAXQEBD_K@Z
pdata	ENDS
;	COMDAT pdata
pdata	SEGMENT
$pdata$?dtor$0@?0???$_Construct@$01PEBD@?$basic_string@DU?$char_traits@D@std@@V?$allocator@D@2@@std@@AEAAXQEBD_K@Z@4HA DD imagerel ?dtor$0@?0???$_Construct@$01PEBD@?$basic_string@DU?$char_traits@D@std@@V?$allocator@D@2@@std@@AEAAXQEBD_K@Z@4HA
	DD	imagerel ?dtor$0@?0???$_Construct@$01PEBD@?$basic_string@DU?$char_traits@D@std@@V?$allocator@D@2@@std@@AEAAXQEBD_K@Z@4HA+39
	DD	imagerel $unwind$?dtor$0@?0???$_Construct@$01PEBD@?$basic_string@DU?$char_traits@D@std@@V?$allocator@D@2@@std@@AEAAXQEBD_K@Z@4HA
pdata	ENDS
;	COMDAT pdata
pdata	SEGMENT
$pdata$??$addressof@D@std@@YAPEADAEAD@Z DD imagerel $LN3
	DD	imagerel $LN3+48
	DD	imagerel $unwind$??$addressof@D@std@@YAPEADAEAD@Z
pdata	ENDS
;	COMDAT pdata
pdata	SEGMENT
$pdata$??$_Destroy_range@V?$allocator@Ufile_task@@@std@@@std@@YAXPEAUfile_task@@QEAU1@AEAV?$allocator@Ufile_task@@@0@@Z DD imagerel $LN6
	DD	imagerel $LN6+116
	DD	imagerel $unwind$??$_Destroy_range@V?$allocator@Ufile_task@@@std@@@std@@YAXPEAUfile_task@@QEAU1@AEAV?$allocator@Ufile_task@@@0@@Z
pdata	ENDS
;	COMDAT pdata
pdata	SEGMENT
$pdata$??$_Destroy_in_place@PEAD@std@@YAXAEAPEAD@Z DD imagerel $LN3
	DD	imagerel $LN3+41
	DD	imagerel $unwind$??$_Destroy_in_place@PEAD@std@@YAXAEAPEAD@Z
pdata	ENDS
;	COMDAT pdata
pdata	SEGMENT
$pdata$??R<lambda_1>@?1??push_back@?$basic_string@DU?$char_traits@D@std@@V?$allocator@D@2@@std@@QEAAXD@Z@QEBA@QEADQEBD_KD@Z DD imagerel $LN3
	DD	imagerel $LN3+158
	DD	imagerel $unwind$??R<lambda_1>@?1??push_back@?$basic_string@DU?$char_traits@D@std@@V?$allocator@D@2@@std@@QEAAXD@Z@QEBA@QEADQEBD_KD@Z
pdata	ENDS
;	COMDAT pdata
pdata	SEGMENT
$pdata$??$_Reallocate_grow_by@V<lambda_1>@?1??push_back@?$basic_string@DU?$char_traits@D@std@@V?$allocator@D@2@@std@@QEAAXD@Z@D@?$basic_string@DU?$char_traits@D@std@@V?$allocator@D@2@@std@@AEAAAEAV01@_KV<lambda_1>@?1??push_back@01@QEAAXD@Z@D@Z DD imagerel $LN6
	DD	imagerel $LN6+530
	DD	imagerel $unwind$??$_Reallocate_grow_by@V<lambda_1>@?1??push_back@?$basic_string@DU?$char_traits@D@std@@V?$allocator@D@2@@std@@QEAAXD@Z@D@?$basic_string@DU?$char_traits@D@std@@V?$allocator@D@2@@std@@AEAAAEAV01@_KV<lambda_1>@?1??push_back@01@QEAAXD@Z@D@Z
pdata	ENDS
;	COMDAT pdata
pdata	SEGMENT
$pdata$??$_Deallocate@$0BA@$0A@@std@@YAXPEAX_K@Z DD imagerel $LN6
	DD	imagerel $LN6+124
	DD	imagerel $unwind$??$_Deallocate@$0BA@$0A@@std@@YAXPEAX_K@Z
pdata	ENDS
;	COMDAT pdata
pdata	SEGMENT
$pdata$??$construct_at@DAEBD$0A@@std@@YAPEADQEADAEBD@Z DD imagerel $LN3
	DD	imagerel $LN3+96
	DD	imagerel $unwind$??$construct_at@DAEBD$0A@@std@@YAPEADQEADAEBD@Z
pdata	ENDS
;	COMDAT pdata
pdata	SEGMENT
$pdata$??$addressof@U_Container_proxy@std@@@std@@YAPEAU_Container_proxy@0@AEAU10@@Z DD imagerel $LN3
	DD	imagerel $LN3+48
	DD	imagerel $unwind$??$addressof@U_Container_proxy@std@@@std@@YAPEAU_Container_proxy@0@AEAU10@@Z
pdata	ENDS
;	COMDAT pdata
pdata	SEGMENT
$pdata$??$construct_at@U_Container_proxy@std@@PEAU_Container_base12@2@$0A@@std@@YAPEAU_Container_proxy@0@QEAU10@$$QEAPEAU_Container_base12@0@@Z DD imagerel $LN3
	DD	imagerel $LN3+92
	DD	imagerel $unwind$??$construct_at@U_Container_proxy@std@@PEAU_Container_base12@2@$0A@@std@@YAPEAU_Container_proxy@0@QEAU10@$$QEAPEAU_Container_base12@0@@Z
pdata	ENDS
;	COMDAT pdata
pdata	SEGMENT
$pdata$??R?$default_delete@V_Facet_base@std@@@std@@QEBAXPEAV_Facet_base@1@@Z DD imagerel $LN5
	DD	imagerel $LN5+128
	DD	imagerel $unwind$??R?$default_delete@V_Facet_base@std@@@std@@QEBAXPEAV_Facet_base@1@@Z
pdata	ENDS
;	COMDAT pdata
pdata	SEGMENT
$pdata$??1?$unique_ptr@V_Facet_base@std@@U?$default_delete@V_Facet_base@std@@@2@@std@@QEAA@XZ DD imagerel $LN4
	DD	imagerel $LN4+112
	DD	imagerel $unwind$??1?$unique_ptr@V_Facet_base@std@@U?$default_delete@V_Facet_base@std@@@2@@std@@QEAA@XZ
pdata	ENDS
;	COMDAT pdata
pdata	SEGMENT
$pdata$?release@?$unique_ptr@V_Facet_base@std@@U?$default_delete@V_Facet_base@std@@@2@@std@@QEAAPEAV_Facet_base@2@XZ DD imagerel $LN3
	DD	imagerel $LN3+74
	DD	imagerel $unwind$?release@?$unique_ptr@V_Facet_base@std@@U?$default_delete@V_Facet_base@std@@@2@@std@@QEAAPEAV_Facet_base@2@XZ
pdata	ENDS
;	COMDAT pdata
pdata	SEGMENT
$pdata$?_Get_first@?$_Compressed_pair@U?$default_delete@V_Facet_base@std@@@std@@PEAV_Facet_base@2@$00@std@@QEAAAEAU?$default_delete@V_Facet_base@std@@@2@XZ DD imagerel $LN3
	DD	imagerel $LN3+48
	DD	imagerel $unwind$?_Get_first@?$_Compressed_pair@U?$default_delete@V_Facet_base@std@@@std@@PEAV_Facet_base@2@$00@std@@QEAAAEAU?$default_delete@V_Facet_base@std@@@2@XZ
pdata	ENDS
;	COMDAT pdata
pdata	SEGMENT
$pdata$?__autoclassinit2@?$unique_ptr@V_Facet_base@std@@U?$default_delete@V_Facet_base@std@@@2@@std@@QEAAX_K@Z DD imagerel $LN3
	DD	imagerel $LN3+50
	DD	imagerel $unwind$?__autoclassinit2@?$unique_ptr@V_Facet_base@std@@U?$default_delete@V_Facet_base@std@@@2@@std@@QEAAX_K@Z
pdata	ENDS
;	COMDAT pdata
pdata	SEGMENT
$pdata$??$?0U?$default_delete@V_Facet_base@std@@@std@@$0A@@?$unique_ptr@V_Facet_base@std@@U?$default_delete@V_Facet_base@std@@@2@@std@@QEAA@PEAV_Facet_base@1@@Z DD imagerel $LN3
	DD	imagerel $LN3+93
	DD	imagerel $unwind$??$?0U?$default_delete@V_Facet_base@std@@@std@@$0A@@?$unique_ptr@V_Facet_base@std@@U?$default_delete@V_Facet_base@std@@@2@@std@@QEAA@PEAV_Facet_base@1@@Z
pdata	ENDS
;	COMDAT pdata
pdata	SEGMENT
$pdata$??0_Sentry_base@?$basic_istream@DU?$char_traits@D@std@@@std@@QEAA@AEAV12@@Z DD imagerel $LN4
	DD	imagerel $LN4+148
	DD	imagerel $unwind$??0_Sentry_base@?$basic_istream@DU?$char_traits@D@std@@@std@@QEAA@AEAV12@@Z
pdata	ENDS
;	COMDAT pdata
pdata	SEGMENT
$pdata$??1_Sentry_base@?$basic_istream@DU?$char_traits@D@std@@@std@@QEAA@XZ DD imagerel $LN4
	DD	imagerel $LN4+120
	DD	imagerel $unwind$??1_Sentry_base@?$basic_istream@DU?$char_traits@D@std@@@std@@QEAA@XZ
pdata	ENDS
;	COMDAT pdata
pdata	SEGMENT
$pdata$??0sentry@?$basic_istream@DU?$char_traits@D@std@@@std@@QEAA@AEAV12@_N@Z DD imagerel $LN4
	DD	imagerel $LN4+125
	DD	imagerel $unwind$??0sentry@?$basic_istream@DU?$char_traits@D@std@@@std@@QEAA@AEAV12@_N@Z
pdata	ENDS
;	COMDAT pdata
pdata	SEGMENT
$pdata$?dtor$0@?0???0sentry@?$basic_istream@DU?$char_traits@D@std@@@std@@QEAA@AEAV12@_N@Z@4HA DD imagerel ?dtor$0@?0???0sentry@?$basic_istream@DU?$char_traits@D@std@@@std@@QEAA@AEAV12@_N@Z@4HA
	DD	imagerel ?dtor$0@?0???0sentry@?$basic_istream@DU?$char_traits@D@std@@@std@@QEAA@AEAV12@_N@Z@4HA+39
	DD	imagerel $unwind$?dtor$0@?0???0sentry@?$basic_istream@DU?$char_traits@D@std@@@std@@QEAA@AEAV12@_N@Z@4HA
pdata	ENDS
;	COMDAT pdata
pdata	SEGMENT
$pdata$??Bsentry@?$basic_istream@DU?$char_traits@D@std@@@std@@QEBA_NXZ DD imagerel $LN3
	DD	imagerel $LN3+52
	DD	imagerel $unwind$??Bsentry@?$basic_istream@DU?$char_traits@D@std@@@std@@QEBA_NXZ
pdata	ENDS
;	COMDAT pdata
pdata	SEGMENT
$pdata$??1sentry@?$basic_istream@DU?$char_traits@D@std@@@std@@QEAA@XZ DD imagerel $LN3
	DD	imagerel $LN3+41
	DD	imagerel $unwind$??1sentry@?$basic_istream@DU?$char_traits@D@std@@@std@@QEAA@XZ
pdata	ENDS
;	COMDAT pdata
pdata	SEGMENT
$pdata$??$?G_JU?$ratio@$00$0DLJKMKAA@@std@@_JU01@@chrono@std@@YA?AV?$duration@_JU?$ratio@$00$0DLJKMKAA@@std@@@01@AEBV201@0@Z DD imagerel $LN3
	DD	imagerel $LN3+162
	DD	imagerel $unwind$??$?G_JU?$ratio@$00$0DLJKMKAA@@std@@_JU01@@chrono@std@@YA?AV?$duration@_JU?$ratio@$00$0DLJKMKAA@@std@@@01@AEBV201@0@Z
pdata	ENDS
;	COMDAT pdata
pdata	SEGMENT
$pdata$??$_Deallocate_plain@V?$allocator@U_Container_proxy@std@@@std@@@std@@YAXAEAV?$allocator@U_Container_proxy@std@@@0@QEAU_Container_proxy@0@@Z DD imagerel $LN3
	DD	imagerel $LN3+72
	DD	imagerel $unwind$??$_Deallocate_plain@V?$allocator@U_Container_proxy@std@@@std@@@std@@YAXAEAV?$allocator@U_Container_proxy@std@@@0@QEAU_Container_proxy@0@@Z
pdata	ENDS
;	COMDAT pdata
pdata	SEGMENT
$pdata$??$_Unfancy@U_Container_proxy@std@@@std@@YAPEAU_Container_proxy@0@PEAU10@@Z DD imagerel $LN3
	DD	imagerel $LN3+48
	DD	imagerel $unwind$??$_Unfancy@U_Container_proxy@std@@@std@@YAPEAU_Container_proxy@0@PEAU10@@Z
pdata	ENDS
;	COMDAT pdata
pdata	SEGMENT
$pdata$??0?$_Container_proxy_ptr12@V?$allocator@U_Container_proxy@std@@@std@@@std@@QEAA@AEAV?$allocator@U_Container_proxy@std@@@1@AEAU_Container_base12@1@@Z DD imagerel $LN3
	DD	imagerel $LN3+184
	DD	imagerel $unwind$??0?$_Container_proxy_ptr12@V?$allocator@U_Container_proxy@std@@@std@@@std@@QEAA@AEAV?$allocator@U_Container_proxy@std@@@1@AEAU_Container_base12@1@@Z
pdata	ENDS
;	COMDAT pdata
pdata	SEGMENT
$pdata$??1?$_Container_proxy_ptr12@V?$allocator@U_Container_proxy@std@@@std@@@std@@QEAA@XZ DD imagerel $LN4
	DD	imagerel $LN4+80
	DD	imagerel $unwind$??1?$_Container_proxy_ptr12@V?$allocator@U_Container_proxy@std@@@std@@@std@@QEAA@XZ
pdata	ENDS
;	COMDAT pdata
pdata	SEGMENT
$pdata$??$_Allocate_for_capacity@$0A@@?$basic_string@DU?$char_traits@D@std@@V?$allocator@D@2@@std@@CAPEADAEAV?$allocator@D@1@AEA_K@Z DD imagerel $LN7
	DD	imagerel $LN7+205
	DD	imagerel $unwind$??$_Allocate_for_capacity@$0A@@?$basic_string@DU?$char_traits@D@std@@V?$allocator@D@2@@std@@CAPEADAEAV?$allocator@D@1@AEA_K@Z
pdata	ENDS
;	COMDAT pdata
pdata	SEGMENT
$pdata$??$_Construct_in_place@PEADAEBQEAD@std@@YAXAEAPEADAEBQEAD@Z DD imagerel $LN5
	DD	imagerel $LN5+139
	DD	imagerel $unwind$??$_Construct_in_place@PEADAEBQEAD@std@@YAXAEAPEADAEBQEAD@Z
pdata	ENDS
;	COMDAT pdata
pdata	SEGMENT
$pdata$??$_Unfancy@Ufile_task@@@std@@YAPEAUfile_task@@PEAU1@@Z DD imagerel $LN3
	DD	imagerel $LN3+48
	DD	imagerel $unwind$??$_Unfancy@Ufile_task@@@std@@YAPEAUfile_task@@PEAU1@@Z
pdata	ENDS
;	COMDAT pdata
pdata	SEGMENT
$pdata$??$destroy@Ufile_task@@@?$_Default_allocator_traits@V?$allocator@Ufile_task@@@std@@@std@@SAXAEAV?$allocator@Ufile_task@@@1@QEAUfile_task@@@Z DD imagerel $LN3
	DD	imagerel $LN3+58
	DD	imagerel $unwind$??$destroy@Ufile_task@@@?$_Default_allocator_traits@V?$allocator@Ufile_task@@@std@@@std@@SAXAEAV?$allocator@Ufile_task@@@1@QEAUfile_task@@@Z
pdata	ENDS
;	COMDAT pdata
pdata	SEGMENT
$pdata$??$addressof@PEAD@std@@YAPEAPEADAEAPEAD@Z DD imagerel $LN3
	DD	imagerel $LN3+48
	DD	imagerel $unwind$??$addressof@PEAD@std@@YAPEAPEADAEAPEAD@Z
pdata	ENDS
;	COMDAT pdata
pdata	SEGMENT
$pdata$??$exchange@PEAV_Facet_base@std@@$$T@std@@YAPEAV_Facet_base@0@AEAPEAV10@$$QEA$$T@Z DD imagerel $LN3
	DD	imagerel $LN3+84
	DD	imagerel $unwind$??$exchange@PEAV_Facet_base@std@@$$T@std@@YAPEAV_Facet_base@0@AEAPEAV10@$$QEA$$T@Z
pdata	ENDS
;	COMDAT pdata
pdata	SEGMENT
$pdata$??$_Get_size_of_n@$0BA@@std@@YA_K_K@Z DD imagerel $LN4
	DD	imagerel $LN4+91
	DD	imagerel $unwind$??$_Get_size_of_n@$0BA@@std@@YA_K_K@Z
pdata	ENDS
;	COMDAT pdata
pdata	SEGMENT
$pdata$??$_Allocate@$0BA@U_Default_allocate_traits@std@@$0A@@std@@YAPEAX_K@Z DD imagerel $LN6
	DD	imagerel $LN6+106
	DD	imagerel $unwind$??$_Allocate@$0BA@U_Default_allocate_traits@std@@$0A@@std@@YAPEAX_K@Z
pdata	ENDS
;	COMDAT pdata
pdata	SEGMENT
$pdata$??$_Get_size_of_n@$00@std@@YA_K_K@Z DD imagerel $LN3
	DD	imagerel $LN3+52
	DD	imagerel $unwind$??$_Get_size_of_n@$00@std@@YA_K_K@Z
pdata	ENDS
;	COMDAT pdata
pdata	SEGMENT
$pdata$??$?0AEAPEAV_Facet_base@std@@@?$_Compressed_pair@U?$default_delete@V_Facet_base@std@@@std@@PEAV_Facet_base@2@$00@std@@QEAA@U_Zero_then_variadic_args_t@1@AEAPEAV_Facet_base@1@@Z DD imagerel $LN3
	DD	imagerel $LN3+77
	DD	imagerel $unwind$??$?0AEAPEAV_Facet_base@std@@@?$_Compressed_pair@U?$default_delete@V_Facet_base@std@@@std@@PEAV_Facet_base@2@$00@std@@QEAA@U_Zero_then_variadic_args_t@1@AEAPEAV_Facet_base@1@@Z
pdata	ENDS
;	COMDAT pdata
pdata	SEGMENT
$pdata$?deallocate@?$_Default_allocator_traits@V?$allocator@U_Container_proxy@std@@@std@@@std@@SAXAEAV?$allocator@U_Container_proxy@std@@@2@QEAU_Container_proxy@2@_K@Z DD imagerel $LN5
	DD	imagerel $LN5+114
	DD	imagerel $unwind$?deallocate@?$_Default_allocator_traits@V?$allocator@U_Container_proxy@std@@@std@@@std@@SAXAEAV?$allocator@U_Container_proxy@std@@@2@QEAU_Container_proxy@2@_K@Z
pdata	ENDS
;	COMDAT pdata
pdata	SEGMENT
$pdata$??$construct_at@D$$V$0A@@std@@YAPEADQEAD@Z DD imagerel $LN3
	DD	imagerel $LN3+103
	DD	imagerel $unwind$??$construct_at@D$$V$0A@@std@@YAPEADQEAD@Z
pdata	ENDS
;	COMDAT pdata
pdata	SEGMENT
$pdata$??$construct_at@PEADAEBQEAD$0A@@std@@YAPEAPEADQEAPEADAEBQEAD@Z DD imagerel $LN3
	DD	imagerel $LN3+97
	DD	imagerel $unwind$??$construct_at@PEADAEBQEAD$0A@@std@@YAPEAPEADQEAPEADAEBQEAD@Z
pdata	ENDS
;	COMDAT pdata
pdata	SEGMENT
$pdata$??$destroy_at@Ufile_task@@@std@@YAXQEAUfile_task@@@Z DD imagerel $LN3
	DD	imagerel $LN3+55
	DD	imagerel $unwind$??$destroy_at@Ufile_task@@@std@@YAXQEAUfile_task@@@Z
pdata	ENDS
;	COMDAT pdata
pdata	SEGMENT
$pdata$??$_Allocate_manually_vector_aligned@U_Default_allocate_traits@std@@@std@@YAPEAX_K@Z DD imagerel $LN13
	DD	imagerel $LN13+277
	DD	imagerel $unwind$??$_Allocate_manually_vector_aligned@U_Default_allocate_traits@std@@@std@@YAPEAX_K@Z
pdata	ENDS
;	COMDAT __real@41cdcd6500000000
CONST	SEGMENT
__real@41cdcd6500000000 DQ 041cdcd6500000000r	; 1e+09
CONST	ENDS
;	COMDAT __real@4130000000000000
CONST	SEGMENT
__real@4130000000000000 DQ 04130000000000000r	; 1.04858e+06
CONST	ENDS
;	COMDAT __real@404e000000000000
CONST	SEGMENT
__real@404e000000000000 DQ 0404e000000000000r	; 60
CONST	ENDS
;	COMDAT rtc$TMZ
rtc$TMZ	SEGMENT
_RTC_Shutdown.rtc$TMZ DQ FLAT:_RTC_Shutdown
rtc$TMZ	ENDS
;	COMDAT rtc$IMZ
rtc$IMZ	SEGMENT
_RTC_InitBase.rtc$IMZ DQ FLAT:_RTC_InitBase
rtc$IMZ	ENDS
;	COMDAT ??_R1A@?0A@EA@bad_cast@std@@8
rdata$r	SEGMENT
??_R1A@?0A@EA@bad_cast@std@@8 DD imagerel ??_R0?AVbad_cast@std@@@8 ; std::bad_cast::`RTTI Base Class Descriptor at (0,-1,0,64)'
	DD	01H
	DD	00H
	DD	0ffffffffH
	DD	00H
	DD	040H
	DD	imagerel ??_R3bad_cast@std@@8
rdata$r	ENDS
;	COMDAT ??_R2bad_cast@std@@8
rdata$r	SEGMENT
??_R2bad_cast@std@@8 DD imagerel ??_R1A@?0A@EA@bad_cast@std@@8 ; std::bad_cast::`RTTI Base Class Array'
	DD	imagerel ??_R1A@?0A@EA@exception@std@@8
	ORG $+3
rdata$r	ENDS
;	COMDAT ??_R3bad_cast@std@@8
rdata$r	SEGMENT
??_R3bad_cast@std@@8 DD 00H				; std::bad_cast::`RTTI Class Hierarchy Descriptor'
	DD	00H
	DD	02H
	DD	imagerel ??_R2bad_cast@std@@8
rdata$r	ENDS
;	COMDAT ??_R4bad_cast@std@@6B@
rdata$r	SEGMENT
??_R4bad_cast@std@@6B@ DD 01H				; std::bad_cast::`RTTI Complete Object Locator'
	DD	00H
	DD	00H
	DD	imagerel ??_R0?AVbad_cast@std@@@8
	DD	imagerel ??_R3bad_cast@std@@8
	DD	imagerel ??_R4bad_cast@std@@6B@
rdata$r	ENDS
;	COMDAT ??_R1A@?0A@EA@bad_array_new_length@std@@8
rdata$r	SEGMENT
??_R1A@?0A@EA@bad_array_new_length@std@@8 DD imagerel ??_R0?AVbad_array_new_length@std@@@8 ; std::bad_array_new_length::`RTTI Base Class Descriptor at (0,-1,0,64)'
	DD	02H
	DD	00H
	DD	0ffffffffH
	DD	00H
	DD	040H
	DD	imagerel ??_R3bad_array_new_length@std@@8
rdata$r	ENDS
;	COMDAT ??_R2bad_array_new_length@std@@8
rdata$r	SEGMENT
??_R2bad_array_new_length@std@@8 DD imagerel ??_R1A@?0A@EA@bad_array_new_length@std@@8 ; std::bad_array_new_length::`RTTI Base Class Array'
	DD	imagerel ??_R1A@?0A@EA@bad_alloc@std@@8
	DD	imagerel ??_R1A@?0A@EA@exception@std@@8
	ORG $+3
rdata$r	ENDS
;	COMDAT ??_R3bad_array_new_length@std@@8
rdata$r	SEGMENT
??_R3bad_array_new_length@std@@8 DD 00H			; std::bad_array_new_length::`RTTI Class Hierarchy Descriptor'
	DD	00H
	DD	03H
	DD	imagerel ??_R2bad_array_new_length@std@@8
rdata$r	ENDS
;	COMDAT ??_R4bad_array_new_length@std@@6B@
rdata$r	SEGMENT
??_R4bad_array_new_length@std@@6B@ DD 01H		; std::bad_array_new_length::`RTTI Complete Object Locator'
	DD	00H
	DD	00H
	DD	imagerel ??_R0?AVbad_array_new_length@std@@@8
	DD	imagerel ??_R3bad_array_new_length@std@@8
	DD	imagerel ??_R4bad_array_new_length@std@@6B@
rdata$r	ENDS
;	COMDAT ??_R1A@?0A@EA@bad_alloc@std@@8
rdata$r	SEGMENT
??_R1A@?0A@EA@bad_alloc@std@@8 DD imagerel ??_R0?AVbad_alloc@std@@@8 ; std::bad_alloc::`RTTI Base Class Descriptor at (0,-1,0,64)'
	DD	01H
	DD	00H
	DD	0ffffffffH
	DD	00H
	DD	040H
	DD	imagerel ??_R3bad_alloc@std@@8
rdata$r	ENDS
;	COMDAT ??_R2bad_alloc@std@@8
rdata$r	SEGMENT
??_R2bad_alloc@std@@8 DD imagerel ??_R1A@?0A@EA@bad_alloc@std@@8 ; std::bad_alloc::`RTTI Base Class Array'
	DD	imagerel ??_R1A@?0A@EA@exception@std@@8
	ORG $+3
rdata$r	ENDS
;	COMDAT ??_R3bad_alloc@std@@8
rdata$r	SEGMENT
??_R3bad_alloc@std@@8 DD 00H				; std::bad_alloc::`RTTI Class Hierarchy Descriptor'
	DD	00H
	DD	02H
	DD	imagerel ??_R2bad_alloc@std@@8
rdata$r	ENDS
;	COMDAT ??_R4bad_alloc@std@@6B@
rdata$r	SEGMENT
??_R4bad_alloc@std@@6B@ DD 01H				; std::bad_alloc::`RTTI Complete Object Locator'
	DD	00H
	DD	00H
	DD	imagerel ??_R0?AVbad_alloc@std@@@8
	DD	imagerel ??_R3bad_alloc@std@@8
	DD	imagerel ??_R4bad_alloc@std@@6B@
rdata$r	ENDS
;	COMDAT ??_R1A@?0A@EA@exception@std@@8
rdata$r	SEGMENT
??_R1A@?0A@EA@exception@std@@8 DD imagerel ??_R0?AVexception@std@@@8 ; std::exception::`RTTI Base Class Descriptor at (0,-1,0,64)'
	DD	00H
	DD	00H
	DD	0ffffffffH
	DD	00H
	DD	040H
	DD	imagerel ??_R3exception@std@@8
rdata$r	ENDS
;	COMDAT ??_R2exception@std@@8
rdata$r	SEGMENT
??_R2exception@std@@8 DD imagerel ??_R1A@?0A@EA@exception@std@@8 ; std::exception::`RTTI Base Class Array'
	ORG $+3
rdata$r	ENDS
;	COMDAT ??_R3exception@std@@8
rdata$r	SEGMENT
??_R3exception@std@@8 DD 00H				; std::exception::`RTTI Class Hierarchy Descriptor'
	DD	00H
	DD	01H
	DD	imagerel ??_R2exception@std@@8
rdata$r	ENDS
;	COMDAT ??_R4exception@std@@6B@
rdata$r	SEGMENT
??_R4exception@std@@6B@ DD 01H				; std::exception::`RTTI Complete Object Locator'
	DD	00H
	DD	00H
	DD	imagerel ??_R0?AVexception@std@@@8
	DD	imagerel ??_R3exception@std@@8
	DD	imagerel ??_R4exception@std@@6B@
rdata$r	ENDS
;	COMDAT ??_C@_1BK@MHIKGOKE@?$AA?3?$AAA?$AAM?$AA?3?$AAa?$AAm?$AA?3?$AAP?$AAM?$AA?3?$AAp?$AAm@
CONST	SEGMENT
??_C@_1BK@MHIKGOKE@?$AA?3?$AAA?$AAM?$AA?3?$AAa?$AAm?$AA?3?$AAP?$AAM?$AA?3?$AAp?$AAm@ DB ':'
	DB	00H, 'A', 00H, 'M', 00H, ':', 00H, 'a', 00H, 'm', 00H, ':', 00H
	DB	'P', 00H, 'M', 00H, ':', 00H, 'p', 00H, 'm', 00H, 00H, 00H ; `string'
CONST	ENDS
;	COMDAT ??_C@_0BI@CFPLBAOH@invalid?5string?5position@
CONST	SEGMENT
??_C@_0BI@CFPLBAOH@invalid?5string?5position@ DB 'invalid string position'
	DB	00H						; `string'
CONST	ENDS
;	COMDAT ??_C@_1HA@FACCKGGH@?$AA?$CC?$AAn?$AAu?$AAl?$AAl?$AA?5?$AAp?$AAo?$AAi?$AAn?$AAt?$AAe?$AAr?$AA?5?$AAc@
CONST	SEGMENT
??_C@_1HA@FACCKGGH@?$AA?$CC?$AAn?$AAu?$AAl?$AAl?$AA?5?$AAp?$AAo?$AAi?$AAn?$AAt?$AAe?$AAr?$AA?5?$AAc@ DB '"'
	DB	00H, 'n', 00H, 'u', 00H, 'l', 00H, 'l', 00H, ' ', 00H, 'p', 00H
	DB	'o', 00H, 'i', 00H, 'n', 00H, 't', 00H, 'e', 00H, 'r', 00H, ' '
	DB	00H, 'c', 00H, 'a', 00H, 'n', 00H, 'n', 00H, 'o', 00H, 't', 00H
	DB	' ', 00H, 'p', 00H, 'o', 00H, 'i', 00H, 'n', 00H, 't', 00H, ' '
	DB	00H, 't', 00H, 'o', 00H, ' ', 00H, 'a', 00H, ' ', 00H, 'b', 00H
	DB	'l', 00H, 'o', 00H, 'c', 00H, 'k', 00H, ' ', 00H, 'o', 00H, 'f'
	DB	00H, ' ', 00H, 'n', 00H, 'o', 00H, 'n', 00H, '-', 00H, 'z', 00H
	DB	'e', 00H, 'r', 00H, 'o', 00H, ' ', 00H, 's', 00H, 'i', 00H, 'z'
	DB	00H, 'e', 00H, '"', 00H, 00H, 00H		; `string'
CONST	ENDS
;	COMDAT ??_C@_0DG@KGHKKGBC@null?5pointer?5cannot?5point?5to?5a?5@
CONST	SEGMENT
??_C@_0DG@KGHKKGBC@null?5pointer?5cannot?5point?5to?5a?5@ DB 'null pointe'
	DB	'r cannot point to a block of non-zero size', 00H ; `string'
CONST	ENDS
;	COMDAT ??_C@_0N@LPFKKEBD@?3AM?3am?3PM?3pm@
CONST	SEGMENT
??_C@_0N@LPFKKEBD@?3AM?3am?3PM?3pm@ DB ':AM:am:PM:pm', 00H ; `string'
CONST	ENDS
;	COMDAT ??_C@_0BB@LCEDBKEJ@Execution?5time?3?5@
CONST	SEGMENT
??_C@_0BB@LCEDBKEJ@Execution?5time?3?5@ DB 'Execution time: ', 00H ; `string'
CONST	ENDS
;	COMDAT ??_C@_08GDFIMAAO@?5minutes@
CONST	SEGMENT
??_C@_08GDFIMAAO@?5minutes@ DB ' minutes', 00H		; `string'
CONST	ENDS
;	COMDAT ??_C@_0BB@OBBOOBAB@Count?5of?5files?3?5@
CONST	SEGMENT
??_C@_0BB@OBBOOBAB@Count?5of?5files?3?5@ DB 'Count of files: ', 00H ; `string'
CONST	ENDS
;	COMDAT ??_C@_01EEMJAFIK@?6@
CONST	SEGMENT
??_C@_01EEMJAFIK@?6@ DB 0aH, 00H			; `string'
CONST	ENDS
;	COMDAT ??_C@_0BH@CNNLBLI@Total?5directory?5size?3?5@
CONST	SEGMENT
??_C@_0BH@CNNLBLI@Total?5directory?5size?3?5@ DB 'Total directory size: ', 00H ; `string'
CONST	ENDS
;	COMDAT ??_C@_04IAOMPPPM@?5mb?6@
CONST	SEGMENT
??_C@_04IAOMPPPM@?5mb?6@ DB ' mb', 0aH, 00H		; `string'
CONST	ENDS
;	COMDAT ??_C@_0BK@BEABPPAF@Brutforcing?5now?4?4?4?5using?5@
CONST	SEGMENT
??_C@_0BK@BEABPPAF@Brutforcing?5now?4?4?4?5using?5@ DB 'Brutforcing now..'
	DB	'. using ', 00H				; `string'
CONST	ENDS
;	COMDAT ??_C@_09GCOJOCEP@?5threads?6@
CONST	SEGMENT
??_C@_09GCOJOCEP@?5threads?6@ DB ' threads', 0aH, 00H	; `string'
CONST	ENDS
;	COMDAT ??_C@_0BJ@OOIMIEOI@Type?5count?5of?5threads?6?9?$DO@
CONST	SEGMENT
??_C@_0BJ@OOIMIEOI@Type?5count?5of?5threads?6?9?$DO@ DB 'Type count of th'
	DB	'reads', 0aH, '->', 00H			; `string'
CONST	ENDS
;	COMDAT ??_C@_0BE@DHIDOINI@Type?5target?5line?6?9?$DO@
CONST	SEGMENT
??_C@_0BE@DHIDOINI@Type?5target?5line?6?9?$DO@ DB 'Type target line', 0aH
	DB	'->', 00H					; `string'
CONST	ENDS
;	COMDAT ??_C@_0DE@FJKPEFHF@Select?5directory?5with?5?4txt?5pass@
CONST	SEGMENT
??_C@_0DE@FJKPEFHF@Select?5directory?5with?5?4txt?5pass@ DB 'Select direc'
	DB	'tory with .txt password dictionaries', 0aH, '->', 00H ; `string'
CONST	ENDS
;	COMDAT ??_C@_0GC@OOHEPMDG@C?3?2Program?5Files?2Microsoft?5Visu@
CONST	SEGMENT
??_C@_0GC@OOHEPMDG@C?3?2Program?5Files?2Microsoft?5Visu@ DB 'C:\Program F'
	DB	'iles\Microsoft Visual Studio\2022\Community\VC\Tools\MSVC\14.'
	DB	'38.33130\include\xlocnum', 00H		; `string'
CONST	ENDS
;	COMDAT ?__LINE__Var@?0??_Maklocwcs@std@@YAPEA_WPEB_W@Z@4JA
_DATA	SEGMENT
?__LINE__Var@?0??_Maklocwcs@std@@YAPEA_WPEB_W@Z@4JA DD 047H ; `std::_Maklocwcs'::`1'::__LINE__Var
_DATA	ENDS
;	COMDAT ??_C@_00CNPNBAHC@@
CONST	SEGMENT
??_C@_00CNPNBAHC@@ DB 00H				; `string'
CONST	ENDS
;	COMDAT ??_C@_0GC@GNDJPOJH@C?3?2Program?5Files?2Microsoft?5Visu@
CONST	SEGMENT
??_C@_0GC@GNDJPOJH@C?3?2Program?5Files?2Microsoft?5Visu@ DB 'C:\Program F'
	DB	'iles\Microsoft Visual Studio\2022\Community\VC\Tools\MSVC\14.'
	DB	'38.33130\include\xlocale', 00H		; `string'
CONST	ENDS
;	COMDAT _CT??_R0?AVbad_cast@std@@@8??0bad_cast@std@@QEAA@AEBV01@@Z24
xdata$x	SEGMENT
_CT??_R0?AVbad_cast@std@@@8??0bad_cast@std@@QEAA@AEBV01@@Z24 DD 00H
	DD	imagerel ??_R0?AVbad_cast@std@@@8
	DD	00H
	DD	0ffffffffH
	ORG $+4
	DD	018H
	DD	imagerel ??0bad_cast@std@@QEAA@AEBV01@@Z
xdata$x	ENDS
;	COMDAT ??_R0?AVbad_cast@std@@@8
data$r	SEGMENT
??_R0?AVbad_cast@std@@@8 DQ FLAT:??_7type_info@@6B@	; std::bad_cast `RTTI Type Descriptor'
	DQ	0000000000000000H
	DB	'.?AVbad_cast@std@@', 00H
data$r	ENDS
;	COMDAT _CTA2?AVbad_cast@std@@
xdata$x	SEGMENT
_CTA2?AVbad_cast@std@@ DD 02H
	DD	imagerel _CT??_R0?AVbad_cast@std@@@8??0bad_cast@std@@QEAA@AEBV01@@Z24
	DD	imagerel _CT??_R0?AVexception@std@@@8??0exception@std@@QEAA@AEBV01@@Z24
xdata$x	ENDS
;	COMDAT _TI2?AVbad_cast@std@@
xdata$x	SEGMENT
_TI2?AVbad_cast@std@@ DD 00H
	DD	imagerel ??1bad_cast@std@@UEAA@XZ
	DD	00H
	DD	imagerel _CTA2?AVbad_cast@std@@
xdata$x	ENDS
;	COMDAT ??_C@_08EPJLHIJG@bad?5cast@
CONST	SEGMENT
??_C@_08EPJLHIJG@bad?5cast@ DB 'bad cast', 00H		; `string'
CONST	ENDS
;	COMDAT ??_7bad_cast@std@@6B@
CONST	SEGMENT
??_7bad_cast@std@@6B@ DQ FLAT:??_R4bad_cast@std@@6B@	; std::bad_cast::`vftable'
	DQ	FLAT:??_Ebad_cast@std@@UEAAPEAXI@Z
	DQ	FLAT:?what@exception@std@@UEBAPEBDXZ
CONST	ENDS
;	COMDAT ??_C@_0BA@JFNIOLAK@string?5too?5long@
CONST	SEGMENT
??_C@_0BA@JFNIOLAK@string?5too?5long@ DB 'string too long', 00H ; `string'
CONST	ENDS
;	COMDAT ??_C@_1CG@JNLFBNGN@?$AA?$CC?$AAi?$AAn?$AAv?$AAa?$AAl?$AAi?$AAd?$AA?5?$AAa?$AAr?$AAg?$AAu?$AAm?$AAe@
CONST	SEGMENT
??_C@_1CG@JNLFBNGN@?$AA?$CC?$AAi?$AAn?$AAv?$AAa?$AAl?$AAi?$AAd?$AA?5?$AAa?$AAr?$AAg?$AAu?$AAm?$AAe@ DB '"'
	DB	00H, 'i', 00H, 'n', 00H, 'v', 00H, 'a', 00H, 'l', 00H, 'i', 00H
	DB	'd', 00H, ' ', 00H, 'a', 00H, 'r', 00H, 'g', 00H, 'u', 00H, 'm'
	DB	00H, 'e', 00H, 'n', 00H, 't', 00H, '"', 00H, 00H, 00H ; `string'
CONST	ENDS
;	COMDAT ??_C@_11LOCGONAA@@
CONST	SEGMENT
??_C@_11LOCGONAA@@ DB 00H, 00H				; `string'
CONST	ENDS
;	COMDAT ??_C@_1ME@HBHJKKLJ@?$AAC?$AA?3?$AA?2?$AAP?$AAr?$AAo?$AAg?$AAr?$AAa?$AAm?$AA?5?$AAF?$AAi?$AAl?$AAe@
CONST	SEGMENT
??_C@_1ME@HBHJKKLJ@?$AAC?$AA?3?$AA?2?$AAP?$AAr?$AAo?$AAg?$AAr?$AAa?$AAm?$AA?5?$AAF?$AAi?$AAl?$AAe@ DB 'C'
	DB	00H, ':', 00H, '\', 00H, 'P', 00H, 'r', 00H, 'o', 00H, 'g', 00H
	DB	'r', 00H, 'a', 00H, 'm', 00H, ' ', 00H, 'F', 00H, 'i', 00H, 'l'
	DB	00H, 'e', 00H, 's', 00H, '\', 00H, 'M', 00H, 'i', 00H, 'c', 00H
	DB	'r', 00H, 'o', 00H, 's', 00H, 'o', 00H, 'f', 00H, 't', 00H, ' '
	DB	00H, 'V', 00H, 'i', 00H, 's', 00H, 'u', 00H, 'a', 00H, 'l', 00H
	DB	' ', 00H, 'S', 00H, 't', 00H, 'u', 00H, 'd', 00H, 'i', 00H, 'o'
	DB	00H, '\', 00H, '2', 00H, '0', 00H, '2', 00H, '2', 00H, '\', 00H
	DB	'C', 00H, 'o', 00H, 'm', 00H, 'm', 00H, 'u', 00H, 'n', 00H, 'i'
	DB	00H, 't', 00H, 'y', 00H, '\', 00H, 'V', 00H, 'C', 00H, '\', 00H
	DB	'T', 00H, 'o', 00H, 'o', 00H, 'l', 00H, 's', 00H, '\', 00H, 'M'
	DB	00H, 'S', 00H, 'V', 00H, 'C', 00H, '\', 00H, '1', 00H, '4', 00H
	DB	'.', 00H, '3', 00H, '8', 00H, '.', 00H, '3', 00H, '3', 00H, '1'
	DB	00H, '3', 00H, '0', 00H, '\', 00H, 'i', 00H, 'n', 00H, 'c', 00H
	DB	'l', 00H, 'u', 00H, 'd', 00H, 'e', 00H, '\', 00H, 'x', 00H, 'm'
	DB	00H, 'e', 00H, 'm', 00H, 'o', 00H, 'r', 00H, 'y', 00H, 00H, 00H ; `string'
CONST	ENDS
;	COMDAT ??_C@_0GC@MFPFMMDA@C?3?2Program?5Files?2Microsoft?5Visu@
CONST	SEGMENT
??_C@_0GC@MFPFMMDA@C?3?2Program?5Files?2Microsoft?5Visu@ DB 'C:\Program F'
	DB	'iles\Microsoft Visual Studio\2022\Community\VC\Tools\MSVC\14.'
	DB	'38.33130\include\xmemory', 00H		; `string'
CONST	ENDS
;	COMDAT ??_C@_02DKCKIIND@?$CFs@
CONST	SEGMENT
??_C@_02DKCKIIND@?$CFs@ DB '%s', 00H			; `string'
CONST	ENDS
;	COMDAT ??_C@_0BB@FCMFBGOM@invalid?5argument@
CONST	SEGMENT
??_C@_0BB@FCMFBGOM@invalid?5argument@ DB 'invalid argument', 00H ; `string'
CONST	ENDS
;	COMDAT ?__LINE__Var@?0??_Adjust_manually_vector_aligned@std@@YAXAEAPEAXAEA_K@Z@4JA
_DATA	SEGMENT
?__LINE__Var@?0??_Adjust_manually_vector_aligned@std@@YAXAEAPEAXAEA_K@Z@4JA DD 09aH ; `std::_Adjust_manually_vector_aligned'::`1'::__LINE__Var
_DATA	ENDS
;	COMDAT _CT??_R0?AVexception@std@@@8??0exception@std@@QEAA@AEBV01@@Z24
xdata$x	SEGMENT
_CT??_R0?AVexception@std@@@8??0exception@std@@QEAA@AEBV01@@Z24 DD 00H
	DD	imagerel ??_R0?AVexception@std@@@8
	DD	00H
	DD	0ffffffffH
	ORG $+4
	DD	018H
	DD	imagerel ??0exception@std@@QEAA@AEBV01@@Z
xdata$x	ENDS
;	COMDAT ??_R0?AVexception@std@@@8
data$r	SEGMENT
??_R0?AVexception@std@@@8 DQ FLAT:??_7type_info@@6B@	; std::exception `RTTI Type Descriptor'
	DQ	0000000000000000H
	DB	'.?AVexception@std@@', 00H
data$r	ENDS
;	COMDAT _CT??_R0?AVbad_alloc@std@@@8??0bad_alloc@std@@QEAA@AEBV01@@Z24
xdata$x	SEGMENT
_CT??_R0?AVbad_alloc@std@@@8??0bad_alloc@std@@QEAA@AEBV01@@Z24 DD 010H
	DD	imagerel ??_R0?AVbad_alloc@std@@@8
	DD	00H
	DD	0ffffffffH
	ORG $+4
	DD	018H
	DD	imagerel ??0bad_alloc@std@@QEAA@AEBV01@@Z
xdata$x	ENDS
;	COMDAT ??_R0?AVbad_alloc@std@@@8
data$r	SEGMENT
??_R0?AVbad_alloc@std@@@8 DQ FLAT:??_7type_info@@6B@	; std::bad_alloc `RTTI Type Descriptor'
	DQ	0000000000000000H
	DB	'.?AVbad_alloc@std@@', 00H
data$r	ENDS
;	COMDAT _CT??_R0?AVbad_array_new_length@std@@@8??0bad_array_new_length@std@@QEAA@AEBV01@@Z24
xdata$x	SEGMENT
_CT??_R0?AVbad_array_new_length@std@@@8??0bad_array_new_length@std@@QEAA@AEBV01@@Z24 DD 00H
	DD	imagerel ??_R0?AVbad_array_new_length@std@@@8
	DD	00H
	DD	0ffffffffH
	ORG $+4
	DD	018H
	DD	imagerel ??0bad_array_new_length@std@@QEAA@AEBV01@@Z
xdata$x	ENDS
;	COMDAT ??_R0?AVbad_array_new_length@std@@@8
data$r	SEGMENT
??_R0?AVbad_array_new_length@std@@@8 DQ FLAT:??_7type_info@@6B@ ; std::bad_array_new_length `RTTI Type Descriptor'
	DQ	0000000000000000H
	DB	'.?AVbad_array_new_length@std@@', 00H
data$r	ENDS
;	COMDAT _CTA3?AVbad_array_new_length@std@@
xdata$x	SEGMENT
_CTA3?AVbad_array_new_length@std@@ DD 03H
	DD	imagerel _CT??_R0?AVbad_array_new_length@std@@@8??0bad_array_new_length@std@@QEAA@AEBV01@@Z24
	DD	imagerel _CT??_R0?AVbad_alloc@std@@@8??0bad_alloc@std@@QEAA@AEBV01@@Z24
	DD	imagerel _CT??_R0?AVexception@std@@@8??0exception@std@@QEAA@AEBV01@@Z24
xdata$x	ENDS
;	COMDAT _TI3?AVbad_array_new_length@std@@
xdata$x	SEGMENT
_TI3?AVbad_array_new_length@std@@ DD 00H
	DD	imagerel ??1bad_array_new_length@std@@UEAA@XZ
	DD	00H
	DD	imagerel _CTA3?AVbad_array_new_length@std@@
xdata$x	ENDS
;	COMDAT ??_C@_0BF@KINCDENJ@bad?5array?5new?5length@
CONST	SEGMENT
??_C@_0BF@KINCDENJ@bad?5array?5new?5length@ DB 'bad array new length', 00H ; `string'
CONST	ENDS
;	COMDAT ??_7bad_array_new_length@std@@6B@
CONST	SEGMENT
??_7bad_array_new_length@std@@6B@ DQ FLAT:??_R4bad_array_new_length@std@@6B@ ; std::bad_array_new_length::`vftable'
	DQ	FLAT:??_Ebad_array_new_length@std@@UEAAPEAXI@Z
	DQ	FLAT:?what@exception@std@@UEBAPEBDXZ
CONST	ENDS
;	COMDAT ??_7bad_alloc@std@@6B@
CONST	SEGMENT
??_7bad_alloc@std@@6B@ DQ FLAT:??_R4bad_alloc@std@@6B@	; std::bad_alloc::`vftable'
	DQ	FLAT:??_Ebad_alloc@std@@UEAAPEAXI@Z
	DQ	FLAT:?what@exception@std@@UEBAPEBDXZ
CONST	ENDS
;	COMDAT ??_C@_0BC@EOODALEL@Unknown?5exception@
CONST	SEGMENT
??_C@_0BC@EOODALEL@Unknown?5exception@ DB 'Unknown exception', 00H ; `string'
CONST	ENDS
;	COMDAT ??_7exception@std@@6B@
CONST	SEGMENT
??_7exception@std@@6B@ DQ FLAT:??_R4exception@std@@6B@	; std::exception::`vftable'
	DQ	FLAT:??_Eexception@std@@UEAAPEAXI@Z
	DQ	FLAT:?what@exception@std@@UEBAPEBDXZ
CONST	ENDS
;	COMDAT xdata
xdata	SEGMENT
$unwind$??$_Allocate_manually_vector_aligned@U_Default_allocate_traits@std@@@std@@YAPEAX_K@Z DD 035051301H
	DD	010e3313H
	DD	07007002bH
	DD	05006H
xdata	ENDS
;	COMDAT xdata
xdata	SEGMENT
$unwind$??$destroy_at@Ufile_task@@@std@@YAXQEAUfile_task@@@Z DD 025051301H
	DD	010e2313H
	DD	07007001dH
	DD	05006H
xdata	ENDS
;	COMDAT xdata
xdata	SEGMENT
$unwind$??$construct_at@PEADAEBQEAD$0A@@std@@YAPEAPEADQEAPEADAEBQEAD@Z DD 025051801H
	DD	01132318H
	DD	0700c0021H
	DD	0500bH
xdata	ENDS
;	COMDAT xdata
xdata	SEGMENT
$unwind$??$construct_at@D$$V$0A@@std@@YAPEADQEAD@Z DD 025051301H
	DD	010e2313H
	DD	070070025H
	DD	05006H
xdata	ENDS
;	COMDAT xdata
xdata	SEGMENT
$unwind$?deallocate@?$_Default_allocator_traits@V?$allocator@U_Container_proxy@std@@@std@@@std@@SAXAEAV?$allocator@U_Container_proxy@std@@@2@QEAU_Container_proxy@2@_K@Z DD 025051d01H
	DD	0118231dH
	DD	07011001dH
	DD	05010H
xdata	ENDS
;	COMDAT xdata
xdata	SEGMENT
$unwind$??$?0AEAPEAV_Facet_base@std@@@?$_Compressed_pair@U?$default_delete@V_Facet_base@std@@@std@@PEAV_Facet_base@2@$00@std@@QEAA@U_Zero_then_variadic_args_t@1@AEAPEAV_Facet_base@1@@Z DD 025051c01H
	DD	0117231cH
	DD	07010001dH
	DD	0500fH
xdata	ENDS
;	COMDAT xdata
xdata	SEGMENT
$unwind$??$_Get_size_of_n@$00@std@@YA_K_K@Z DD 025051301H
	DD	010e2313H
	DD	070070021H
	DD	05006H
xdata	ENDS
;	COMDAT xdata
xdata	SEGMENT
$unwind$??$_Allocate@$0BA@U_Default_allocate_traits@std@@$0A@@std@@YAPEAX_K@Z DD 025051301H
	DD	010e2313H
	DD	07007001dH
	DD	05006H
xdata	ENDS
;	COMDAT xdata
xdata	SEGMENT
$unwind$??$_Get_size_of_n@$0BA@@std@@YA_K_K@Z DD 025051301H
	DD	010e2313H
	DD	070070025H
	DD	05006H
xdata	ENDS
;	COMDAT xdata
xdata	SEGMENT
$unwind$??$exchange@PEAV_Facet_base@std@@$$T@std@@YAPEAV_Facet_base@0@AEAPEAV10@$$QEA$$T@Z DD 025051801H
	DD	01132318H
	DD	0700c0021H
	DD	0500bH
xdata	ENDS
;	COMDAT xdata
xdata	SEGMENT
$unwind$??$addressof@PEAD@std@@YAPEAPEADAEAPEAD@Z DD 025051301H
	DD	010e2313H
	DD	07007001dH
	DD	05006H
xdata	ENDS
;	COMDAT xdata
xdata	SEGMENT
$unwind$??$destroy@Ufile_task@@@?$_Default_allocator_traits@V?$allocator@Ufile_task@@@std@@@std@@SAXAEAV?$allocator@Ufile_task@@@1@QEAUfile_task@@@Z DD 025051801H
	DD	01132318H
	DD	0700c001dH
	DD	0500bH
xdata	ENDS
;	COMDAT xdata
xdata	SEGMENT
$unwind$??$_Unfancy@Ufile_task@@@std@@YAPEAUfile_task@@PEAU1@@Z DD 025051301H
	DD	010e2313H
	DD	07007001dH
	DD	05006H
xdata	ENDS
;	COMDAT xdata
xdata	SEGMENT
$unwind$??$_Construct_in_place@PEADAEBQEAD@std@@YAXAEAPEADAEBQEAD@Z DD 025051801H
	DD	01132318H
	DD	0700c0021H
	DD	0500bH
xdata	ENDS
;	COMDAT xdata
xdata	SEGMENT
$unwind$??$_Allocate_for_capacity@$0A@@?$basic_string@DU?$char_traits@D@std@@V?$allocator@D@2@@std@@CAPEADAEAV?$allocator@D@1@AEA_K@Z DD 025051801H
	DD	01132318H
	DD	0700c0029H
	DD	0500bH
xdata	ENDS
;	COMDAT xdata
xdata	SEGMENT
$unwind$??1?$_Container_proxy_ptr12@V?$allocator@U_Container_proxy@std@@@std@@@std@@QEAA@XZ DD 025051301H
	DD	010e2313H
	DD	07007001dH
	DD	05006H
xdata	ENDS
;	COMDAT xdata
xdata	SEGMENT
$unwind$??0?$_Container_proxy_ptr12@V?$allocator@U_Container_proxy@std@@@std@@@std@@QEAA@AEAV?$allocator@U_Container_proxy@std@@@1@AEAU_Container_base12@1@@Z DD 025051d01H
	DD	0118231dH
	DD	070110021H
	DD	05010H
xdata	ENDS
;	COMDAT xdata
xdata	SEGMENT
$unwind$??$_Unfancy@U_Container_proxy@std@@@std@@YAPEAU_Container_proxy@0@PEAU10@@Z DD 025051301H
	DD	010e2313H
	DD	07007001dH
	DD	05006H
xdata	ENDS
;	COMDAT xdata
xdata	SEGMENT
$ip2state$??$_Deallocate_plain@V?$allocator@U_Container_proxy@std@@@std@@@std@@YAXAEAV?$allocator@U_Container_proxy@std@@@0@QEAU_Container_proxy@0@@Z DB 02H
	DB	00H
	DB	00H
xdata	ENDS
;	COMDAT xdata
xdata	SEGMENT
$cppxdata$??$_Deallocate_plain@V?$allocator@U_Container_proxy@std@@@std@@@std@@YAXAEAV?$allocator@U_Container_proxy@std@@@0@QEAU_Container_proxy@0@@Z DB 060H
	DD	imagerel $ip2state$??$_Deallocate_plain@V?$allocator@U_Container_proxy@std@@@std@@@std@@YAXAEAV?$allocator@U_Container_proxy@std@@@0@QEAU_Container_proxy@0@@Z
xdata	ENDS
;	COMDAT xdata
xdata	SEGMENT
$unwind$??$_Deallocate_plain@V?$allocator@U_Container_proxy@std@@@std@@@std@@YAXAEAV?$allocator@U_Container_proxy@std@@@0@QEAU_Container_proxy@0@@Z DD 025051819H
	DD	01132318H
	DD	0700c001dH
	DD	0500bH
	DD	imagerel __CxxFrameHandler4
	DD	imagerel $cppxdata$??$_Deallocate_plain@V?$allocator@U_Container_proxy@std@@@std@@@std@@YAXAEAV?$allocator@U_Container_proxy@std@@@0@QEAU_Container_proxy@0@@Z
xdata	ENDS
;	COMDAT xdata
xdata	SEGMENT
$unwind$??$?G_JU?$ratio@$00$0DLJKMKAA@@std@@_JU01@@chrono@std@@YA?AV?$duration@_JU?$ratio@$00$0DLJKMKAA@@std@@@01@AEBV201@0@Z DD 025051d01H
	DD	0118231dH
	DD	070110029H
	DD	05010H
xdata	ENDS
;	COMDAT xdata
xdata	SEGMENT
$unwind$??1sentry@?$basic_istream@DU?$char_traits@D@std@@@std@@QEAA@XZ DD 025051301H
	DD	010e2313H
	DD	07007001dH
	DD	05006H
xdata	ENDS
;	COMDAT xdata
xdata	SEGMENT
$unwind$??Bsentry@?$basic_istream@DU?$char_traits@D@std@@@std@@QEBA_NXZ DD 025051301H
	DD	010e2313H
	DD	07007001dH
	DD	05006H
xdata	ENDS
;	COMDAT voltbl
voltbl	SEGMENT
_volmd	DB	00H
	DB	05H
voltbl	ENDS
;	COMDAT xdata
xdata	SEGMENT
$unwind$?dtor$0@?0???0sentry@?$basic_istream@DU?$char_traits@D@std@@@std@@QEAA@AEAV12@_N@Z@4HA DD 031001H
	DD	0700c4210H
	DD	0500bH
xdata	ENDS
;	COMDAT xdata
xdata	SEGMENT
$ip2state$??0sentry@?$basic_istream@DU?$char_traits@D@std@@@std@@QEAA@AEAV12@_N@Z DB 06H
	DB	00H
	DB	00H
	DB	'z'
	DB	02H
	DB	'^'
	DB	00H
xdata	ENDS
;	COMDAT xdata
xdata	SEGMENT
$stateUnwindMap$??0sentry@?$basic_istream@DU?$char_traits@D@std@@@std@@QEAA@AEAV12@_N@Z DB 02H
	DB	0eH
	DD	imagerel ?dtor$0@?0???0sentry@?$basic_istream@DU?$char_traits@D@std@@@std@@QEAA@AEAV12@_N@Z@4HA
xdata	ENDS
;	COMDAT xdata
xdata	SEGMENT
$cppxdata$??0sentry@?$basic_istream@DU?$char_traits@D@std@@@std@@QEAA@AEAV12@_N@Z DB 028H
	DD	imagerel $stateUnwindMap$??0sentry@?$basic_istream@DU?$char_traits@D@std@@@std@@QEAA@AEAV12@_N@Z
	DD	imagerel $ip2state$??0sentry@?$basic_istream@DU?$char_traits@D@std@@@std@@QEAA@AEAV12@_N@Z
xdata	ENDS
;	COMDAT xdata
xdata	SEGMENT
$unwind$??0sentry@?$basic_istream@DU?$char_traits@D@std@@@std@@QEAA@AEAV12@_N@Z DD 025051d11H
	DD	0118231dH
	DD	07011001fH
	DD	05010H
	DD	imagerel __CxxFrameHandler4
	DD	imagerel $cppxdata$??0sentry@?$basic_istream@DU?$char_traits@D@std@@@std@@QEAA@AEAV12@_N@Z
xdata	ENDS
;	COMDAT xdata
xdata	SEGMENT
$ip2state$??1_Sentry_base@?$basic_istream@DU?$char_traits@D@std@@@std@@QEAA@XZ DB 02H
	DB	00H
	DB	00H
xdata	ENDS
;	COMDAT xdata
xdata	SEGMENT
$cppxdata$??1_Sentry_base@?$basic_istream@DU?$char_traits@D@std@@@std@@QEAA@XZ DB 060H
	DD	imagerel $ip2state$??1_Sentry_base@?$basic_istream@DU?$char_traits@D@std@@@std@@QEAA@XZ
xdata	ENDS
;	COMDAT xdata
xdata	SEGMENT
$unwind$??1_Sentry_base@?$basic_istream@DU?$char_traits@D@std@@@std@@QEAA@XZ DD 025051319H
	DD	010e2313H
	DD	070070021H
	DD	05006H
	DD	imagerel __CxxFrameHandler4
	DD	imagerel $cppxdata$??1_Sentry_base@?$basic_istream@DU?$char_traits@D@std@@@std@@QEAA@XZ
xdata	ENDS
;	COMDAT xdata
xdata	SEGMENT
$unwind$??0_Sentry_base@?$basic_istream@DU?$char_traits@D@std@@@std@@QEAA@AEAV12@@Z DD 025051801H
	DD	01132318H
	DD	0700c0021H
	DD	0500bH
xdata	ENDS
;	COMDAT xdata
xdata	SEGMENT
$unwind$??$?0U?$default_delete@V_Facet_base@std@@@std@@$0A@@?$unique_ptr@V_Facet_base@std@@U?$default_delete@V_Facet_base@std@@@2@@std@@QEAA@PEAV_Facet_base@1@@Z DD 025051801H
	DD	01132318H
	DD	0700c0021H
	DD	0500bH
xdata	ENDS
;	COMDAT xdata
xdata	SEGMENT
$unwind$?__autoclassinit2@?$unique_ptr@V_Facet_base@std@@U?$default_delete@V_Facet_base@std@@@2@@std@@QEAAX_K@Z DD 05051601H
	DD	01130316H
	DD	0700c0019H
	DD	0500bH
xdata	ENDS
;	COMDAT xdata
xdata	SEGMENT
$unwind$?_Get_first@?$_Compressed_pair@U?$default_delete@V_Facet_base@std@@@std@@PEAV_Facet_base@2@$00@std@@QEAAAEAU?$default_delete@V_Facet_base@std@@@2@XZ DD 025051301H
	DD	010e2313H
	DD	07007001dH
	DD	05006H
xdata	ENDS
;	COMDAT xdata
xdata	SEGMENT
$unwind$?release@?$unique_ptr@V_Facet_base@std@@U?$default_delete@V_Facet_base@std@@@2@@std@@QEAAPEAV_Facet_base@2@XZ DD 025051301H
	DD	010e2313H
	DD	070070021H
	DD	05006H
xdata	ENDS
;	COMDAT xdata
xdata	SEGMENT
$unwind$??1?$unique_ptr@V_Facet_base@std@@U?$default_delete@V_Facet_base@std@@@2@@std@@QEAA@XZ DD 025051301H
	DD	010e2313H
	DD	07007001fH
	DD	05006H
xdata	ENDS
;	COMDAT xdata
xdata	SEGMENT
$unwind$??R?$default_delete@V_Facet_base@std@@@std@@QEBAXPEAV_Facet_base@1@@Z DD 025051801H
	DD	01132318H
	DD	0700c0023H
	DD	0500bH
xdata	ENDS
;	COMDAT xdata
xdata	SEGMENT
$unwind$??$construct_at@U_Container_proxy@std@@PEAU_Container_base12@2@$0A@@std@@YAPEAU_Container_proxy@0@QEAU10@$$QEAPEAU_Container_base12@0@@Z DD 025051801H
	DD	01132318H
	DD	0700c0021H
	DD	0500bH
xdata	ENDS
;	COMDAT xdata
xdata	SEGMENT
$unwind$??$addressof@U_Container_proxy@std@@@std@@YAPEAU_Container_proxy@0@AEAU10@@Z DD 025051301H
	DD	010e2313H
	DD	07007001dH
	DD	05006H
xdata	ENDS
;	COMDAT xdata
xdata	SEGMENT
$unwind$??$construct_at@DAEBD$0A@@std@@YAPEADQEADAEBD@Z DD 025051801H
	DD	01132318H
	DD	0700c0021H
	DD	0500bH
xdata	ENDS
;	COMDAT xdata
xdata	SEGMENT
$ip2state$??$_Deallocate@$0BA@$0A@@std@@YAXPEAX_K@Z DB 02H
	DB	00H
	DB	00H
xdata	ENDS
;	COMDAT xdata
xdata	SEGMENT
$cppxdata$??$_Deallocate@$0BA@$0A@@std@@YAXPEAX_K@Z DB 060H
	DD	imagerel $ip2state$??$_Deallocate@$0BA@$0A@@std@@YAXPEAX_K@Z
xdata	ENDS
;	COMDAT xdata
xdata	SEGMENT
$unwind$??$_Deallocate@$0BA@$0A@@std@@YAXPEAX_K@Z DD 025051819H
	DD	01132318H
	DD	0700c001dH
	DD	0500bH
	DD	imagerel __CxxFrameHandler4
	DD	imagerel $cppxdata$??$_Deallocate@$0BA@$0A@@std@@YAXPEAX_K@Z
xdata	ENDS
;	COMDAT voltbl
voltbl	SEGMENT
_volmd	DW	045H
	DW	01f9H
voltbl	ENDS
;	COMDAT xdata
xdata	SEGMENT
$unwind$??$_Reallocate_grow_by@V<lambda_1>@?1??push_back@?$basic_string@DU?$char_traits@D@std@@V?$allocator@D@2@@std@@QEAAXD@Z@D@?$basic_string@DU?$char_traits@D@std@@V?$allocator@D@2@@std@@AEAAAEAV01@_KV<lambda_1>@?1??push_back@01@QEAAXD@Z@D@Z DD 035054c19H
	DD	011d3322H
	DD	070160043H
	DD	05015H
	DD	imagerel __GSHandlerCheck
	DD	0208H
xdata	ENDS
;	COMDAT CONST
CONST	SEGMENT
??$_Reallocate_grow_by@V<lambda_1>@?1??push_back@?$basic_string@DU?$char_traits@D@std@@V?$allocator@D@2@@std@@QEAAXD@Z@D@?$basic_string@DU?$char_traits@D@std@@V?$allocator@D@2@@std@@AEAAAEAV01@_KV<lambda_1>@?1??push_back@01@QEAAXD@Z@D@Z$rtcName$0 DB 05fH ; std::basic_string<char,std::char_traits<char>,std::allocator<char> >::_Reallocate_grow_by<`std::basic_string<char,std::char_traits<char>,std::allocator<char> >::push_back'::`2'::<lambda_1>,char>
	DB	04eH
	DB	065H
	DB	077H
	DB	05fH
	DB	063H
	DB	061H
	DB	070H
	DB	061H
	DB	063H
	DB	069H
	DB	074H
	DB	079H
	DB	00H
	ORG $+2
??$_Reallocate_grow_by@V<lambda_1>@?1??push_back@?$basic_string@DU?$char_traits@D@std@@V?$allocator@D@2@@std@@QEAAXD@Z@D@?$basic_string@DU?$char_traits@D@std@@V?$allocator@D@2@@std@@AEAAAEAV01@_KV<lambda_1>@?1??push_back@01@QEAAXD@Z@D@Z$rtcName$1 DB 05fH ; std::basic_string<char,std::char_traits<char>,std::allocator<char> >::_Reallocate_grow_by<`std::basic_string<char,std::char_traits<char>,std::allocator<char> >::push_back'::`2'::<lambda_1>,char>
	DB	04eH
	DB	065H
	DB	077H
	DB	05fH
	DB	070H
	DB	074H
	DB	072H
	DB	00H
	ORG $+7
??$_Reallocate_grow_by@V<lambda_1>@?1??push_back@?$basic_string@DU?$char_traits@D@std@@V?$allocator@D@2@@std@@QEAAXD@Z@D@?$basic_string@DU?$char_traits@D@std@@V?$allocator@D@2@@std@@AEAAAEAV01@_KV<lambda_1>@?1??push_back@01@QEAAXD@Z@D@Z$rtcVarDesc DD 0f8H ; std::basic_string<char,std::char_traits<char>,std::allocator<char> >::_Reallocate_grow_by<`std::basic_string<char,std::char_traits<char>,std::allocator<char> >::push_back'::`2'::<lambda_1>,char>
	DD	08H
	DQ	FLAT:??$_Reallocate_grow_by@V<lambda_1>@?1??push_back@?$basic_string@DU?$char_traits@D@std@@V?$allocator@D@2@@std@@QEAAXD@Z@D@?$basic_string@DU?$char_traits@D@std@@V?$allocator@D@2@@std@@AEAAAEAV01@_KV<lambda_1>@?1??push_back@01@QEAAXD@Z@D@Z$rtcName$1
	DD	0b8H
	DD	08H
	DQ	FLAT:??$_Reallocate_grow_by@V<lambda_1>@?1??push_back@?$basic_string@DU?$char_traits@D@std@@V?$allocator@D@2@@std@@QEAAXD@Z@D@?$basic_string@DU?$char_traits@D@std@@V?$allocator@D@2@@std@@AEAAAEAV01@_KV<lambda_1>@?1??push_back@01@QEAAXD@Z@D@Z$rtcName$0
	ORG $+96
??$_Reallocate_grow_by@V<lambda_1>@?1??push_back@?$basic_string@DU?$char_traits@D@std@@V?$allocator@D@2@@std@@QEAAXD@Z@D@?$basic_string@DU?$char_traits@D@std@@V?$allocator@D@2@@std@@AEAAAEAV01@_KV<lambda_1>@?1??push_back@01@QEAAXD@Z@D@Z$rtcFrameData DD 02H ; std::basic_string<char,std::char_traits<char>,std::allocator<char> >::_Reallocate_grow_by<`std::basic_string<char,std::char_traits<char>,std::allocator<char> >::push_back'::`2'::<lambda_1>,char>
	DD	00H
	DQ	FLAT:??$_Reallocate_grow_by@V<lambda_1>@?1??push_back@?$basic_string@DU?$char_traits@D@std@@V?$allocator@D@2@@std@@QEAAXD@Z@D@?$basic_string@DU?$char_traits@D@std@@V?$allocator@D@2@@std@@AEAAAEAV01@_KV<lambda_1>@?1??push_back@01@QEAAXD@Z@D@Z$rtcVarDesc
CONST	ENDS
;	COMDAT xdata
xdata	SEGMENT
$unwind$??R<lambda_1>@?1??push_back@?$basic_string@DU?$char_traits@D@std@@V?$allocator@D@2@@std@@QEAAXD@Z@QEBA@QEADQEBD_KD@Z DD 025052201H
	DD	011d2322H
	DD	070160021H
	DD	05015H
xdata	ENDS
;	COMDAT xdata
xdata	SEGMENT
$unwind$??$_Destroy_in_place@PEAD@std@@YAXAEAPEAD@Z DD 025051301H
	DD	010e2313H
	DD	07007001dH
	DD	05006H
xdata	ENDS
;	COMDAT xdata
xdata	SEGMENT
$ip2state$??$_Destroy_range@V?$allocator@Ufile_task@@@std@@@std@@YAXPEAUfile_task@@QEAU1@AEAV?$allocator@Ufile_task@@@0@@Z DB 02H
	DB	00H
	DB	00H
xdata	ENDS
;	COMDAT xdata
xdata	SEGMENT
$cppxdata$??$_Destroy_range@V?$allocator@Ufile_task@@@std@@@std@@YAXPEAUfile_task@@QEAU1@AEAV?$allocator@Ufile_task@@@0@@Z DB 060H
	DD	imagerel $ip2state$??$_Destroy_range@V?$allocator@Ufile_task@@@std@@@std@@YAXPEAUfile_task@@QEAU1@AEAV?$allocator@Ufile_task@@@0@@Z
xdata	ENDS
;	COMDAT xdata
xdata	SEGMENT
$unwind$??$_Destroy_range@V?$allocator@Ufile_task@@@std@@@std@@YAXPEAUfile_task@@QEAU1@AEAV?$allocator@Ufile_task@@@0@@Z DD 025051d19H
	DD	0118231dH
	DD	07011001dH
	DD	05010H
	DD	imagerel __CxxFrameHandler4
	DD	imagerel $cppxdata$??$_Destroy_range@V?$allocator@Ufile_task@@@std@@@std@@YAXPEAUfile_task@@QEAU1@AEAV?$allocator@Ufile_task@@@0@@Z
xdata	ENDS
;	COMDAT xdata
xdata	SEGMENT
$unwind$??$addressof@D@std@@YAPEADAEAD@Z DD 025051301H
	DD	010e2313H
	DD	07007001dH
	DD	05006H
xdata	ENDS
;	COMDAT voltbl
voltbl	SEGMENT
_volmd	DB	00H
	DB	05H
voltbl	ENDS
;	COMDAT voltbl
voltbl	SEGMENT
_volmd	DW	040H
	DW	01e3H
voltbl	ENDS
;	COMDAT xdata
xdata	SEGMENT
$unwind$?dtor$0@?0???$_Construct@$01PEBD@?$basic_string@DU?$char_traits@D@std@@V?$allocator@D@2@@std@@AEAAXQEBD_K@Z@4HA DD 031001H
	DD	0700c4210H
	DD	0500bH
xdata	ENDS
;	COMDAT xdata
xdata	SEGMENT
$ip2state$??$_Construct@$01PEBD@?$basic_string@DU?$char_traits@D@std@@V?$allocator@D@2@@std@@AEAAXQEBD_K@Z DB 0aH
	DB	00H
	DB	00H
	DB	0c9H, 02H
	DB	02H
	DB	09eH
	DB	00H
	DB	'"'
	DB	02H
	DB	0d5H, 02H
	DB	00H
xdata	ENDS
;	COMDAT xdata
xdata	SEGMENT
$stateUnwindMap$??$_Construct@$01PEBD@?$basic_string@DU?$char_traits@D@std@@V?$allocator@D@2@@std@@AEAAXQEBD_K@Z DB 02H
	DB	0eH
	DD	imagerel ?dtor$0@?0???$_Construct@$01PEBD@?$basic_string@DU?$char_traits@D@std@@V?$allocator@D@2@@std@@AEAAXQEBD_K@Z@4HA
xdata	ENDS
;	COMDAT xdata
xdata	SEGMENT
$cppxdata$??$_Construct@$01PEBD@?$basic_string@DU?$char_traits@D@std@@V?$allocator@D@2@@std@@AEAAXQEBD_K@Z DB 028H
	DD	imagerel $stateUnwindMap$??$_Construct@$01PEBD@?$basic_string@DU?$char_traits@D@std@@V?$allocator@D@2@@std@@AEAAXQEBD_K@Z
	DD	imagerel $ip2state$??$_Construct@$01PEBD@?$basic_string@DU?$char_traits@D@std@@V?$allocator@D@2@@std@@AEAAXQEBD_K@Z
xdata	ENDS
;	COMDAT xdata
xdata	SEGMENT
$unwind$??$_Construct@$01PEBD@?$basic_string@DU?$char_traits@D@std@@V?$allocator@D@2@@std@@AEAAXQEBD_K@Z DD 025054719H
	DD	0118231dH
	DD	07011003dH
	DD	05010H
	DD	imagerel __GSHandlerCheck_EH4
	DD	imagerel $cppxdata$??$_Construct@$01PEBD@?$basic_string@DU?$char_traits@D@std@@V?$allocator@D@2@@std@@AEAAXQEBD_K@Z
	DD	01d2H
xdata	ENDS
;	COMDAT CONST
CONST	SEGMENT
??$_Construct@$01PEBD@?$basic_string@DU?$char_traits@D@std@@V?$allocator@D@2@@std@@AEAAXQEBD_K@Z$rtcName$0 DB 024H ; std::basic_string<char,std::char_traits<char>,std::allocator<char> >::_Construct<2,char const *>
	DB	053H
	DB	032H
	DB	039H
	DB	00H
	ORG $+3
??$_Construct@$01PEBD@?$basic_string@DU?$char_traits@D@std@@V?$allocator@D@2@@std@@AEAAXQEBD_K@Z$rtcName$1 DB 05fH ; std::basic_string<char,std::char_traits<char>,std::allocator<char> >::_Construct<2,char const *>
	DB	050H
	DB	072H
	DB	06fH
	DB	078H
	DB	079H
	DB	00H
	ORG $+1
??$_Construct@$01PEBD@?$basic_string@DU?$char_traits@D@std@@V?$allocator@D@2@@std@@AEAAXQEBD_K@Z$rtcName$2 DB 05fH ; std::basic_string<char,std::char_traits<char>,std::allocator<char> >::_Construct<2,char const *>
	DB	04eH
	DB	065H
	DB	077H
	DB	05fH
	DB	063H
	DB	061H
	DB	070H
	DB	061H
	DB	063H
	DB	069H
	DB	074H
	DB	079H
	DB	00H
	ORG $+2
??$_Construct@$01PEBD@?$basic_string@DU?$char_traits@D@std@@V?$allocator@D@2@@std@@AEAAXQEBD_K@Z$rtcName$3 DB 05fH ; std::basic_string<char,std::char_traits<char>,std::allocator<char> >::_Construct<2,char const *>
	DB	04eH
	DB	065H
	DB	077H
	DB	05fH
	DB	070H
	DB	074H
	DB	072H
	DB	00H
	ORG $+7
??$_Construct@$01PEBD@?$basic_string@DU?$char_traits@D@std@@V?$allocator@D@2@@std@@AEAAXQEBD_K@Z$rtcVarDesc DD 0f8H ; std::basic_string<char,std::char_traits<char>,std::allocator<char> >::_Construct<2,char const *>
	DD	08H
	DQ	FLAT:??$_Construct@$01PEBD@?$basic_string@DU?$char_traits@D@std@@V?$allocator@D@2@@std@@AEAAXQEBD_K@Z$rtcName$3
	DD	0d8H
	DD	08H
	DQ	FLAT:??$_Construct@$01PEBD@?$basic_string@DU?$char_traits@D@std@@V?$allocator@D@2@@std@@AEAAXQEBD_K@Z$rtcName$2
	DD	0a8H
	DD	010H
	DQ	FLAT:??$_Construct@$01PEBD@?$basic_string@DU?$char_traits@D@std@@V?$allocator@D@2@@std@@AEAAXQEBD_K@Z$rtcName$1
	DD	084H
	DD	01H
	DQ	FLAT:??$_Construct@$01PEBD@?$basic_string@DU?$char_traits@D@std@@V?$allocator@D@2@@std@@AEAAXQEBD_K@Z$rtcName$0
	ORG $+192
??$_Construct@$01PEBD@?$basic_string@DU?$char_traits@D@std@@V?$allocator@D@2@@std@@AEAAXQEBD_K@Z$rtcFrameData DD 04H ; std::basic_string<char,std::char_traits<char>,std::allocator<char> >::_Construct<2,char const *>
	DD	00H
	DQ	FLAT:??$_Construct@$01PEBD@?$basic_string@DU?$char_traits@D@std@@V?$allocator@D@2@@std@@AEAAXQEBD_K@Z$rtcVarDesc
CONST	ENDS
;	COMDAT voltbl
voltbl	SEGMENT
_volmd	DB	00H
	DB	05H
voltbl	ENDS
;	COMDAT voltbl
voltbl	SEGMENT
_volmd	DW	040H
	DW	021fH
voltbl	ENDS
;	COMDAT xdata
xdata	SEGMENT
$unwind$?dtor$0@?0???$_Construct@$00PEBD@?$basic_string@DU?$char_traits@D@std@@V?$allocator@D@2@@std@@AEAAXQEBD_K@Z@4HA DD 031001H
	DD	0700c4210H
	DD	0500bH
xdata	ENDS
;	COMDAT xdata
xdata	SEGMENT
$ip2state$??$_Construct@$00PEBD@?$basic_string@DU?$char_traits@D@std@@V?$allocator@D@2@@std@@AEAAXQEBD_K@Z DB 0aH
	DB	00H
	DB	00H
	DB	0c9H, 02H
	DB	02H
	DB	0ecH
	DB	00H
	DB	'"'
	DB	02H
	DB	')', 03H
	DB	00H
xdata	ENDS
;	COMDAT xdata
xdata	SEGMENT
$stateUnwindMap$??$_Construct@$00PEBD@?$basic_string@DU?$char_traits@D@std@@V?$allocator@D@2@@std@@AEAAXQEBD_K@Z DB 02H
	DB	0eH
	DD	imagerel ?dtor$0@?0???$_Construct@$00PEBD@?$basic_string@DU?$char_traits@D@std@@V?$allocator@D@2@@std@@AEAAXQEBD_K@Z@4HA
xdata	ENDS
;	COMDAT xdata
xdata	SEGMENT
$cppxdata$??$_Construct@$00PEBD@?$basic_string@DU?$char_traits@D@std@@V?$allocator@D@2@@std@@AEAAXQEBD_K@Z DB 028H
	DD	imagerel $stateUnwindMap$??$_Construct@$00PEBD@?$basic_string@DU?$char_traits@D@std@@V?$allocator@D@2@@std@@AEAAXQEBD_K@Z
	DD	imagerel $ip2state$??$_Construct@$00PEBD@?$basic_string@DU?$char_traits@D@std@@V?$allocator@D@2@@std@@AEAAXQEBD_K@Z
xdata	ENDS
;	COMDAT xdata
xdata	SEGMENT
$unwind$??$_Construct@$00PEBD@?$basic_string@DU?$char_traits@D@std@@V?$allocator@D@2@@std@@AEAAXQEBD_K@Z DD 025054719H
	DD	0118231dH
	DD	070110043H
	DD	05010H
	DD	imagerel __GSHandlerCheck_EH4
	DD	imagerel $cppxdata$??$_Construct@$00PEBD@?$basic_string@DU?$char_traits@D@std@@V?$allocator@D@2@@std@@AEAAXQEBD_K@Z
	DD	020aH
xdata	ENDS
;	COMDAT CONST
CONST	SEGMENT
??$_Construct@$00PEBD@?$basic_string@DU?$char_traits@D@std@@V?$allocator@D@2@@std@@AEAAXQEBD_K@Z$rtcName$0 DB 024H ; std::basic_string<char,std::char_traits<char>,std::allocator<char> >::_Construct<1,char const *>
	DB	053H
	DB	032H
	DB	038H
	DB	00H
	ORG $+3
??$_Construct@$00PEBD@?$basic_string@DU?$char_traits@D@std@@V?$allocator@D@2@@std@@AEAAXQEBD_K@Z$rtcName$1 DB 05fH ; std::basic_string<char,std::char_traits<char>,std::allocator<char> >::_Construct<1,char const *>
	DB	050H
	DB	072H
	DB	06fH
	DB	078H
	DB	079H
	DB	00H
	ORG $+1
??$_Construct@$00PEBD@?$basic_string@DU?$char_traits@D@std@@V?$allocator@D@2@@std@@AEAAXQEBD_K@Z$rtcName$2 DB 05fH ; std::basic_string<char,std::char_traits<char>,std::allocator<char> >::_Construct<1,char const *>
	DB	04eH
	DB	065H
	DB	077H
	DB	05fH
	DB	063H
	DB	061H
	DB	070H
	DB	061H
	DB	063H
	DB	069H
	DB	074H
	DB	079H
	DB	00H
	ORG $+2
??$_Construct@$00PEBD@?$basic_string@DU?$char_traits@D@std@@V?$allocator@D@2@@std@@AEAAXQEBD_K@Z$rtcName$3 DB 05fH ; std::basic_string<char,std::char_traits<char>,std::allocator<char> >::_Construct<1,char const *>
	DB	04eH
	DB	065H
	DB	077H
	DB	05fH
	DB	070H
	DB	074H
	DB	072H
	DB	00H
	ORG $+7
??$_Construct@$00PEBD@?$basic_string@DU?$char_traits@D@std@@V?$allocator@D@2@@std@@AEAAXQEBD_K@Z$rtcVarDesc DD 0f8H ; std::basic_string<char,std::char_traits<char>,std::allocator<char> >::_Construct<1,char const *>
	DD	08H
	DQ	FLAT:??$_Construct@$00PEBD@?$basic_string@DU?$char_traits@D@std@@V?$allocator@D@2@@std@@AEAAXQEBD_K@Z$rtcName$3
	DD	0d8H
	DD	08H
	DQ	FLAT:??$_Construct@$00PEBD@?$basic_string@DU?$char_traits@D@std@@V?$allocator@D@2@@std@@AEAAXQEBD_K@Z$rtcName$2
	DD	0a8H
	DD	010H
	DQ	FLAT:??$_Construct@$00PEBD@?$basic_string@DU?$char_traits@D@std@@V?$allocator@D@2@@std@@AEAAXQEBD_K@Z$rtcName$1
	DD	084H
	DD	01H
	DQ	FLAT:??$_Construct@$00PEBD@?$basic_string@DU?$char_traits@D@std@@V?$allocator@D@2@@std@@AEAAXQEBD_K@Z$rtcName$0
	ORG $+192
??$_Construct@$00PEBD@?$basic_string@DU?$char_traits@D@std@@V?$allocator@D@2@@std@@AEAAXQEBD_K@Z$rtcFrameData DD 04H ; std::basic_string<char,std::char_traits<char>,std::allocator<char> >::_Construct<1,char const *>
	DD	00H
	DQ	FLAT:??$_Construct@$00PEBD@?$basic_string@DU?$char_traits@D@std@@V?$allocator@D@2@@std@@AEAAXQEBD_K@Z$rtcVarDesc
CONST	ENDS
;	COMDAT xdata
xdata	SEGMENT
$unwind$??$?0$$V@?$_Compressed_pair@V?$allocator@D@std@@V?$_String_val@U?$_Simple_types@D@std@@@2@$00@std@@QEAA@U_Zero_then_variadic_args_t@1@@Z DD 025051701H
	DD	01122317H
	DD	0700b001dH
	DD	0500aH
xdata	ENDS
;	COMDAT xdata
xdata	SEGMENT
$unwind$??$?0V?$allocator@D@std@@$$V@?$_Compressed_pair@V?$allocator@D@std@@V?$_String_val@U?$_Simple_types@D@std@@@2@$00@std@@QEAA@U_One_then_variadic_args_t@1@$$QEAV?$allocator@D@1@@Z DD 025051c01H
	DD	0117231cH
	DD	07010001dH
	DD	0500fH
xdata	ENDS
;	COMDAT xdata
xdata	SEGMENT
$unwind$??$?0D@?$allocator@U_Container_proxy@std@@@std@@QEAA@AEBV?$allocator@D@1@@Z DD 025051801H
	DD	01132318H
	DD	0700c001dH
	DD	0500bH
xdata	ENDS
;	COMDAT xdata
xdata	SEGMENT
$unwind$??$_Convert_size@_K_K@std@@YA_K_K@Z DD 025051301H
	DD	010e2313H
	DD	07007001dH
	DD	05006H
xdata	ENDS
;	COMDAT xdata
xdata	SEGMENT
$unwind$??$min@_K@std@@YAAEB_KAEB_K0@Z DD 025051801H
	DD	01132318H
	DD	0700c0021H
	DD	0500bH
xdata	ENDS
;	COMDAT xdata
xdata	SEGMENT
$unwind$??Bsentry@?$basic_ostream@DU?$char_traits@D@std@@@std@@QEBA_NXZ DD 025051301H
	DD	010e2313H
	DD	07007001dH
	DD	05006H
xdata	ENDS
;	COMDAT xdata
xdata	SEGMENT
$unwind$??1sentry@?$basic_ostream@DU?$char_traits@D@std@@@std@@QEAA@XZ DD 025051301H
	DD	010e2313H
	DD	070070021H
	DD	05006H
xdata	ENDS
;	COMDAT voltbl
voltbl	SEGMENT
_volmd	DB	00H
	DB	05H
voltbl	ENDS
;	COMDAT xdata
xdata	SEGMENT
$unwind$?dtor$0@?0???0sentry@?$basic_ostream@DU?$char_traits@D@std@@@std@@QEAA@AEAV12@@Z@4HA DD 031001H
	DD	0700c4210H
	DD	0500bH
xdata	ENDS
;	COMDAT xdata
xdata	SEGMENT
$ip2state$??0sentry@?$basic_ostream@DU?$char_traits@D@std@@@std@@QEAA@AEAV12@@Z DB 06H
	DB	00H
	DB	00H
	DB	'p'
	DB	02H
	DB	0f1H, 02H
	DB	00H
xdata	ENDS
;	COMDAT xdata
xdata	SEGMENT
$stateUnwindMap$??0sentry@?$basic_ostream@DU?$char_traits@D@std@@@std@@QEAA@AEAV12@@Z DB 02H
	DB	0eH
	DD	imagerel ?dtor$0@?0???0sentry@?$basic_ostream@DU?$char_traits@D@std@@@std@@QEAA@AEAV12@@Z@4HA
xdata	ENDS
;	COMDAT xdata
xdata	SEGMENT
$cppxdata$??0sentry@?$basic_ostream@DU?$char_traits@D@std@@@std@@QEAA@AEAV12@@Z DB 028H
	DD	imagerel $stateUnwindMap$??0sentry@?$basic_ostream@DU?$char_traits@D@std@@@std@@QEAA@AEAV12@@Z
	DD	imagerel $ip2state$??0sentry@?$basic_ostream@DU?$char_traits@D@std@@@std@@QEAA@AEAV12@@Z
xdata	ENDS
;	COMDAT xdata
xdata	SEGMENT
$unwind$??0sentry@?$basic_ostream@DU?$char_traits@D@std@@@std@@QEAA@AEAV12@@Z DD 025051811H
	DD	01132318H
	DD	0700c0021H
	DD	0500bH
	DD	imagerel __CxxFrameHandler4
	DD	imagerel $cppxdata$??0sentry@?$basic_ostream@DU?$char_traits@D@std@@@std@@QEAA@AEAV12@@Z
xdata	ENDS
;	COMDAT xdata
xdata	SEGMENT
$ip2state$??1_Sentry_base@?$basic_ostream@DU?$char_traits@D@std@@@std@@QEAA@XZ DB 02H
	DB	00H
	DB	00H
xdata	ENDS
;	COMDAT xdata
xdata	SEGMENT
$cppxdata$??1_Sentry_base@?$basic_ostream@DU?$char_traits@D@std@@@std@@QEAA@XZ DB 060H
	DD	imagerel $ip2state$??1_Sentry_base@?$basic_ostream@DU?$char_traits@D@std@@@std@@QEAA@XZ
xdata	ENDS
;	COMDAT xdata
xdata	SEGMENT
$unwind$??1_Sentry_base@?$basic_ostream@DU?$char_traits@D@std@@@std@@QEAA@XZ DD 025051319H
	DD	010e2313H
	DD	070070021H
	DD	05006H
	DD	imagerel __CxxFrameHandler4
	DD	imagerel $cppxdata$??1_Sentry_base@?$basic_ostream@DU?$char_traits@D@std@@@std@@QEAA@XZ
xdata	ENDS
;	COMDAT xdata
xdata	SEGMENT
$unwind$??0_Sentry_base@?$basic_ostream@DU?$char_traits@D@std@@@std@@QEAA@AEAV12@@Z DD 025051801H
	DD	01132318H
	DD	0700c0021H
	DD	0500bH
xdata	ENDS
;	COMDAT xdata
xdata	SEGMENT
$unwind$??$_Unfancy@D@std@@YAPEADPEAD@Z DD 025051301H
	DD	010e2313H
	DD	07007001dH
	DD	05006H
xdata	ENDS
;	COMDAT xdata
xdata	SEGMENT
$unwind$??$_Allocate_at_least_helper@V?$allocator@D@std@@@std@@YAPEADAEAV?$allocator@D@0@AEA_K@Z DD 025051801H
	DD	01132318H
	DD	0700c001dH
	DD	0500bH
xdata	ENDS
;	COMDAT xdata
xdata	SEGMENT
$unwind$??$_Delete_plain_internal@V?$allocator@U_Container_proxy@std@@@std@@@std@@YAXAEAV?$allocator@U_Container_proxy@std@@@0@QEAU_Container_proxy@0@@Z DD 025051801H
	DD	01132318H
	DD	0700c001dH
	DD	0500bH
xdata	ENDS
;	COMDAT xdata
xdata	SEGMENT
$unwind$??$exchange@PEAU_Container_proxy@std@@$$T@std@@YAPEAU_Container_proxy@0@AEAPEAU10@$$QEA$$T@Z DD 025051801H
	DD	01132318H
	DD	0700c0021H
	DD	0500bH
xdata	ENDS
;	COMDAT xdata
xdata	SEGMENT
$unwind$??$?0Ufile_task@@@?$allocator@U_Container_proxy@std@@@std@@QEAA@AEBV?$allocator@Ufile_task@@@1@@Z DD 025051801H
	DD	01132318H
	DD	0700c001dH
	DD	0500bH
xdata	ENDS
;	COMDAT xdata
xdata	SEGMENT
$unwind$?allocate@?$allocator@U_Container_proxy@std@@@std@@QEAAPEAU_Container_proxy@2@_K@Z DD 025051801H
	DD	01132318H
	DD	0700c001dH
	DD	0500bH
xdata	ENDS
;	COMDAT xdata
xdata	SEGMENT
$unwind$?deallocate@?$allocator@U_Container_proxy@std@@@std@@QEAAXQEAU_Container_proxy@2@_K@Z DD 035051d01H
	DD	0118331dH
	DD	07011001fH
	DD	05010H
xdata	ENDS
;	COMDAT xdata
xdata	SEGMENT
$unwind$??$endl@DU?$char_traits@D@std@@@std@@YAAEAV?$basic_ostream@DU?$char_traits@D@std@@@0@AEAV10@@Z DD 025051301H
	DD	010e2313H
	DD	07007001fH
	DD	05006H
xdata	ENDS
;	COMDAT xdata
xdata	SEGMENT
$unwind$??$?GUsteady_clock@chrono@std@@V?$duration@_JU?$ratio@$00$0DLJKMKAA@@std@@@12@V312@@chrono@std@@YA?AV?$duration@_JU?$ratio@$00$0DLJKMKAA@@std@@@01@AEBV?$time_point@Usteady_clock@chrono@std@@V?$duration@_JU?$ratio@$00$0DLJKMKAA@@std@@@23@@01@0@Z DD 025051d01H
	DD	0118231dH
	DD	070110027H
	DD	05010H
xdata	ENDS
;	COMDAT voltbl
voltbl	SEGMENT
_volmd	DB	00H
	DB	05H
voltbl	ENDS
;	COMDAT voltbl
voltbl	SEGMENT
_volmd	DB	00H
	DB	05H
voltbl	ENDS
;	COMDAT voltbl
voltbl	SEGMENT
_volmd	DB	00H
	DB	05H
voltbl	ENDS
;	COMDAT voltbl
voltbl	SEGMENT
_volmd	DW	03bH
	DW	0363H
voltbl	ENDS
;	COMDAT xdata
xdata	SEGMENT
$unwind$?catch$2@?0???$?5DU?$char_traits@D@std@@V?$allocator@D@1@@std@@YAAEAV?$basic_istream@DU?$char_traits@D@std@@@0@AEAV10@AEAV?$basic_string@DU?$char_traits@D@std@@V?$allocator@D@2@@0@@Z@4HA DD 031001H
	DD	0700c4210H
	DD	0500bH
xdata	ENDS
;	COMDAT xdata
xdata	SEGMENT
$unwind$?dtor$1@?0???$?5DU?$char_traits@D@std@@V?$allocator@D@1@@std@@YAAEAV?$basic_istream@DU?$char_traits@D@std@@@0@AEAV10@AEAV?$basic_string@DU?$char_traits@D@std@@V?$allocator@D@2@@0@@Z@4HA DD 031001H
	DD	0700c4210H
	DD	0500bH
xdata	ENDS
;	COMDAT xdata
xdata	SEGMENT
$unwind$?dtor$0@?0???$?5DU?$char_traits@D@std@@V?$allocator@D@1@@std@@YAAEAV?$basic_istream@DU?$char_traits@D@std@@@0@AEAV10@AEAV?$basic_string@DU?$char_traits@D@std@@V?$allocator@D@2@@0@@Z@4HA DD 031001H
	DD	0700c4210H
	DD	0500bH
xdata	ENDS
;	COMDAT xdata
xdata	SEGMENT
$ip2state$??$?5DU?$char_traits@D@std@@V?$allocator@D@1@@std@@YAAEAV?$basic_istream@DU?$char_traits@D@std@@@0@AEAV10@AEAV?$basic_string@DU?$char_traits@D@std@@V?$allocator@D@2@@0@@Z DB 0eH
	DB	00H
	DB	00H
	DB	0daH
	DB	02H
	DB	0beH
	DB	04H
	DB	' '
	DB	02H
	DB	'6'
	DB	06H
	DB	0fdH, 06H
	DB	02H
	DB	01dH, 02H
	DB	00H
xdata	ENDS
;	COMDAT xdata
xdata	SEGMENT
$handlerMap$??$?5DU?$char_traits@D@std@@V?$allocator@D@1@@std@@YAAEAV?$basic_istream@DU?$char_traits@D@std@@@0@AEAV10@AEAV?$basic_string@DU?$char_traits@D@std@@V?$allocator@D@2@@0@@Z DB 02H
	DB	01H
	DB	080H
	DD	imagerel ?catch$2@?0???$?5DU?$char_traits@D@std@@V?$allocator@D@1@@std@@YAAEAV?$basic_istream@DU?$char_traits@D@std@@@0@AEAV10@AEAV?$basic_string@DU?$char_traits@D@std@@V?$allocator@D@2@@0@@Z@4HA
xdata	ENDS
;	COMDAT xdata
xdata	SEGMENT
$tryMap$??$?5DU?$char_traits@D@std@@V?$allocator@D@1@@std@@YAAEAV?$basic_istream@DU?$char_traits@D@std@@@0@AEAV10@AEAV?$basic_string@DU?$char_traits@D@std@@V?$allocator@D@2@@0@@Z DB 02H
	DB	04H
	DB	04H
	DB	06H
	DD	imagerel $handlerMap$??$?5DU?$char_traits@D@std@@V?$allocator@D@1@@std@@YAAEAV?$basic_istream@DU?$char_traits@D@std@@@0@AEAV10@AEAV?$basic_string@DU?$char_traits@D@std@@V?$allocator@D@2@@0@@Z
xdata	ENDS
;	COMDAT xdata
xdata	SEGMENT
$stateUnwindMap$??$?5DU?$char_traits@D@std@@V?$allocator@D@1@@std@@YAAEAV?$basic_istream@DU?$char_traits@D@std@@@0@AEAV10@AEAV?$basic_string@DU?$char_traits@D@std@@V?$allocator@D@2@@0@@Z DB 08H
	DB	0eH
	DD	imagerel ?dtor$0@?0???$?5DU?$char_traits@D@std@@V?$allocator@D@1@@std@@YAAEAV?$basic_istream@DU?$char_traits@D@std@@@0@AEAV10@AEAV?$basic_string@DU?$char_traits@D@std@@V?$allocator@D@2@@0@@Z@4HA
	DB	02eH
	DD	imagerel ?dtor$1@?0???$?5DU?$char_traits@D@std@@V?$allocator@D@1@@std@@YAAEAV?$basic_istream@DU?$char_traits@D@std@@@0@AEAV10@AEAV?$basic_string@DU?$char_traits@D@std@@V?$allocator@D@2@@0@@Z@4HA
	DB	050H
	DB	058H
xdata	ENDS
;	COMDAT xdata
xdata	SEGMENT
$cppxdata$??$?5DU?$char_traits@D@std@@V?$allocator@D@1@@std@@YAAEAV?$basic_istream@DU?$char_traits@D@std@@@0@AEAV10@AEAV?$basic_string@DU?$char_traits@D@std@@V?$allocator@D@2@@0@@Z DB 038H
	DD	imagerel $stateUnwindMap$??$?5DU?$char_traits@D@std@@V?$allocator@D@1@@std@@YAAEAV?$basic_istream@DU?$char_traits@D@std@@@0@AEAV10@AEAV?$basic_string@DU?$char_traits@D@std@@V?$allocator@D@2@@0@@Z
	DD	imagerel $tryMap$??$?5DU?$char_traits@D@std@@V?$allocator@D@1@@std@@YAAEAV?$basic_istream@DU?$char_traits@D@std@@@0@AEAV10@AEAV?$basic_string@DU?$char_traits@D@std@@V?$allocator@D@2@@0@@Z
	DD	imagerel $ip2state$??$?5DU?$char_traits@D@std@@V?$allocator@D@1@@std@@YAAEAV?$basic_istream@DU?$char_traits@D@std@@@0@AEAV10@AEAV?$basic_string@DU?$char_traits@D@std@@V?$allocator@D@2@@0@@Z
xdata	ENDS
;	COMDAT xdata
xdata	SEGMENT
$unwind$??$?5DU?$char_traits@D@std@@V?$allocator@D@1@@std@@YAAEAV?$basic_istream@DU?$char_traits@D@std@@@0@AEAV10@AEAV?$basic_string@DU?$char_traits@D@std@@V?$allocator@D@2@@0@@Z DD 025054219H
	DD	01132318H
	DD	0700c0045H
	DD	0500bH
	DD	imagerel __GSHandlerCheck_EH4
	DD	imagerel $cppxdata$??$?5DU?$char_traits@D@std@@V?$allocator@D@1@@std@@YAAEAV?$basic_istream@DU?$char_traits@D@std@@@0@AEAV10@AEAV?$basic_string@DU?$char_traits@D@std@@V?$allocator@D@2@@0@@Z
	DD	0213H
xdata	ENDS
;	COMDAT CONST
CONST	SEGMENT
??$?5DU?$char_traits@D@std@@V?$allocator@D@1@@std@@YAAEAV?$basic_istream@DU?$char_traits@D@std@@@0@AEAV10@AEAV?$basic_string@DU?$char_traits@D@std@@V?$allocator@D@2@@0@@Z$rtcName$0 DB 05fH ; std::operator>><char,std::char_traits<char>,std::allocator<char> >
	DB	04fH
	DB	06bH
	DB	00H
	ORG $+12
??$?5DU?$char_traits@D@std@@V?$allocator@D@1@@std@@YAAEAV?$basic_istream@DU?$char_traits@D@std@@@0@AEAV10@AEAV?$basic_string@DU?$char_traits@D@std@@V?$allocator@D@2@@0@@Z$rtcVarDesc DD 068H ; std::operator>><char,std::char_traits<char>,std::allocator<char> >
	DD	010H
	DQ	FLAT:??$?5DU?$char_traits@D@std@@V?$allocator@D@1@@std@@YAAEAV?$basic_istream@DU?$char_traits@D@std@@@0@AEAV10@AEAV?$basic_string@DU?$char_traits@D@std@@V?$allocator@D@2@@0@@Z$rtcName$0
	ORG $+48
??$?5DU?$char_traits@D@std@@V?$allocator@D@1@@std@@YAAEAV?$basic_istream@DU?$char_traits@D@std@@@0@AEAV10@AEAV?$basic_string@DU?$char_traits@D@std@@V?$allocator@D@2@@0@@Z$rtcFrameData DD 01H ; std::operator>><char,std::char_traits<char>,std::allocator<char> >
	DD	00H
	DQ	FLAT:??$?5DU?$char_traits@D@std@@V?$allocator@D@1@@std@@YAAEAV?$basic_istream@DU?$char_traits@D@std@@@0@AEAV10@AEAV?$basic_string@DU?$char_traits@D@std@@V?$allocator@D@2@@0@@Z$rtcVarDesc
CONST	ENDS
;	COMDAT voltbl
voltbl	SEGMENT
_volmd	DB	00H
	DB	05H
voltbl	ENDS
;	COMDAT voltbl
voltbl	SEGMENT
_volmd	DB	00H
	DB	05H
voltbl	ENDS
;	COMDAT voltbl
voltbl	SEGMENT
_volmd	DW	03bH
	DW	03f9H
voltbl	ENDS
;	COMDAT xdata
xdata	SEGMENT
$unwind$?catch$1@?0???$?6U?$char_traits@D@std@@@std@@YAAEAV?$basic_ostream@DU?$char_traits@D@std@@@0@AEAV10@PEBD@Z@4HA DD 031001H
	DD	0700c4210H
	DD	0500bH
xdata	ENDS
;	COMDAT xdata
xdata	SEGMENT
$unwind$?dtor$0@?0???$?6U?$char_traits@D@std@@@std@@YAAEAV?$basic_ostream@DU?$char_traits@D@std@@@0@AEAV10@PEBD@Z@4HA DD 031001H
	DD	0700c4210H
	DD	0500bH
xdata	ENDS
;	COMDAT xdata
xdata	SEGMENT
$ip2state$??$?6U?$char_traits@D@std@@@std@@YAAEAV?$basic_ostream@DU?$char_traits@D@std@@@0@AEAV10@PEBD@Z DB 0aH
	DB	00H
	DB	00H
	DB	'A', 04H
	DB	02H
	DB	'<'
	DB	04H
	DB	081H, 09H
	DB	02H
	DB	08aH
	DB	00H
xdata	ENDS
;	COMDAT xdata
xdata	SEGMENT
$handlerMap$??$?6U?$char_traits@D@std@@@std@@YAAEAV?$basic_ostream@DU?$char_traits@D@std@@@0@AEAV10@PEBD@Z DB 02H
	DB	01H
	DB	080H
	DD	imagerel ?catch$1@?0???$?6U?$char_traits@D@std@@@std@@YAAEAV?$basic_ostream@DU?$char_traits@D@std@@@0@AEAV10@PEBD@Z@4HA
xdata	ENDS
;	COMDAT xdata
xdata	SEGMENT
$tryMap$??$?6U?$char_traits@D@std@@@std@@YAAEAV?$basic_ostream@DU?$char_traits@D@std@@@0@AEAV10@PEBD@Z DB 02H
	DB	02H
	DB	02H
	DB	04H
	DD	imagerel $handlerMap$??$?6U?$char_traits@D@std@@@std@@YAAEAV?$basic_ostream@DU?$char_traits@D@std@@@0@AEAV10@PEBD@Z
xdata	ENDS
;	COMDAT xdata
xdata	SEGMENT
$stateUnwindMap$??$?6U?$char_traits@D@std@@@std@@YAAEAV?$basic_ostream@DU?$char_traits@D@std@@@0@AEAV10@PEBD@Z DB 06H
	DB	0eH
	DD	imagerel ?dtor$0@?0???$?6U?$char_traits@D@std@@@std@@YAAEAV?$basic_ostream@DU?$char_traits@D@std@@@0@AEAV10@PEBD@Z@4HA
	DB	028H
	DB	030H
xdata	ENDS
;	COMDAT xdata
xdata	SEGMENT
$cppxdata$??$?6U?$char_traits@D@std@@@std@@YAAEAV?$basic_ostream@DU?$char_traits@D@std@@@0@AEAV10@PEBD@Z DB 038H
	DD	imagerel $stateUnwindMap$??$?6U?$char_traits@D@std@@@std@@YAAEAV?$basic_ostream@DU?$char_traits@D@std@@@0@AEAV10@PEBD@Z
	DD	imagerel $tryMap$??$?6U?$char_traits@D@std@@@std@@YAAEAV?$basic_ostream@DU?$char_traits@D@std@@@0@AEAV10@PEBD@Z
	DD	imagerel $ip2state$??$?6U?$char_traits@D@std@@@std@@YAAEAV?$basic_ostream@DU?$char_traits@D@std@@@0@AEAV10@PEBD@Z
xdata	ENDS
;	COMDAT xdata
xdata	SEGMENT
$unwind$??$?6U?$char_traits@D@std@@@std@@YAAEAV?$basic_ostream@DU?$char_traits@D@std@@@0@AEAV10@PEBD@Z DD 025054219H
	DD	01132318H
	DD	0700c0037H
	DD	0500bH
	DD	imagerel __GSHandlerCheck_EH4
	DD	imagerel $cppxdata$??$?6U?$char_traits@D@std@@@std@@YAAEAV?$basic_ostream@DU?$char_traits@D@std@@@0@AEAV10@PEBD@Z
	DD	01a3H
xdata	ENDS
;	COMDAT CONST
CONST	SEGMENT
??$?6U?$char_traits@D@std@@@std@@YAAEAV?$basic_ostream@DU?$char_traits@D@std@@@0@AEAV10@PEBD@Z$rtcName$0 DB 05fH ; std::operator<<<std::char_traits<char> >
	DB	04fH
	DB	06bH
	DB	00H
	ORG $+12
??$?6U?$char_traits@D@std@@@std@@YAAEAV?$basic_ostream@DU?$char_traits@D@std@@@0@AEAV10@PEBD@Z$rtcVarDesc DD 088H ; std::operator<<<std::char_traits<char> >
	DD	010H
	DQ	FLAT:??$?6U?$char_traits@D@std@@@std@@YAAEAV?$basic_ostream@DU?$char_traits@D@std@@@0@AEAV10@PEBD@Z$rtcName$0
	ORG $+48
??$?6U?$char_traits@D@std@@@std@@YAAEAV?$basic_ostream@DU?$char_traits@D@std@@@0@AEAV10@PEBD@Z$rtcFrameData DD 01H ; std::operator<<<std::char_traits<char> >
	DD	00H
	DQ	FLAT:??$?6U?$char_traits@D@std@@@std@@YAAEAV?$basic_ostream@DU?$char_traits@D@std@@@0@AEAV10@PEBD@Z$rtcVarDesc
CONST	ENDS
;	COMDAT voltbl
voltbl	SEGMENT
_volmd	DB	00H
	DB	05H
voltbl	ENDS
;	COMDAT voltbl
voltbl	SEGMENT
_volmd	DB	00H
	DB	05H
voltbl	ENDS
;	COMDAT voltbl
voltbl	SEGMENT
_volmd	DB	00H
	DB	05H
voltbl	ENDS
;	COMDAT voltbl
voltbl	SEGMENT
_volmd	DB	00H
	DB	05H
voltbl	ENDS
;	COMDAT voltbl
voltbl	SEGMENT
_volmd	DW	02aH
	DW	0371H
voltbl	ENDS
;	COMDAT xdata
xdata	SEGMENT
$unwind$main$dtor$4 DD 031001H
	DD	0700c4210H
	DD	0500bH
xdata	ENDS
;	COMDAT xdata
xdata	SEGMENT
$unwind$main$dtor$2 DD 031001H
	DD	0700c4210H
	DD	0500bH
xdata	ENDS
;	COMDAT xdata
xdata	SEGMENT
$unwind$main$dtor$1 DD 031001H
	DD	0700c4210H
	DD	0500bH
xdata	ENDS
;	COMDAT xdata
xdata	SEGMENT
$unwind$main$dtor$0 DD 031001H
	DD	0700c4210H
	DD	0500bH
xdata	ENDS
;	COMDAT xdata
xdata	SEGMENT
$ip2state$main DB 012H
	DB	00H
	DB	00H
	DB	09cH
	DB	02H
	DB	'"'
	DB	04H
	DB	0edH, 02H
	DB	06H
	DB	082H
	DB	04H
	DB	'6'
	DB	08H
	DB	015H, 07H
	DB	04H
	DB	01aH
	DB	02H
	DB	014H
	DB	00H
xdata	ENDS
;	COMDAT xdata
xdata	SEGMENT
$stateUnwindMap$main DB 08H
	DB	0eH
	DD	imagerel main$dtor$0
	DB	02eH
	DD	imagerel main$dtor$1
	DB	02eH
	DD	imagerel main$dtor$2
	DB	056H
	DD	imagerel main$dtor$4
xdata	ENDS
;	COMDAT xdata
xdata	SEGMENT
$cppxdata$main DB 028H
	DD	imagerel $stateUnwindMap$main
	DD	imagerel $ip2state$main
xdata	ENDS
;	COMDAT xdata
xdata	SEGMENT
$unwind$main DD	025053119H
	DD	010a230fH
	DD	07003008fH
	DD	05002H
	DD	imagerel __GSHandlerCheck_EH4
	DD	imagerel $cppxdata$main
	DD	0462H
xdata	ENDS
;	COMDAT CONST
CONST	SEGMENT
main$rtcName$0 DB 064H
	DB	069H
	DB	072H
	DB	00H
main$rtcName$1 DB 074H
	DB	061H
	DB	072H
	DB	067H
	DB	065H
	DB	074H
	DB	00H
	ORG $+5
main$rtcName$2 DB 074H
	DB	068H
	DB	072H
	DB	065H
	DB	061H
	DB	064H
	DB	073H
	DB	00H
main$rtcName$3 DB 066H
	DB	06dH
	DB	00H
	ORG $+1
main$rtcName$4 DB 073H
	DB	074H
	DB	061H
	DB	072H
	DB	074H
	DB	00H
	ORG $+2
main$rtcName$5 DB 065H
	DB	06eH
	DB	064H
	DB	00H
main$rtcName$6 DB 065H
	DB	06cH
	DB	061H
	DB	070H
	DB	073H
	DB	065H
	DB	064H
	DB	00H
main$rtcVarDesc DD 01a8H
	DD	08H
	DQ	FLAT:main$rtcName$6
	DD	0188H
	DD	08H
	DQ	FLAT:main$rtcName$5
	DD	0168H
	DD	08H
	DQ	FLAT:main$rtcName$4
	DD	0d0H
	DD	080H
	DQ	FLAT:main$rtcName$3
	DD	0a4H
	DD	04H
	DQ	FLAT:main$rtcName$2
	DD	068H
	DD	028H
	DQ	FLAT:main$rtcName$1
	DD	028H
	DD	028H
	DQ	FLAT:main$rtcName$0
	ORG $+336
main$rtcFrameData DD 07H
	DD	00H
	DQ	FLAT:main$rtcVarDesc
CONST	ENDS
;	COMDAT xdata
xdata	SEGMENT
$unwind$?__autoclassinit2@filemanip@@QEAAX_K@Z DD 05051601H
	DD	01130316H
	DD	0700c0019H
	DD	0500bH
xdata	ENDS
;	COMDAT xdata
xdata	SEGMENT
$unwind$??1filemanip@@QEAA@XZ DD 025051301H
	DD	010e2313H
	DD	07007001dH
	DD	05006H
xdata	ENDS
;	COMDAT xdata
xdata	SEGMENT
$unwind$?_Get_first@?$_Compressed_pair@V?$allocator@Ufile_task@@@std@@V?$_Vector_val@U?$_Simple_types@Ufile_task@@@std@@@2@$00@std@@QEAAAEAV?$allocator@Ufile_task@@@2@XZ DD 025051301H
	DD	010e2313H
	DD	07007001dH
	DD	05006H
xdata	ENDS
;	COMDAT xdata
xdata	SEGMENT
$unwind$?_Getal@?$vector@Ufile_task@@V?$allocator@Ufile_task@@@std@@@std@@AEAAAEAV?$allocator@Ufile_task@@@2@XZ DD 025051301H
	DD	010e2313H
	DD	07007001dH
	DD	05006H
xdata	ENDS
;	COMDAT xdata
xdata	SEGMENT
$ip2state$?_Tidy@?$vector@Ufile_task@@V?$allocator@Ufile_task@@@std@@@std@@AEAAXXZ DB 02H
	DB	00H
	DB	00H
xdata	ENDS
;	COMDAT xdata
xdata	SEGMENT
$cppxdata$?_Tidy@?$vector@Ufile_task@@V?$allocator@Ufile_task@@@std@@@std@@AEAAXXZ DB 060H
	DD	imagerel $ip2state$?_Tidy@?$vector@Ufile_task@@V?$allocator@Ufile_task@@@std@@@std@@AEAAXXZ
xdata	ENDS
;	COMDAT xdata
xdata	SEGMENT
$unwind$?_Tidy@?$vector@Ufile_task@@V?$allocator@Ufile_task@@@std@@@std@@AEAAXXZ DD 025051319H
	DD	010e2313H
	DD	070070031H
	DD	05006H
	DD	imagerel __CxxFrameHandler4
	DD	imagerel $cppxdata$?_Tidy@?$vector@Ufile_task@@V?$allocator@Ufile_task@@@std@@@std@@AEAAXXZ
xdata	ENDS
;	COMDAT voltbl
voltbl	SEGMENT
_volmd	DB	036H
	DB	0b2H
voltbl	ENDS
;	COMDAT xdata
xdata	SEGMENT
$unwind$??1?$vector@Ufile_task@@V?$allocator@Ufile_task@@@std@@@std@@QEAA@XZ DD 025053d19H
	DD	010e2313H
	DD	070070029H
	DD	05006H
	DD	imagerel __GSHandlerCheck
	DD	0138H
xdata	ENDS
;	COMDAT CONST
CONST	SEGMENT
??1?$vector@Ufile_task@@V?$allocator@Ufile_task@@@std@@@std@@QEAA@XZ$rtcName$0 DB 024H ; std::vector<file_task,std::allocator<file_task> >::~vector<file_task,std::allocator<file_task> >
	DB	053H
	DB	038H
	DB	00H
	ORG $+12
??1?$vector@Ufile_task@@V?$allocator@Ufile_task@@@std@@@std@@QEAA@XZ$rtcVarDesc DD 044H ; std::vector<file_task,std::allocator<file_task> >::~vector<file_task,std::allocator<file_task> >
	DD	01H
	DQ	FLAT:??1?$vector@Ufile_task@@V?$allocator@Ufile_task@@@std@@@std@@QEAA@XZ$rtcName$0
	ORG $+48
??1?$vector@Ufile_task@@V?$allocator@Ufile_task@@@std@@@std@@QEAA@XZ$rtcFrameData DD 01H ; std::vector<file_task,std::allocator<file_task> >::~vector<file_task,std::allocator<file_task> >
	DD	00H
	DQ	FLAT:??1?$vector@Ufile_task@@V?$allocator@Ufile_task@@@std@@@std@@QEAA@XZ$rtcVarDesc
CONST	ENDS
;	COMDAT xdata
xdata	SEGMENT
$unwind$?deallocate@?$allocator@Ufile_task@@@std@@QEAAXQEAUfile_task@@_K@Z DD 035051d01H
	DD	0118331dH
	DD	07011001fH
	DD	05010H
xdata	ENDS
;	COMDAT xdata
xdata	SEGMENT
$unwind$??_Gfile_task@@QEAAPEAXI@Z DD 025051701H
	DD	01122317H
	DD	0700b001dH
	DD	0500aH
xdata	ENDS
;	COMDAT xdata
xdata	SEGMENT
$unwind$??1file_task@@QEAA@XZ DD 025051301H
	DD	010e2313H
	DD	07007001dH
	DD	05006H
xdata	ENDS
;	COMDAT xdata
xdata	SEGMENT
$unwind$??1?$shared_ptr@V?$basic_ifstream@DU?$char_traits@D@std@@@std@@@std@@QEAA@XZ DD 025051301H
	DD	010e2313H
	DD	07007001dH
	DD	05006H
xdata	ENDS
;	COMDAT xdata
xdata	SEGMENT
$unwind$?_Decref@?$_Ptr_base@V?$basic_ifstream@DU?$char_traits@D@std@@@std@@@std@@IEAAXXZ DD 025051301H
	DD	010e2313H
	DD	07007001dH
	DD	05006H
xdata	ENDS
;	COMDAT xdata
xdata	SEGMENT
$unwind$??$max@_K@std@@YAAEB_KAEB_K0@Z DD 025051801H
	DD	01132318H
	DD	0700c0021H
	DD	0500bH
xdata	ENDS
;	COMDAT xdata
xdata	SEGMENT
$unwind$??$_Getvals@_W@?$time_get@_WV?$istreambuf_iterator@_WU?$char_traits@_W@std@@@std@@@std@@IEAAX_WAEBV_Locinfo@1@@Z DD 025061e01H
	DD	0119231eH
	DD	070120026H
	DD	050106011H
xdata	ENDS
;	COMDAT xdata
xdata	SEGMENT
$unwind$??$_Getvals@_W@?$time_get@DV?$istreambuf_iterator@DU?$char_traits@D@std@@@std@@@std@@IEAAX_WAEBV_Locinfo@1@@Z DD 025061e01H
	DD	0119231eH
	DD	070120026H
	DD	050106011H
xdata	ENDS
;	COMDAT xdata
xdata	SEGMENT
$unwind$??$?0N$0A@@?$duration@NU?$ratio@$00$00@std@@@chrono@std@@QEAA@AEBN@Z DD 025051801H
	DD	01132318H
	DD	0700c001dH
	DD	0500bH
xdata	ENDS
;	COMDAT xdata
xdata	SEGMENT
$unwind$??$duration_cast@V?$duration@NU?$ratio@$00$00@std@@@chrono@std@@_JU?$ratio@$00$0DLJKMKAA@@3@$0A@@chrono@std@@YA?AV?$duration@NU?$ratio@$00$00@std@@@01@AEBV?$duration@_JU?$ratio@$00$0DLJKMKAA@@std@@@01@@Z DD 025051801H
	DD	01132318H
	DD	0700c0029H
	DD	0500bH
xdata	ENDS
;	COMDAT xdata
xdata	SEGMENT
$unwind$??$?0_JU?$ratio@$00$0DLJKMKAA@@std@@$0A@@?$duration@NU?$ratio@$00$00@std@@@chrono@std@@QEAA@AEBV?$duration@_JU?$ratio@$00$0DLJKMKAA@@std@@@12@@Z DD 025051801H
	DD	01132318H
	DD	0700c0021H
	DD	0500bH
xdata	ENDS
;	COMDAT xdata
xdata	SEGMENT
$unwind$?count@?$duration@NU?$ratio@$00$00@std@@@chrono@std@@QEBANXZ DD 035051301H
	DD	010e3313H
	DD	07007001fH
	DD	05006H
xdata	ENDS
;	COMDAT xdata
xdata	SEGMENT
$unwind$??$?0_J$0A@@?$duration@_JU?$ratio@$00$0DLJKMKAA@@std@@@chrono@std@@QEAA@AEB_J@Z DD 025051801H
	DD	01132318H
	DD	0700c001dH
	DD	0500bH
xdata	ENDS
;	COMDAT xdata
xdata	SEGMENT
$unwind$?time_since_epoch@?$time_point@Usteady_clock@chrono@std@@V?$duration@_JU?$ratio@$00$0DLJKMKAA@@std@@@23@@chrono@std@@QEBA?AV?$duration@_JU?$ratio@$00$0DLJKMKAA@@std@@@23@XZ DD 025051801H
	DD	01132318H
	DD	0700c001dH
	DD	0500bH
xdata	ENDS
;	COMDAT xdata
xdata	SEGMENT
$unwind$??0?$time_point@Usteady_clock@chrono@std@@V?$duration@_JU?$ratio@$00$0DLJKMKAA@@std@@@23@@chrono@std@@QEAA@AEBV?$duration@_JU?$ratio@$00$0DLJKMKAA@@std@@@12@@Z DD 025051801H
	DD	01132318H
	DD	0700c001dH
	DD	0500bH
xdata	ENDS
;	COMDAT xdata
xdata	SEGMENT
$unwind$?count@?$duration@_JU?$ratio@$00$0DLJKMKAA@@std@@@chrono@std@@QEBA_JXZ DD 025051301H
	DD	010e2313H
	DD	07007001dH
	DD	05006H
xdata	ENDS
;	COMDAT xdata
xdata	SEGMENT
$unwind$?now@steady_clock@chrono@std@@SA?AV?$time_point@Usteady_clock@chrono@std@@V?$duration@_JU?$ratio@$00$0DLJKMKAA@@std@@@23@@23@XZ DD 025051301H
	DD	010e2313H
	DD	070070059H
	DD	05006H
xdata	ENDS
;	COMDAT xdata
xdata	SEGMENT
$unwind$??$_Maklocstr@D@std@@YAPEADPEBDPEADAEBU_Cvtvec@@@Z DD 035051d01H
	DD	0118331dH
	DD	07011002bH
	DD	05010H
xdata	ENDS
;	COMDAT xdata
xdata	SEGMENT
$unwind$?_Maklocwcs@std@@YAPEA_WPEB_W@Z DD 035051301H
	DD	010e3313H
	DD	070070027H
	DD	05006H
xdata	ENDS
;	COMDAT voltbl
voltbl	SEGMENT
_volmd	DB	00H
	DB	05H
voltbl	ENDS
;	COMDAT voltbl
voltbl	SEGMENT
_volmd	DB	00H
	DB	05H
voltbl	ENDS
;	COMDAT voltbl
voltbl	SEGMENT
_volmd	DW	036H
	DW	0172H
voltbl	ENDS
;	COMDAT xdata
xdata	SEGMENT
$unwind$?dtor$1@?0???$use_facet@V?$ctype@D@std@@@std@@YAAEBV?$ctype@D@0@AEBVlocale@0@@Z@4HA DD 031001H
	DD	0700c4210H
	DD	0500bH
xdata	ENDS
;	COMDAT xdata
xdata	SEGMENT
$unwind$?dtor$0@?0???$use_facet@V?$ctype@D@std@@@std@@YAAEBV?$ctype@D@0@AEBVlocale@0@@Z@4HA DD 031001H
	DD	0700c4210H
	DD	0500bH
xdata	ENDS
;	COMDAT xdata
xdata	SEGMENT
$ip2state$??$use_facet@V?$ctype@D@std@@@std@@YAAEBV?$ctype@D@0@AEBVlocale@0@@Z DB 0aH
	DB	00H
	DB	00H
	DB	0acH
	DB	02H
	DB	'y', 02H
	DB	04H
	DB	080H
	DB	02H
	DB	'.'
	DB	00H
xdata	ENDS
;	COMDAT xdata
xdata	SEGMENT
$stateUnwindMap$??$use_facet@V?$ctype@D@std@@@std@@YAAEBV?$ctype@D@0@AEBVlocale@0@@Z DB 04H
	DB	0eH
	DD	imagerel ?dtor$0@?0???$use_facet@V?$ctype@D@std@@@std@@YAAEBV?$ctype@D@0@AEBVlocale@0@@Z@4HA
	DB	02eH
	DD	imagerel ?dtor$1@?0???$use_facet@V?$ctype@D@std@@@std@@YAAEBV?$ctype@D@0@AEBVlocale@0@@Z@4HA
xdata	ENDS
;	COMDAT xdata
xdata	SEGMENT
$cppxdata$??$use_facet@V?$ctype@D@std@@@std@@YAAEBV?$ctype@D@0@AEBVlocale@0@@Z DB 028H
	DD	imagerel $stateUnwindMap$??$use_facet@V?$ctype@D@std@@@std@@YAAEBV?$ctype@D@0@AEBVlocale@0@@Z
	DD	imagerel $ip2state$??$use_facet@V?$ctype@D@std@@@std@@YAAEBV?$ctype@D@0@AEBVlocale@0@@Z
xdata	ENDS
;	COMDAT xdata
xdata	SEGMENT
$unwind$??$use_facet@V?$ctype@D@std@@@std@@YAAEBV?$ctype@D@0@AEBVlocale@0@@Z DD 025053d19H
	DD	010e2313H
	DD	070070039H
	DD	05006H
	DD	imagerel __GSHandlerCheck_EH4
	DD	imagerel $cppxdata$??$use_facet@V?$ctype@D@std@@@std@@YAAEBV?$ctype@D@0@AEBVlocale@0@@Z
	DD	01baH
xdata	ENDS
;	COMDAT CONST
CONST	SEGMENT
??$use_facet@V?$ctype@D@std@@@std@@YAAEBV?$ctype@D@0@AEBVlocale@0@@Z$rtcName$0 DB 05fH ; std::use_facet<std::ctype<char> >
	DB	04cH
	DB	06fH
	DB	063H
	DB	06bH
	DB	00H
	ORG $+2
??$use_facet@V?$ctype@D@std@@@std@@YAAEBV?$ctype@D@0@AEBVlocale@0@@Z$rtcName$1 DB 05fH ; std::use_facet<std::ctype<char> >
	DB	050H
	DB	073H
	DB	061H
	DB	076H
	DB	065H
	DB	00H
	ORG $+1
??$use_facet@V?$ctype@D@std@@@std@@YAAEBV?$ctype@D@0@AEBVlocale@0@@Z$rtcName$2 DB 05fH ; std::use_facet<std::ctype<char> >
	DB	050H
	DB	073H
	DB	061H
	DB	076H
	DB	065H
	DB	05fH
	DB	067H
	DB	075H
	DB	061H
	DB	072H
	DB	064H
	DB	00H
	ORG $+3
??$use_facet@V?$ctype@D@std@@@std@@YAAEBV?$ctype@D@0@AEBVlocale@0@@Z$rtcVarDesc DD 0c8H ; std::use_facet<std::ctype<char> >
	DD	08H
	DQ	FLAT:??$use_facet@V?$ctype@D@std@@@std@@YAAEBV?$ctype@D@0@AEBVlocale@0@@Z$rtcName$2
	DD	048H
	DD	08H
	DQ	FLAT:??$use_facet@V?$ctype@D@std@@@std@@YAAEBV?$ctype@D@0@AEBVlocale@0@@Z$rtcName$1
	DD	024H
	DD	04H
	DQ	FLAT:??$use_facet@V?$ctype@D@std@@@std@@YAAEBV?$ctype@D@0@AEBVlocale@0@@Z$rtcName$0
	ORG $+144
??$use_facet@V?$ctype@D@std@@@std@@YAAEBV?$ctype@D@0@AEBVlocale@0@@Z$rtcFrameData DD 03H ; std::use_facet<std::ctype<char> >
	DD	00H
	DQ	FLAT:??$use_facet@V?$ctype@D@std@@@std@@YAAEBV?$ctype@D@0@AEBVlocale@0@@Z$rtcVarDesc
CONST	ENDS
;	COMDAT voltbl
voltbl	SEGMENT
_volmd	DW	040H
	DW	0231H
voltbl	ENDS
;	COMDAT xdata
xdata	SEGMENT
$unwind$??$_Maklocstr@_W@std@@YAPEA_WPEBDPEA_WAEBU_Cvtvec@@@Z DD 035054719H
	DD	0118331dH
	DD	070110047H
	DD	05010H
	DD	imagerel __GSHandlerCheck
	DD	0228H
xdata	ENDS
;	COMDAT CONST
CONST	SEGMENT
??$_Maklocstr@_W@std@@YAPEA_WPEBDPEA_WAEBU_Cvtvec@@@Z$rtcName$0 DB 05fH ; std::_Maklocstr<wchar_t>
	DB	057H
	DB	063H
	DB	00H
??$_Maklocstr@_W@std@@YAPEA_WPEBDPEA_WAEBU_Cvtvec@@@Z$rtcName$1 DB 05fH ; std::_Maklocstr<wchar_t>
	DB	04dH
	DB	062H
	DB	073H
	DB	074H
	DB	031H
	DB	00H
	ORG $+1
??$_Maklocstr@_W@std@@YAPEA_WPEBDPEA_WAEBU_Cvtvec@@@Z$rtcName$2 DB 05fH ; std::_Maklocstr<wchar_t>
	DB	04dH
	DB	062H
	DB	073H
	DB	074H
	DB	032H
	DB	00H
	ORG $+13
??$_Maklocstr@_W@std@@YAPEA_WPEBDPEA_WAEBU_Cvtvec@@@Z$rtcVarDesc DD 0158H ; std::_Maklocstr<wchar_t>
	DD	08H
	DQ	FLAT:??$_Maklocstr@_W@std@@YAPEA_WPEBDPEA_WAEBU_Cvtvec@@@Z$rtcName$2
	DD	0f8H
	DD	08H
	DQ	FLAT:??$_Maklocstr@_W@std@@YAPEA_WPEBDPEA_WAEBU_Cvtvec@@@Z$rtcName$1
	DD	0d4H
	DD	02H
	DQ	FLAT:??$_Maklocstr@_W@std@@YAPEA_WPEBDPEA_WAEBU_Cvtvec@@@Z$rtcName$0
	ORG $+144
??$_Maklocstr@_W@std@@YAPEA_WPEBDPEA_WAEBU_Cvtvec@@@Z$rtcFrameData DD 03H ; std::_Maklocstr<wchar_t>
	DD	00H
	DQ	FLAT:??$_Maklocstr@_W@std@@YAPEA_WPEBDPEA_WAEBU_Cvtvec@@@Z$rtcVarDesc
CONST	ENDS
;	COMDAT xdata
xdata	SEGMENT
$unwind$?_Getfacet@locale@std@@QEBAPEBVfacet@12@_K@Z DD 025051801H
	DD	01132318H
	DD	0700c0025H
	DD	0500bH
xdata	ENDS
;	COMDAT xdata
xdata	SEGMENT
$unwind$??1locale@std@@QEAA@XZ DD 025051301H
	DD	010e2313H
	DD	070070023H
	DD	05006H
xdata	ENDS
;	COMDAT voltbl
voltbl	SEGMENT
_volmd	DB	02fH
voltbl	ENDS
;	COMDAT xdata
xdata	SEGMENT
$unwind$?_Decwref@_Ref_count_base@std@@QEAAXXZ DD 025051301H
	DD	010e2313H
	DD	07007001dH
	DD	05006H
xdata	ENDS
;	COMDAT voltbl
voltbl	SEGMENT
_volmd	DB	02fH
voltbl	ENDS
;	COMDAT xdata
xdata	SEGMENT
$unwind$?_Decref@_Ref_count_base@std@@QEAAXXZ DD 025051301H
	DD	010e2313H
	DD	07007001dH
	DD	05006H
xdata	ENDS
;	COMDAT xdata
xdata	SEGMENT
$unwind$?_Throw_bad_cast@std@@YAXXZ DD 025050f01H
	DD	010a230fH
	DD	070030023H
	DD	05002H
xdata	ENDS
;	COMDAT xdata
xdata	SEGMENT
$unwind$??_Gbad_cast@std@@UEAAPEAXI@Z DD 025051701H
	DD	01122317H
	DD	0700b001dH
	DD	0500aH
xdata	ENDS
;	COMDAT xdata
xdata	SEGMENT
$unwind$??0bad_cast@std@@QEAA@AEBV01@@Z DD 025051801H
	DD	01132318H
	DD	0700c001dH
	DD	0500bH
xdata	ENDS
;	COMDAT xdata
xdata	SEGMENT
$unwind$??1bad_cast@std@@UEAA@XZ DD 025051301H
	DD	010e2313H
	DD	07007001dH
	DD	05006H
xdata	ENDS
;	COMDAT xdata
xdata	SEGMENT
$unwind$??0bad_cast@std@@QEAA@XZ DD 025051301H
	DD	010e2313H
	DD	07007001dH
	DD	05006H
xdata	ENDS
;	COMDAT xdata
xdata	SEGMENT
$unwind$??1?$_Compressed_pair@V?$allocator@D@std@@V?$_String_val@U?$_Simple_types@D@std@@@2@$00@std@@QEAA@XZ DD 025051301H
	DD	010e2313H
	DD	07007001dH
	DD	05006H
xdata	ENDS
;	COMDAT xdata
xdata	SEGMENT
$unwind$?_Get_first@?$_Compressed_pair@V?$allocator@D@std@@V?$_String_val@U?$_Simple_types@D@std@@@2@$00@std@@QEBAAEBV?$allocator@D@2@XZ DD 025051301H
	DD	010e2313H
	DD	07007001dH
	DD	05006H
xdata	ENDS
;	COMDAT xdata
xdata	SEGMENT
$unwind$?_Get_first@?$_Compressed_pair@V?$allocator@D@std@@V?$_String_val@U?$_Simple_types@D@std@@@2@$00@std@@QEAAAEAV?$allocator@D@2@XZ DD 025051301H
	DD	010e2313H
	DD	07007001dH
	DD	05006H
xdata	ENDS
;	COMDAT xdata
xdata	SEGMENT
$unwind$?_Getal@?$basic_string@DU?$char_traits@D@std@@V?$allocator@D@2@@std@@AEBAAEBV?$allocator@D@2@XZ DD 025051301H
	DD	010e2313H
	DD	07007001dH
	DD	05006H
xdata	ENDS
;	COMDAT xdata
xdata	SEGMENT
$unwind$?_Getal@?$basic_string@DU?$char_traits@D@std@@V?$allocator@D@2@@std@@AEAAAEAV?$allocator@D@2@XZ DD 025051301H
	DD	010e2313H
	DD	07007001dH
	DD	05006H
xdata	ENDS
;	COMDAT xdata
xdata	SEGMENT
$unwind$?_Tidy_deallocate@?$basic_string@DU?$char_traits@D@std@@V?$allocator@D@2@@std@@AEAAXXZ DD 025051301H
	DD	010e2313H
	DD	07007002dH
	DD	05006H
xdata	ENDS
;	COMDAT xdata
xdata	SEGMENT
$unwind$?_Eos@?$basic_string@DU?$char_traits@D@std@@V?$allocator@D@2@@std@@AEAAX_K@Z DD 025051801H
	DD	01132318H
	DD	0700c0023H
	DD	0500bH
xdata	ENDS
;	COMDAT xdata
xdata	SEGMENT
$unwind$?_Calculate_growth@?$basic_string@DU?$char_traits@D@std@@V?$allocator@D@2@@std@@AEBA_K_K@Z DD 025051801H
	DD	01132318H
	DD	0700c001fH
	DD	0500bH
xdata	ENDS
;	COMDAT voltbl
voltbl	SEGMENT
_volmd	DB	040H
	DB	0f6H
voltbl	ENDS
;	COMDAT xdata
xdata	SEGMENT
$unwind$?_Calculate_growth@?$basic_string@DU?$char_traits@D@std@@V?$allocator@D@2@@std@@CA_K_K00@Z DD 025054719H
	DD	0118231dH
	DD	070110025H
	DD	05010H
	DD	imagerel __GSHandlerCheck
	DD	0118H
xdata	ENDS
;	COMDAT CONST
CONST	SEGMENT
?_Calculate_growth@?$basic_string@DU?$char_traits@D@std@@V?$allocator@D@2@@std@@CA_K_K00@Z$rtcName$0 DB 05fH ; std::basic_string<char,std::char_traits<char>,std::allocator<char> >::_Calculate_growth
	DB	04dH
	DB	061H
	DB	073H
	DB	06bH
	DB	065H
	DB	064H
	DB	00H
	ORG $+8
?_Calculate_growth@?$basic_string@DU?$char_traits@D@std@@V?$allocator@D@2@@std@@CA_K_K00@Z$rtcVarDesc DD 028H ; std::basic_string<char,std::char_traits<char>,std::allocator<char> >::_Calculate_growth
	DD	08H
	DQ	FLAT:?_Calculate_growth@?$basic_string@DU?$char_traits@D@std@@V?$allocator@D@2@@std@@CA_K_K00@Z$rtcName$0
	ORG $+48
?_Calculate_growth@?$basic_string@DU?$char_traits@D@std@@V?$allocator@D@2@@std@@CA_K_K00@Z$rtcFrameData DD 01H ; std::basic_string<char,std::char_traits<char>,std::allocator<char> >::_Calculate_growth
	DD	00H
	DQ	FLAT:?_Calculate_growth@?$basic_string@DU?$char_traits@D@std@@V?$allocator@D@2@@std@@CA_K_K00@Z$rtcVarDesc
CONST	ENDS
;	COMDAT voltbl
voltbl	SEGMENT
_volmd	DB	036H
	DB	0c9H
voltbl	ENDS
;	COMDAT xdata
xdata	SEGMENT
$unwind$?max_size@?$basic_string@DU?$char_traits@D@std@@V?$allocator@D@2@@std@@QEBA_KXZ DD 025053d19H
	DD	010e2313H
	DD	070070031H
	DD	05006H
	DD	imagerel __GSHandlerCheck
	DD	0178H
xdata	ENDS
;	COMDAT CONST
CONST	SEGMENT
?max_size@?$basic_string@DU?$char_traits@D@std@@V?$allocator@D@2@@std@@QEBA_KXZ$rtcName$0 DB 05fH ; std::basic_string<char,std::char_traits<char>,std::allocator<char> >::max_size
	DB	041H
	DB	06cH
	DB	06cH
	DB	06fH
	DB	063H
	DB	05fH
	DB	06dH
	DB	061H
	DB	078H
	DB	00H
	ORG $+5
?max_size@?$basic_string@DU?$char_traits@D@std@@V?$allocator@D@2@@std@@QEBA_KXZ$rtcVarDesc DD 028H ; std::basic_string<char,std::char_traits<char>,std::allocator<char> >::max_size
	DD	08H
	DQ	FLAT:?max_size@?$basic_string@DU?$char_traits@D@std@@V?$allocator@D@2@@std@@QEBA_KXZ$rtcName$0
	ORG $+48
?max_size@?$basic_string@DU?$char_traits@D@std@@V?$allocator@D@2@@std@@QEBA_KXZ$rtcFrameData DD 01H ; std::basic_string<char,std::char_traits<char>,std::allocator<char> >::max_size
	DD	00H
	DQ	FLAT:?max_size@?$basic_string@DU?$char_traits@D@std@@V?$allocator@D@2@@std@@QEBA_KXZ$rtcVarDesc
CONST	ENDS
;	COMDAT xdata
xdata	SEGMENT
$unwind$?push_back@?$basic_string@DU?$char_traits@D@std@@V?$allocator@D@2@@std@@QEAAXD@Z DD 025051701H
	DD	01122317H
	DD	0700b002dH
	DD	0500aH
xdata	ENDS
;	COMDAT xdata
xdata	SEGMENT
$unwind$?erase@?$basic_string@DU?$char_traits@D@std@@V?$allocator@D@2@@std@@QEAAAEAV12@_K@Z DD 025051801H
	DD	01132318H
	DD	0700c001fH
	DD	0500bH
xdata	ENDS
;	COMDAT voltbl
voltbl	SEGMENT
_volmd	DB	036H
	DB	0bdH
voltbl	ENDS
;	COMDAT xdata
xdata	SEGMENT
$unwind$??1?$basic_string@DU?$char_traits@D@std@@V?$allocator@D@2@@std@@QEAA@XZ DD 025053d19H
	DD	010e2313H
	DD	070070029H
	DD	05006H
	DD	imagerel __GSHandlerCheck
	DD	0138H
xdata	ENDS
;	COMDAT CONST
CONST	SEGMENT
??1?$basic_string@DU?$char_traits@D@std@@V?$allocator@D@2@@std@@QEAA@XZ$rtcName$0 DB 024H ; std::basic_string<char,std::char_traits<char>,std::allocator<char> >::~basic_string<char,std::char_traits<char>,std::allocator<char> >
	DB	053H
	DB	031H
	DB	039H
	DB	00H
	ORG $+11
??1?$basic_string@DU?$char_traits@D@std@@V?$allocator@D@2@@std@@QEAA@XZ$rtcVarDesc DD 044H ; std::basic_string<char,std::char_traits<char>,std::allocator<char> >::~basic_string<char,std::char_traits<char>,std::allocator<char> >
	DD	01H
	DQ	FLAT:??1?$basic_string@DU?$char_traits@D@std@@V?$allocator@D@2@@std@@QEAA@XZ$rtcName$0
	ORG $+48
??1?$basic_string@DU?$char_traits@D@std@@V?$allocator@D@2@@std@@QEAA@XZ$rtcFrameData DD 01H ; std::basic_string<char,std::char_traits<char>,std::allocator<char> >::~basic_string<char,std::char_traits<char>,std::allocator<char> >
	DD	00H
	DQ	FLAT:??1?$basic_string@DU?$char_traits@D@std@@V?$allocator@D@2@@std@@QEAA@XZ$rtcVarDesc
CONST	ENDS
;	COMDAT xdata
xdata	SEGMENT
$ip2state$?_Deallocate_for_capacity@?$basic_string@DU?$char_traits@D@std@@V?$allocator@D@2@@std@@CAXAEAV?$allocator@D@2@QEAD_K@Z DB 02H
	DB	00H
	DB	00H
xdata	ENDS
;	COMDAT xdata
xdata	SEGMENT
$cppxdata$?_Deallocate_for_capacity@?$basic_string@DU?$char_traits@D@std@@V?$allocator@D@2@@std@@CAXAEAV?$allocator@D@2@QEAD_K@Z DB 060H
	DD	imagerel $ip2state$?_Deallocate_for_capacity@?$basic_string@DU?$char_traits@D@std@@V?$allocator@D@2@@std@@CAXAEAV?$allocator@D@2@QEAD_K@Z
xdata	ENDS
;	COMDAT xdata
xdata	SEGMENT
$unwind$?_Deallocate_for_capacity@?$basic_string@DU?$char_traits@D@std@@V?$allocator@D@2@@std@@CAXAEAV?$allocator@D@2@QEAD_K@Z DD 025051d19H
	DD	0118231dH
	DD	07011001dH
	DD	05010H
	DD	imagerel __CxxFrameHandler4
	DD	imagerel $cppxdata$?_Deallocate_for_capacity@?$basic_string@DU?$char_traits@D@std@@V?$allocator@D@2@@std@@CAXAEAV?$allocator@D@2@QEAD_K@Z
xdata	ENDS
;	COMDAT voltbl
voltbl	SEGMENT
_volmd	DB	00H
	DB	05H
voltbl	ENDS
;	COMDAT xdata
xdata	SEGMENT
$unwind$?dtor$0@?0???0?$basic_string@DU?$char_traits@D@std@@V?$allocator@D@2@@std@@QEAA@QEBD@Z@4HA DD 031001H
	DD	0700c4210H
	DD	0500bH
xdata	ENDS
;	COMDAT xdata
xdata	SEGMENT
$ip2state$??0?$basic_string@DU?$char_traits@D@std@@V?$allocator@D@2@@std@@QEAA@QEBD@Z DB 06H
	DB	00H
	DB	00H
	DB	08cH
	DB	02H
	DB	'V'
	DB	00H
xdata	ENDS
;	COMDAT xdata
xdata	SEGMENT
$stateUnwindMap$??0?$basic_string@DU?$char_traits@D@std@@V?$allocator@D@2@@std@@QEAA@QEBD@Z DB 02H
	DB	0eH
	DD	imagerel ?dtor$0@?0???0?$basic_string@DU?$char_traits@D@std@@V?$allocator@D@2@@std@@QEAA@QEBD@Z@4HA
xdata	ENDS
;	COMDAT xdata
xdata	SEGMENT
$cppxdata$??0?$basic_string@DU?$char_traits@D@std@@V?$allocator@D@2@@std@@QEAA@QEBD@Z DB 028H
	DD	imagerel $stateUnwindMap$??0?$basic_string@DU?$char_traits@D@std@@V?$allocator@D@2@@std@@QEAA@QEBD@Z
	DD	imagerel $ip2state$??0?$basic_string@DU?$char_traits@D@std@@V?$allocator@D@2@@std@@QEAA@QEBD@Z
xdata	ENDS
;	COMDAT xdata
xdata	SEGMENT
$unwind$??0?$basic_string@DU?$char_traits@D@std@@V?$allocator@D@2@@std@@QEAA@QEBD@Z DD 025051811H
	DD	01132318H
	DD	0700c0021H
	DD	0500bH
	DD	imagerel __CxxFrameHandler4
	DD	imagerel $cppxdata$??0?$basic_string@DU?$char_traits@D@std@@V?$allocator@D@2@@std@@QEAA@QEBD@Z
xdata	ENDS
;	COMDAT voltbl
voltbl	SEGMENT
_volmd	DB	00H
	DB	05H
voltbl	ENDS
;	COMDAT xdata
xdata	SEGMENT
$unwind$?dtor$0@?0???0?$basic_string@DU?$char_traits@D@std@@V?$allocator@D@2@@std@@QEAA@AEBV01@@Z@4HA DD 031001H
	DD	0700c4210H
	DD	0500bH
xdata	ENDS
;	COMDAT xdata
xdata	SEGMENT
$ip2state$??0?$basic_string@DU?$char_traits@D@std@@V?$allocator@D@2@@std@@QEAA@AEBV01@@Z DB 06H
	DB	00H
	DB	00H
	DB	0f8H
	DB	02H
	DB	086H
	DB	00H
xdata	ENDS
;	COMDAT xdata
xdata	SEGMENT
$stateUnwindMap$??0?$basic_string@DU?$char_traits@D@std@@V?$allocator@D@2@@std@@QEAA@AEBV01@@Z DB 02H
	DB	0eH
	DD	imagerel ?dtor$0@?0???0?$basic_string@DU?$char_traits@D@std@@V?$allocator@D@2@@std@@QEAA@AEBV01@@Z@4HA
xdata	ENDS
;	COMDAT xdata
xdata	SEGMENT
$cppxdata$??0?$basic_string@DU?$char_traits@D@std@@V?$allocator@D@2@@std@@QEAA@AEBV01@@Z DB 028H
	DD	imagerel $stateUnwindMap$??0?$basic_string@DU?$char_traits@D@std@@V?$allocator@D@2@@std@@QEAA@AEBV01@@Z
	DD	imagerel $ip2state$??0?$basic_string@DU?$char_traits@D@std@@V?$allocator@D@2@@std@@QEAA@AEBV01@@Z
xdata	ENDS
;	COMDAT xdata
xdata	SEGMENT
$unwind$??0?$basic_string@DU?$char_traits@D@std@@V?$allocator@D@2@@std@@QEAA@AEBV01@@Z DD 025051811H
	DD	01132318H
	DD	0700c002bH
	DD	0500bH
	DD	imagerel __CxxFrameHandler4
	DD	imagerel $cppxdata$??0?$basic_string@DU?$char_traits@D@std@@V?$allocator@D@2@@std@@QEAA@AEBV01@@Z
xdata	ENDS
;	COMDAT xdata
xdata	SEGMENT
$unwind$??1?$_String_val@U?$_Simple_types@D@std@@@std@@QEAA@XZ DD 025051301H
	DD	010e2313H
	DD	07007001dH
	DD	05006H
xdata	ENDS
;	COMDAT xdata
xdata	SEGMENT
$unwind$??1_Bxty@?$_String_val@U?$_Simple_types@D@std@@@std@@QEAA@XZ DD 025051301H
	DD	010e2313H
	DD	07007001dH
	DD	05006H
xdata	ENDS
;	COMDAT xdata
xdata	SEGMENT
$unwind$??0_Bxty@?$_String_val@U?$_Simple_types@D@std@@@std@@QEAA@XZ DD 025051301H
	DD	010e2313H
	DD	07007001dH
	DD	05006H
xdata	ENDS
;	COMDAT xdata
xdata	SEGMENT
$unwind$?_Xran@?$_String_val@U?$_Simple_types@D@std@@@std@@SAXXZ DD 025050f01H
	DD	010a230fH
	DD	07003001dH
	DD	05002H
xdata	ENDS
;	COMDAT xdata
xdata	SEGMENT
$unwind$?_Check_offset@?$_String_val@U?$_Simple_types@D@std@@@std@@QEBAX_K@Z DD 025051801H
	DD	01132318H
	DD	0700c001dH
	DD	0500bH
xdata	ENDS
;	COMDAT xdata
xdata	SEGMENT
$unwind$?_Activate_SSO_buffer@?$_String_val@U?$_Simple_types@D@std@@@std@@QEAAXXZ DD 025051301H
	DD	010e2313H
	DD	070070021H
	DD	05006H
xdata	ENDS
;	COMDAT xdata
xdata	SEGMENT
$unwind$?_Large_mode_engaged@?$_String_val@U?$_Simple_types@D@std@@@std@@QEBA_NXZ DD 025051301H
	DD	010e2313H
	DD	07007001fH
	DD	05006H
xdata	ENDS
;	COMDAT xdata
xdata	SEGMENT
$unwind$?_Myptr@?$_String_val@U?$_Simple_types@D@std@@@std@@QEBAPEBDXZ DD 025051301H
	DD	010e2313H
	DD	070070021H
	DD	05006H
xdata	ENDS
;	COMDAT xdata
xdata	SEGMENT
$unwind$?_Myptr@?$_String_val@U?$_Simple_types@D@std@@@std@@QEAAPEADXZ DD 025051301H
	DD	010e2313H
	DD	070070021H
	DD	05006H
xdata	ENDS
;	COMDAT xdata
xdata	SEGMENT
$unwind$??0?$_String_val@U?$_Simple_types@D@std@@@std@@QEAA@XZ DD 025051301H
	DD	010e2313H
	DD	07007001dH
	DD	05006H
xdata	ENDS
;	COMDAT xdata
xdata	SEGMENT
$unwind$?select_on_container_copy_construction@?$_Default_allocator_traits@V?$allocator@D@std@@@std@@SA?AV?$allocator@D@2@AEBV32@@Z DD 025051801H
	DD	01132318H
	DD	0700c001dH
	DD	0500bH
xdata	ENDS
;	COMDAT xdata
xdata	SEGMENT
$unwind$?max_size@?$_Default_allocator_traits@V?$allocator@D@std@@@std@@SA_KAEBV?$allocator@D@2@@Z DD 025051301H
	DD	010e2313H
	DD	07007001dH
	DD	05006H
xdata	ENDS
;	COMDAT xdata
xdata	SEGMENT
$unwind$?allocate@?$allocator@D@std@@QEAAPEAD_K@Z DD 025051801H
	DD	01132318H
	DD	0700c001dH
	DD	0500bH
xdata	ENDS
;	COMDAT xdata
xdata	SEGMENT
$unwind$?deallocate@?$allocator@D@std@@QEAAXQEAD_K@Z DD 035051d01H
	DD	0118331dH
	DD	07011001fH
	DD	05010H
xdata	ENDS
;	COMDAT xdata
xdata	SEGMENT
$unwind$??0?$allocator@D@std@@QEAA@XZ DD 025051301H
	DD	010e2313H
	DD	07007001dH
	DD	05006H
xdata	ENDS
;	COMDAT xdata
xdata	SEGMENT
$unwind$?_Xlen_string@std@@YAXXZ DD 025050f01H
	DD	010a230fH
	DD	07003001dH
	DD	05002H
xdata	ENDS
;	COMDAT xdata
xdata	SEGMENT
$unwind$?eof@?$_Narrow_char_traits@DH@std@@SAHXZ DD 025050f01H
	DD	010a230fH
	DD	07003001dH
	DD	05002H
xdata	ENDS
;	COMDAT xdata
xdata	SEGMENT
$unwind$?eq_int_type@?$_Narrow_char_traits@DH@std@@SA_NHH@Z DD 025051601H
	DD	01112316H
	DD	0700a001fH
	DD	05009H
xdata	ENDS
;	COMDAT xdata
xdata	SEGMENT
$unwind$?to_char_type@?$_Narrow_char_traits@DH@std@@SADH@Z DD 025051201H
	DD	010d2312H
	DD	07006001dH
	DD	05005H
xdata	ENDS
;	COMDAT xdata
xdata	SEGMENT
$unwind$?assign@?$_Narrow_char_traits@DH@std@@SAXAEADAEBD@Z DD 025051801H
	DD	01132318H
	DD	0700c001dH
	DD	0500bH
xdata	ENDS
;	COMDAT xdata
xdata	SEGMENT
$unwind$?length@?$_Narrow_char_traits@DH@std@@SA_KQEBD@Z DD 025051301H
	DD	010e2313H
	DD	07007001fH
	DD	05006H
xdata	ENDS
;	COMDAT xdata
xdata	SEGMENT
$unwind$?assign@?$_Char_traits@DH@std@@SAXAEADAEBD@Z DD 025051801H
	DD	01132318H
	DD	0700c001dH
	DD	0500bH
xdata	ENDS
;	COMDAT xdata
xdata	SEGMENT
$unwind$?copy@?$_Char_traits@DH@std@@SAPEADQEADQEBD_K@Z DD 025051d01H
	DD	0118231dH
	DD	070110021H
	DD	05010H
xdata	ENDS
;	COMDAT xdata
xdata	SEGMENT
$unwind$??$_Construct_in_place@U_Container_proxy@std@@PEAU_Container_base12@2@@std@@YAXAEAU_Container_proxy@0@$$QEAPEAU_Container_base12@0@@Z DD 025051801H
	DD	01132318H
	DD	0700c0021H
	DD	0500bH
xdata	ENDS
;	COMDAT xdata
xdata	SEGMENT
$unwind$??$addressof@U_Container_base12@std@@@std@@YAPEAU_Container_base12@0@AEAU10@@Z DD 025051301H
	DD	010e2313H
	DD	07007001dH
	DD	05006H
xdata	ENDS
;	COMDAT xdata
xdata	SEGMENT
$unwind$??0_Basic_container_proxy_ptr12@std@@IEAA@XZ DD 025051301H
	DD	010e2313H
	DD	07007001dH
	DD	05006H
xdata	ENDS
;	COMDAT xdata
xdata	SEGMENT
$unwind$?_Release@_Basic_container_proxy_ptr12@std@@QEAAXXZ DD 025051301H
	DD	010e2313H
	DD	07007001dH
	DD	05006H
xdata	ENDS
;	COMDAT xdata
xdata	SEGMENT
$unwind$??$exchange@PEAU_Iterator_base12@std@@$$T@std@@YAPEAU_Iterator_base12@0@AEAPEAU10@$$QEA$$T@Z DD 025051801H
	DD	01132318H
	DD	0700c0021H
	DD	0500bH
xdata	ENDS
;	COMDAT voltbl
voltbl	SEGMENT
_volmd	DB	036H
	DB	07eH
voltbl	ENDS
;	COMDAT xdata
xdata	SEGMENT
$unwind$?_Orphan_all_locked_v3@_Container_base12@std@@AEAAXXZ DD 025053d19H
	DD	010e2313H
	DD	070070021H
	DD	05006H
	DD	imagerel __GSHandlerCheck
	DD	0f8H
xdata	ENDS
;	COMDAT CONST
CONST	SEGMENT
?_Orphan_all_locked_v3@_Container_base12@std@@AEAAXXZ$rtcName$0 DB 05fH ; std::_Container_base12::_Orphan_all_locked_v3
	DB	04cH
	DB	06fH
	DB	063H
	DB	06bH
	DB	00H
	ORG $+10
?_Orphan_all_locked_v3@_Container_base12@std@@AEAAXXZ$rtcVarDesc DD 024H ; std::_Container_base12::_Orphan_all_locked_v3
	DD	04H
	DQ	FLAT:?_Orphan_all_locked_v3@_Container_base12@std@@AEAAXXZ$rtcName$0
	ORG $+48
?_Orphan_all_locked_v3@_Container_base12@std@@AEAAXXZ$rtcFrameData DD 01H ; std::_Container_base12::_Orphan_all_locked_v3
	DD	00H
	DQ	FLAT:?_Orphan_all_locked_v3@_Container_base12@std@@AEAAXXZ$rtcVarDesc
CONST	ENDS
;	COMDAT xdata
xdata	SEGMENT
$unwind$?_Orphan_all_unlocked_v3@_Container_base12@std@@AEAAXXZ DD 025051301H
	DD	010e2313H
	DD	070070025H
	DD	05006H
xdata	ENDS
;	COMDAT xdata
xdata	SEGMENT
$unwind$?_Orphan_all@_Container_base12@std@@QEAAXXZ DD 025051301H
	DD	010e2313H
	DD	07007001dH
	DD	05006H
xdata	ENDS
;	COMDAT xdata
xdata	SEGMENT
$unwind$??0_Container_base12@std@@QEAA@XZ DD 025051301H
	DD	010e2313H
	DD	07007001dH
	DD	05006H
xdata	ENDS
;	COMDAT xdata
xdata	SEGMENT
$unwind$??0_Container_proxy@std@@QEAA@PEAU_Container_base12@1@@Z DD 025051801H
	DD	01132318H
	DD	0700c001dH
	DD	0500bH
xdata	ENDS
;	COMDAT xdata
xdata	SEGMENT
$unwind$?_Adjust_manually_vector_aligned@std@@YAXAEAPEAXAEA_K@Z DD 035051801H
	DD	01133318H
	DD	0700c002fH
	DD	0500bH
xdata	ENDS
;	COMDAT xdata
xdata	SEGMENT
$unwind$?_Allocate@_Default_allocate_traits@std@@SAPEAX_K@Z DD 025051301H
	DD	010e2313H
	DD	07007001dH
	DD	05006H
xdata	ENDS
;	COMDAT xdata
xdata	SEGMENT
$unwind$?max@?$numeric_limits@_J@std@@SA_JXZ DD 025050f01H
	DD	010a230fH
	DD	07003001dH
	DD	05002H
xdata	ENDS
;	COMDAT xdata
xdata	SEGMENT
$unwind$wmemcpy DD 025051d01H
	DD	0118231dH
	DD	07011001dH
	DD	05010H
xdata	ENDS
;	COMDAT xdata
xdata	SEGMENT
$unwind$?_Throw_bad_array_new_length@std@@YAXXZ DD 025050f01H
	DD	010a230fH
	DD	070030023H
	DD	05002H
xdata	ENDS
;	COMDAT xdata
xdata	SEGMENT
$unwind$??_Gbad_array_new_length@std@@UEAAPEAXI@Z DD 025051701H
	DD	01122317H
	DD	0700b001dH
	DD	0500aH
xdata	ENDS
;	COMDAT xdata
xdata	SEGMENT
$unwind$??0bad_array_new_length@std@@QEAA@AEBV01@@Z DD 025051801H
	DD	01132318H
	DD	0700c001dH
	DD	0500bH
xdata	ENDS
;	COMDAT xdata
xdata	SEGMENT
$unwind$??1bad_array_new_length@std@@UEAA@XZ DD 025051301H
	DD	010e2313H
	DD	07007001dH
	DD	05006H
xdata	ENDS
;	COMDAT xdata
xdata	SEGMENT
$unwind$??0bad_array_new_length@std@@QEAA@XZ DD 025051301H
	DD	010e2313H
	DD	07007001dH
	DD	05006H
xdata	ENDS
;	COMDAT xdata
xdata	SEGMENT
$unwind$??_Gbad_alloc@std@@UEAAPEAXI@Z DD 025051701H
	DD	01122317H
	DD	0700b001dH
	DD	0500aH
xdata	ENDS
;	COMDAT xdata
xdata	SEGMENT
$unwind$??0bad_alloc@std@@QEAA@AEBV01@@Z DD 025051801H
	DD	01132318H
	DD	0700c001dH
	DD	0500bH
xdata	ENDS
;	COMDAT xdata
xdata	SEGMENT
$unwind$??1bad_alloc@std@@UEAA@XZ DD 025051301H
	DD	010e2313H
	DD	07007001dH
	DD	05006H
xdata	ENDS
;	COMDAT xdata
xdata	SEGMENT
$unwind$??0bad_alloc@std@@AEAA@QEBD@Z DD 025051801H
	DD	01132318H
	DD	0700c001dH
	DD	0500bH
xdata	ENDS
;	COMDAT xdata
xdata	SEGMENT
$unwind$??_Gexception@std@@UEAAPEAXI@Z DD 025051701H
	DD	01122317H
	DD	0700b001dH
	DD	0500aH
xdata	ENDS
;	COMDAT xdata
xdata	SEGMENT
$unwind$?what@exception@std@@UEBAPEBDXZ DD 025051301H
	DD	010e2313H
	DD	07007001fH
	DD	05006H
xdata	ENDS
;	COMDAT xdata
xdata	SEGMENT
$unwind$??1exception@std@@UEAA@XZ DD 025051301H
	DD	010e2313H
	DD	07007001dH
	DD	05006H
xdata	ENDS
;	COMDAT xdata
xdata	SEGMENT
$unwind$??0exception@std@@QEAA@AEBV01@@Z DD 025051801H
	DD	01132318H
	DD	0700c001dH
	DD	0500bH
xdata	ENDS
;	COMDAT xdata
xdata	SEGMENT
$unwind$??0exception@std@@QEAA@QEBDH@Z DD 025051d01H
	DD	0118231dH
	DD	07011001dH
	DD	05010H
xdata	ENDS
;	COMDAT xdata
xdata	SEGMENT
$unwind$?is_constant_evaluated@std@@YA_NXZ DD 025050f01H
	DD	010a230fH
	DD	07003001dH
	DD	05002H
xdata	ENDS
;	COMDAT xdata
xdata	SEGMENT
$unwind$??2@YAPEAX_KPEAX@Z DD 025051801H
	DD	01132318H
	DD	0700c001dH
	DD	0500bH
xdata	ENDS
;	COMDAT xdata
xdata	SEGMENT
$unwind$?__empty_global_delete@@YAXPEAX_KW4align_val_t@std@@@Z DD 025051d01H
	DD	0118231dH
	DD	07011001dH
	DD	05010H
xdata	ENDS
;	COMDAT xdata
xdata	SEGMENT
$unwind$?__empty_global_delete@@YAXPEAXW4align_val_t@std@@@Z DD 025051801H
	DD	01132318H
	DD	0700c001dH
	DD	0500bH
xdata	ENDS
;	COMDAT xdata
xdata	SEGMENT
$unwind$?__empty_global_delete@@YAXPEAX_K@Z DD 025051801H
	DD	01132318H
	DD	0700c001dH
	DD	0500bH
xdata	ENDS
;	COMDAT xdata
xdata	SEGMENT
$unwind$?__empty_global_delete@@YAXPEAX@Z DD 025051301H
	DD	010e2313H
	DD	07007001dH
	DD	05006H
xdata	ENDS
; Function compile flags: /Odt
;	COMDAT __JustMyCode_Default
_TEXT	SEGMENT
__JustMyCode_Default PROC				; COMDAT
	ret	0
__JustMyCode_Default ENDP
_TEXT	ENDS
; Function compile flags: /Odtp /RTCsu /ZI
; File C:\Program Files\Microsoft Visual Studio\2022\Community\VC\Tools\MSVC\14.38.33130\include\xmemory
;	COMDAT ??$_Allocate_manually_vector_aligned@U_Default_allocate_traits@std@@@std@@YAPEAX_K@Z
_TEXT	SEGMENT
_Block_size$ = 8
_Ptr_container$ = 40
_Ptr$ = 72
_Bytes$ = 320
??$_Allocate_manually_vector_aligned@U_Default_allocate_traits@std@@@std@@YAPEAX_K@Z PROC ; std::_Allocate_manually_vector_aligned<std::_Default_allocate_traits>, COMDAT

; 136  : __declspec(allocator) void* _Allocate_manually_vector_aligned(const size_t _Bytes) {

$LN13:
	mov	QWORD PTR [rsp+8], rcx
	push	rbp
	push	rdi
	sub	rsp, 344				; 00000158H
	lea	rbp, QWORD PTR [rsp+48]
	lea	rcx, OFFSET FLAT:__53DEE440_xmemory
	call	__CheckForDebuggerJustMyCode

; 137  :     // allocate _Bytes manually aligned to at least _Big_allocation_alignment
; 138  :     const size_t _Block_size = _Non_user_size + _Bytes;

	mov	rax, QWORD PTR _Bytes$[rbp]
	add	rax, 47					; 0000002fH
	mov	QWORD PTR _Block_size$[rbp], rax

; 139  :     if (_Block_size <= _Bytes) {

	mov	rax, QWORD PTR _Bytes$[rbp]
	cmp	QWORD PTR _Block_size$[rbp], rax
	ja	SHORT $LN8@Allocate_m

; 140  :         _Throw_bad_array_new_length(); // add overflow

	call	?_Throw_bad_array_new_length@std@@YAXXZ	; std::_Throw_bad_array_new_length
$LN8@Allocate_m:

; 141  :     }
; 142  : 
; 143  :     const uintptr_t _Ptr_container = reinterpret_cast<uintptr_t>(_Traits::_Allocate(_Block_size));

	mov	rcx, QWORD PTR _Block_size$[rbp]
	call	?_Allocate@_Default_allocate_traits@std@@SAPEAX_K@Z ; std::_Default_allocate_traits::_Allocate
	mov	QWORD PTR _Ptr_container$[rbp], rax
$LN4@Allocate_m:

; 144  :     _STL_VERIFY(_Ptr_container != 0, "invalid argument"); // validate even in release since we're doing p[-1]

	cmp	QWORD PTR _Ptr_container$[rbp], 0
	je	SHORT $LN9@Allocate_m
	jmp	SHORT $LN10@Allocate_m
$LN9@Allocate_m:
$LN7@Allocate_m:
	lea	rax, OFFSET FLAT:??_C@_0BB@FCMFBGOM@invalid?5argument@
	mov	QWORD PTR [rsp+40], rax
	lea	rax, OFFSET FLAT:??_C@_02DKCKIIND@?$CFs@
	mov	QWORD PTR [rsp+32], rax
	xor	r9d, r9d
	mov	r8d, 144				; 00000090H
	lea	rdx, OFFSET FLAT:??_C@_0GC@MFPFMMDA@C?3?2Program?5Files?2Microsoft?5Visu@
	mov	ecx, 2
	call	QWORD PTR __imp__CrtDbgReport
	cmp	eax, 1
	jne	SHORT $LN12@Allocate_m
	int	3
	xor	eax, eax
$LN12@Allocate_m:
	mov	QWORD PTR [rsp+32], 0
	mov	r9d, 144				; 00000090H
	lea	r8, OFFSET FLAT:??_C@_1ME@HBHJKKLJ@?$AAC?$AA?3?$AA?2?$AAP?$AAr?$AAo?$AAg?$AAr?$AAa?$AAm?$AA?5?$AAF?$AAi?$AAl?$AAe@
	lea	rdx, OFFSET FLAT:??_C@_11LOCGONAA@@
	lea	rcx, OFFSET FLAT:??_C@_1CG@JNLFBNGN@?$AA?$CC?$AAi?$AAn?$AAv?$AAa?$AAl?$AAi?$AAd?$AA?5?$AAa?$AAr?$AAg?$AAu?$AAm?$AAe@
	call	QWORD PTR __imp__invalid_parameter
	xor	eax, eax
	test	eax, eax
	jne	SHORT $LN7@Allocate_m
$LN10@Allocate_m:
	xor	eax, eax
	test	eax, eax
	jne	SHORT $LN4@Allocate_m

; 145  :     void* const _Ptr = reinterpret_cast<void*>((_Ptr_container + _Non_user_size) & ~(_Big_allocation_alignment - 1));

	mov	rax, QWORD PTR _Ptr_container$[rbp]
	add	rax, 47					; 0000002fH
	and	rax, -32				; ffffffffffffffe0H
	mov	QWORD PTR _Ptr$[rbp], rax

; 146  :     static_cast<uintptr_t*>(_Ptr)[-1] = _Ptr_container;

	mov	eax, 8
	imul	rax, rax, -1
	mov	rcx, QWORD PTR _Ptr$[rbp]
	mov	rdx, QWORD PTR _Ptr_container$[rbp]
	mov	QWORD PTR [rcx+rax], rdx

; 147  : 
; 148  : #ifdef _DEBUG
; 149  :     static_cast<uintptr_t*>(_Ptr)[-2] = _Big_allocation_sentinel;

	mov	eax, 8
	imul	rax, rax, -2
	mov	rcx, QWORD PTR _Ptr$[rbp]
	mov	rdx, -361700864190383366		; fafafafafafafafaH
	mov	QWORD PTR [rcx+rax], rdx

; 150  : #endif // defined(_DEBUG)
; 151  :     return _Ptr;

	mov	rax, QWORD PTR _Ptr$[rbp]
$LN11@Allocate_m:

; 152  : }

	lea	rsp, QWORD PTR [rbp+296]
	pop	rdi
	pop	rbp
	ret	0
??$_Allocate_manually_vector_aligned@U_Default_allocate_traits@std@@@std@@YAPEAX_K@Z ENDP ; std::_Allocate_manually_vector_aligned<std::_Default_allocate_traits>
_TEXT	ENDS
; Function compile flags: /Odtp /RTCsu /ZI
; File C:\Program Files\Microsoft Visual Studio\2022\Community\VC\Tools\MSVC\14.38.33130\include\xmemory
;	COMDAT ??$destroy_at@Ufile_task@@@std@@YAXQEAUfile_task@@@Z
_TEXT	SEGMENT
_Location$ = 224
??$destroy_at@Ufile_task@@@std@@YAXQEAUfile_task@@@Z PROC ; std::destroy_at<file_task>, COMDAT

; 313  : _CONSTEXPR20 void destroy_at(_Ty* const _Location) noexcept /* strengthened */ {

$LN3:
	mov	QWORD PTR [rsp+8], rcx
	push	rbp
	push	rdi
	sub	rsp, 232				; 000000e8H
	lea	rbp, QWORD PTR [rsp+32]
	lea	rcx, OFFSET FLAT:__53DEE440_xmemory
	call	__CheckForDebuggerJustMyCode

; 314  : #if _HAS_CXX20
; 315  :     if constexpr (is_array_v<_Ty>) {
; 316  :         _Destroy_range(_STD begin(*_Location), _STD end(*_Location));
; 317  :     } else
; 318  : #endif // _HAS_CXX20
; 319  :     {
; 320  :         _Location->~_Ty();

	xor	edx, edx
	mov	rcx, QWORD PTR _Location$[rbp]
	call	??_Gfile_task@@QEAAPEAXI@Z

; 321  :     }
; 322  : }

	lea	rsp, QWORD PTR [rbp+200]
	pop	rdi
	pop	rbp
	ret	0
??$destroy_at@Ufile_task@@@std@@YAXQEAUfile_task@@@Z ENDP ; std::destroy_at<file_task>
_TEXT	ENDS
; Function compile flags: /Odtp /RTCsu /ZI
; File C:\Program Files\Microsoft Visual Studio\2022\Community\VC\Tools\MSVC\14.38.33130\include\xutility
;	COMDAT ??$construct_at@PEADAEBQEAD$0A@@std@@YAPEAPEADQEAPEADAEBQEAD@Z
_TEXT	SEGMENT
$T1 = 200
_Location$ = 256
<_Args_0>$ = 264
??$construct_at@PEADAEBQEAD$0A@@std@@YAPEAPEADQEAPEADAEBQEAD@Z PROC ; std::construct_at<char *,char * const &,0>, COMDAT

; 241  :     noexcept(::new(static_cast<void*>(_Location)) _Ty(_STD forward<_Types>(_Args)...))) /* strengthened */ {

$LN3:
	mov	QWORD PTR [rsp+16], rdx
	mov	QWORD PTR [rsp+8], rcx
	push	rbp
	push	rdi
	sub	rsp, 264				; 00000108H
	lea	rbp, QWORD PTR [rsp+32]
	lea	rcx, OFFSET FLAT:__81056E89_xutility
	call	__CheckForDebuggerJustMyCode

; 242  :     _MSVC_CONSTEXPR return ::new (static_cast<void*>(_Location)) _Ty(_STD forward<_Types>(_Args)...);

	mov	rdx, QWORD PTR _Location$[rbp]
	mov	ecx, 8
	call	??2@YAPEAX_KPEAX@Z			; operator new
	mov	QWORD PTR $T1[rbp], rax
	mov	rax, QWORD PTR $T1[rbp]
	mov	rcx, QWORD PTR <_Args_0>$[rbp]
	mov	rcx, QWORD PTR [rcx]
	mov	QWORD PTR [rax], rcx
	mov	rax, QWORD PTR $T1[rbp]

; 243  : }

	lea	rsp, QWORD PTR [rbp+232]
	pop	rdi
	pop	rbp
	ret	0
??$construct_at@PEADAEBQEAD$0A@@std@@YAPEAPEADQEAPEADAEBQEAD@Z ENDP ; std::construct_at<char *,char * const &,0>
_TEXT	ENDS
; Function compile flags: /Odtp /RTCsu /ZI
; File C:\Program Files\Microsoft Visual Studio\2022\Community\VC\Tools\MSVC\14.38.33130\include\xutility
;	COMDAT ??$construct_at@D$$V$0A@@std@@YAPEADQEAD@Z
_TEXT	SEGMENT
$T1 = 200
$T2 = 232
_Location$ = 288
??$construct_at@D$$V$0A@@std@@YAPEADQEAD@Z PROC		; std::construct_at<char,0>, COMDAT

; 241  :     noexcept(::new(static_cast<void*>(_Location)) _Ty(_STD forward<_Types>(_Args)...))) /* strengthened */ {

$LN3:
	mov	QWORD PTR [rsp+8], rcx
	push	rbp
	push	rdi
	sub	rsp, 296				; 00000128H
	lea	rbp, QWORD PTR [rsp+32]
	lea	rcx, OFFSET FLAT:__81056E89_xutility
	call	__CheckForDebuggerJustMyCode

; 242  :     _MSVC_CONSTEXPR return ::new (static_cast<void*>(_Location)) _Ty(_STD forward<_Types>(_Args)...);

	mov	QWORD PTR $T1[rbp], 1
	mov	rdx, QWORD PTR _Location$[rbp]
	mov	rcx, QWORD PTR $T1[rbp]
	call	??2@YAPEAX_KPEAX@Z			; operator new
	mov	QWORD PTR $T2[rbp], rax
	mov	rdi, QWORD PTR $T2[rbp]
	xor	eax, eax
	mov	rcx, QWORD PTR $T1[rbp]
	rep stosb
	mov	rax, QWORD PTR $T2[rbp]

; 243  : }

	lea	rsp, QWORD PTR [rbp+264]
	pop	rdi
	pop	rbp
	ret	0
??$construct_at@D$$V$0A@@std@@YAPEADQEAD@Z ENDP		; std::construct_at<char,0>
_TEXT	ENDS
; Function compile flags: /Odtp /RTCsu /ZI
; File C:\Program Files\Microsoft Visual Studio\2022\Community\VC\Tools\MSVC\14.38.33130\include\xmemory
;	COMDAT ?deallocate@?$_Default_allocator_traits@V?$allocator@U_Container_proxy@std@@@std@@@std@@SAXAEAV?$allocator@U_Container_proxy@std@@@2@QEAU_Container_proxy@2@_K@Z
_TEXT	SEGMENT
_Al$ = 224
_Ptr$ = 232
_Count$ = 240
?deallocate@?$_Default_allocator_traits@V?$allocator@U_Container_proxy@std@@@std@@@std@@SAXAEAV?$allocator@U_Container_proxy@std@@@2@QEAU_Container_proxy@2@_K@Z PROC ; std::_Default_allocator_traits<std::allocator<std::_Container_proxy> >::deallocate, COMDAT

; 705  :     static _CONSTEXPR20 void deallocate(_Alloc& _Al, const pointer _Ptr, const size_type _Count) {

$LN5:
	mov	QWORD PTR [rsp+24], r8
	mov	QWORD PTR [rsp+16], rdx
	mov	QWORD PTR [rsp+8], rcx
	push	rbp
	push	rdi
	sub	rsp, 232				; 000000e8H
	lea	rbp, QWORD PTR [rsp+32]
	lea	rcx, OFFSET FLAT:__53DEE440_xmemory
	call	__CheckForDebuggerJustMyCode

; 706  :         // no overflow check on the following multiply; we assume _Allocate did that check
; 707  : #if _HAS_CXX20 // TRANSITION, GH-1532
; 708  :         if (_STD is_constant_evaluated()) {

	call	?is_constant_evaluated@std@@YA_NXZ	; std::is_constant_evaluated
	movzx	eax, al
	test	eax, eax
	je	SHORT $LN2@deallocate

; 709  :             _Al.deallocate(_Ptr, _Count);

	mov	r8, QWORD PTR _Count$[rbp]
	mov	rdx, QWORD PTR _Ptr$[rbp]
	mov	rcx, QWORD PTR _Al$[rbp]
	call	?deallocate@?$allocator@U_Container_proxy@std@@@std@@QEAAXQEAU_Container_proxy@2@_K@Z ; std::allocator<std::_Container_proxy>::deallocate

; 710  :         } else

	jmp	SHORT $LN3@deallocate
$LN2@deallocate:

; 711  : #endif // _HAS_CXX20
; 712  :         {
; 713  :             (void) _Al;
; 714  :             _Deallocate<_New_alignof<value_type>>(_Ptr, sizeof(value_type) * _Count);

	imul	rax, QWORD PTR _Count$[rbp], 16
	mov	rdx, rax
	mov	rcx, QWORD PTR _Ptr$[rbp]
	call	??$_Deallocate@$0BA@$0A@@std@@YAXPEAX_K@Z ; std::_Deallocate<16,0>
$LN3@deallocate:

; 715  :         }
; 716  :     }

	lea	rsp, QWORD PTR [rbp+200]
	pop	rdi
	pop	rbp
	ret	0
?deallocate@?$_Default_allocator_traits@V?$allocator@U_Container_proxy@std@@@std@@@std@@SAXAEAV?$allocator@U_Container_proxy@std@@@2@QEAU_Container_proxy@2@_K@Z ENDP ; std::_Default_allocator_traits<std::allocator<std::_Container_proxy> >::deallocate
_TEXT	ENDS
; Function compile flags: /Odtp /RTCsu /ZI
; File C:\Program Files\Microsoft Visual Studio\2022\Community\VC\Tools\MSVC\14.38.33130\include\xmemory
;	COMDAT ??$?0AEAPEAV_Facet_base@std@@@?$_Compressed_pair@U?$default_delete@V_Facet_base@std@@@std@@PEAV_Facet_base@2@$00@std@@QEAA@U_Zero_then_variadic_args_t@1@AEAPEAV_Facet_base@1@@Z
_TEXT	SEGMENT
this$ = 224
__formal$ = 232
<_Val2_0>$ = 240
??$?0AEAPEAV_Facet_base@std@@@?$_Compressed_pair@U?$default_delete@V_Facet_base@std@@@std@@PEAV_Facet_base@2@$00@std@@QEAA@U_Zero_then_variadic_args_t@1@AEAPEAV_Facet_base@1@@Z PROC ; std::_Compressed_pair<std::default_delete<std::_Facet_base>,std::_Facet_base *,1>::_Compressed_pair<std::default_delete<std::_Facet_base>,std::_Facet_base *,1><std::_Facet_base * &>, COMDAT

; 1519 :         : _Ty1(), _Myval2(_STD forward<_Other2>(_Val2)...) {}

$LN3:
	mov	QWORD PTR [rsp+24], r8
	mov	BYTE PTR [rsp+16], dl
	mov	QWORD PTR [rsp+8], rcx
	push	rbp
	push	rdi
	sub	rsp, 232				; 000000e8H
	lea	rbp, QWORD PTR [rsp+32]
	lea	rcx, OFFSET FLAT:__53DEE440_xmemory
	call	__CheckForDebuggerJustMyCode
	mov	rax, QWORD PTR this$[rbp]
	mov	rcx, QWORD PTR <_Val2_0>$[rbp]
	mov	rcx, QWORD PTR [rcx]
	mov	QWORD PTR [rax], rcx
	mov	rax, QWORD PTR this$[rbp]
	lea	rsp, QWORD PTR [rbp+200]
	pop	rdi
	pop	rbp
	ret	0
??$?0AEAPEAV_Facet_base@std@@@?$_Compressed_pair@U?$default_delete@V_Facet_base@std@@@std@@PEAV_Facet_base@2@$00@std@@QEAA@U_Zero_then_variadic_args_t@1@AEAPEAV_Facet_base@1@@Z ENDP ; std::_Compressed_pair<std::default_delete<std::_Facet_base>,std::_Facet_base *,1>::_Compressed_pair<std::default_delete<std::_Facet_base>,std::_Facet_base *,1><std::_Facet_base * &>
_TEXT	ENDS
; Function compile flags: /Odtp /RTCsu /ZI
; File C:\Program Files\Microsoft Visual Studio\2022\Community\VC\Tools\MSVC\14.38.33130\include\xmemory
;	COMDAT ??$_Get_size_of_n@$00@std@@YA_K_K@Z
_TEXT	SEGMENT
_Overflow_is_possible$ = 4
_Count$ = 256
??$_Get_size_of_n@$00@std@@YA_K_K@Z PROC		; std::_Get_size_of_n<1>, COMDAT

; 64   : _NODISCARD constexpr size_t _Get_size_of_n(const size_t _Count) {

$LN3:
	mov	QWORD PTR [rsp+8], rcx
	push	rbp
	push	rdi
	sub	rsp, 264				; 00000108H
	lea	rbp, QWORD PTR [rsp+32]
	lea	rcx, OFFSET FLAT:__53DEE440_xmemory
	call	__CheckForDebuggerJustMyCode

; 65   :     constexpr bool _Overflow_is_possible = _Ty_size > 1;

	mov	BYTE PTR _Overflow_is_possible$[rbp], 0

; 66   : 
; 67   :     if constexpr (_Overflow_is_possible) {
; 68   :         constexpr size_t _Max_possible = static_cast<size_t>(-1) / _Ty_size;
; 69   :         if (_Count > _Max_possible) {
; 70   :             _Throw_bad_array_new_length(); // multiply overflow
; 71   :         }
; 72   :     }
; 73   : 
; 74   :     return _Count * _Ty_size;

	mov	rax, QWORD PTR _Count$[rbp]

; 75   : }

	lea	rsp, QWORD PTR [rbp+232]
	pop	rdi
	pop	rbp
	ret	0
??$_Get_size_of_n@$00@std@@YA_K_K@Z ENDP		; std::_Get_size_of_n<1>
_TEXT	ENDS
; Function compile flags: /Odtp /RTCsu /ZI
; File C:\Program Files\Microsoft Visual Studio\2022\Community\VC\Tools\MSVC\14.38.33130\include\xmemory
;	COMDAT ??$_Allocate@$0BA@U_Default_allocate_traits@std@@$0A@@std@@YAPEAX_K@Z
_TEXT	SEGMENT
_Bytes$ = 224
??$_Allocate@$0BA@U_Default_allocate_traits@std@@$0A@@std@@YAPEAX_K@Z PROC ; std::_Allocate<16,std::_Default_allocate_traits,0>, COMDAT

; 230  : __declspec(allocator) _CONSTEXPR20 void* _Allocate(const size_t _Bytes) {

$LN6:
	mov	QWORD PTR [rsp+8], rcx
	push	rbp
	push	rdi
	sub	rsp, 232				; 000000e8H
	lea	rbp, QWORD PTR [rsp+32]
	lea	rcx, OFFSET FLAT:__53DEE440_xmemory
	call	__CheckForDebuggerJustMyCode

; 231  :     // allocate _Bytes when !_HAS_ALIGNED_NEW || _Align <= __STDCPP_DEFAULT_NEW_ALIGNMENT__
; 232  : #if defined(_M_IX86) || defined(_M_X64)
; 233  : #if _HAS_CXX20 // TRANSITION, GH-1532
; 234  :     if (!_STD is_constant_evaluated())

	call	?is_constant_evaluated@std@@YA_NXZ	; std::is_constant_evaluated
	movzx	eax, al
	test	eax, eax
	jne	SHORT $LN2@Allocate

; 235  : #endif // _HAS_CXX20
; 236  :     {
; 237  :         if (_Bytes >= _Big_allocation_threshold) { // boost the alignment of big allocations to help autovectorization

	cmp	QWORD PTR _Bytes$[rbp], 4096		; 00001000H
	jb	SHORT $LN3@Allocate

; 238  :             return _Allocate_manually_vector_aligned<_Traits>(_Bytes);

	mov	rcx, QWORD PTR _Bytes$[rbp]
	call	??$_Allocate_manually_vector_aligned@U_Default_allocate_traits@std@@@std@@YAPEAX_K@Z ; std::_Allocate_manually_vector_aligned<std::_Default_allocate_traits>
	jmp	SHORT $LN1@Allocate
$LN3@Allocate:
$LN2@Allocate:

; 239  :         }
; 240  :     }
; 241  : #endif // defined(_M_IX86) || defined(_M_X64)
; 242  : 
; 243  :     if (_Bytes != 0) {

	cmp	QWORD PTR _Bytes$[rbp], 0
	je	SHORT $LN4@Allocate

; 244  :         return _Traits::_Allocate(_Bytes);

	mov	rcx, QWORD PTR _Bytes$[rbp]
	call	?_Allocate@_Default_allocate_traits@std@@SAPEAX_K@Z ; std::_Default_allocate_traits::_Allocate
	jmp	SHORT $LN1@Allocate
$LN4@Allocate:

; 245  :     }
; 246  : 
; 247  :     return nullptr;

	xor	eax, eax
$LN1@Allocate:

; 248  : }

	lea	rsp, QWORD PTR [rbp+200]
	pop	rdi
	pop	rbp
	ret	0
??$_Allocate@$0BA@U_Default_allocate_traits@std@@$0A@@std@@YAPEAX_K@Z ENDP ; std::_Allocate<16,std::_Default_allocate_traits,0>
_TEXT	ENDS
; Function compile flags: /Odtp /RTCsu /ZI
; File C:\Program Files\Microsoft Visual Studio\2022\Community\VC\Tools\MSVC\14.38.33130\include\xmemory
;	COMDAT ??$_Get_size_of_n@$0BA@@std@@YA_K_K@Z
_TEXT	SEGMENT
_Overflow_is_possible$ = 4
_Max_possible$1 = 40
_Count$ = 288
??$_Get_size_of_n@$0BA@@std@@YA_K_K@Z PROC		; std::_Get_size_of_n<16>, COMDAT

; 64   : _NODISCARD constexpr size_t _Get_size_of_n(const size_t _Count) {

$LN4:
	mov	QWORD PTR [rsp+8], rcx
	push	rbp
	push	rdi
	sub	rsp, 296				; 00000128H
	lea	rbp, QWORD PTR [rsp+32]
	lea	rcx, OFFSET FLAT:__53DEE440_xmemory
	call	__CheckForDebuggerJustMyCode

; 65   :     constexpr bool _Overflow_is_possible = _Ty_size > 1;

	mov	BYTE PTR _Overflow_is_possible$[rbp], 1

; 66   : 
; 67   :     if constexpr (_Overflow_is_possible) {
; 68   :         constexpr size_t _Max_possible = static_cast<size_t>(-1) / _Ty_size;

	mov	rax, 1152921504606846975		; 0fffffffffffffffH
	mov	QWORD PTR _Max_possible$1[rbp], rax

; 69   :         if (_Count > _Max_possible) {

	mov	rax, 1152921504606846975		; 0fffffffffffffffH
	cmp	QWORD PTR _Count$[rbp], rax
	jbe	SHORT $LN2@Get_size_o

; 70   :             _Throw_bad_array_new_length(); // multiply overflow

	call	?_Throw_bad_array_new_length@std@@YAXXZ	; std::_Throw_bad_array_new_length
$LN2@Get_size_o:

; 71   :         }
; 72   :     }
; 73   : 
; 74   :     return _Count * _Ty_size;

	imul	rax, QWORD PTR _Count$[rbp], 16
$LN3@Get_size_o:

; 75   : }

	lea	rsp, QWORD PTR [rbp+264]
	pop	rdi
	pop	rbp
	ret	0
??$_Get_size_of_n@$0BA@@std@@YA_K_K@Z ENDP		; std::_Get_size_of_n<16>
_TEXT	ENDS
; Function compile flags: /Odtp /RTCsu /ZI
; File C:\Program Files\Microsoft Visual Studio\2022\Community\VC\Tools\MSVC\14.38.33130\include\utility
;	COMDAT ??$exchange@PEAV_Facet_base@std@@$$T@std@@YAPEAV_Facet_base@0@AEAPEAV10@$$QEA$$T@Z
_TEXT	SEGMENT
_Old_val$ = 8
_Val$ = 256
_New_val$ = 264
??$exchange@PEAV_Facet_base@std@@$$T@std@@YAPEAV_Facet_base@0@AEAPEAV10@$$QEA$$T@Z PROC ; std::exchange<std::_Facet_base *,std::nullptr_t>, COMDAT

; 760  :     conjunction_v<is_nothrow_move_constructible<_Ty>, is_nothrow_assignable<_Ty&, _Other>>) {

$LN3:
	mov	QWORD PTR [rsp+16], rdx
	mov	QWORD PTR [rsp+8], rcx
	push	rbp
	push	rdi
	sub	rsp, 264				; 00000108H
	lea	rbp, QWORD PTR [rsp+32]
	lea	rcx, OFFSET FLAT:__394B8783_utility
	call	__CheckForDebuggerJustMyCode

; 761  :     // assign _New_val to _Val, return previous _Val
; 762  :     _Ty _Old_val = static_cast<_Ty&&>(_Val);

	mov	rax, QWORD PTR _Val$[rbp]
	mov	rax, QWORD PTR [rax]
	mov	QWORD PTR _Old_val$[rbp], rax

; 763  :     _Val         = static_cast<_Other&&>(_New_val);

	mov	rax, QWORD PTR _Val$[rbp]
	mov	rcx, QWORD PTR _New_val$[rbp]
	mov	rcx, QWORD PTR [rcx]
	mov	QWORD PTR [rax], rcx

; 764  :     return _Old_val;

	mov	rax, QWORD PTR _Old_val$[rbp]

; 765  : }

	lea	rsp, QWORD PTR [rbp+232]
	pop	rdi
	pop	rbp
	ret	0
??$exchange@PEAV_Facet_base@std@@$$T@std@@YAPEAV_Facet_base@0@AEAPEAV10@$$QEA$$T@Z ENDP ; std::exchange<std::_Facet_base *,std::nullptr_t>
_TEXT	ENDS
; Function compile flags: /Odtp /RTCsu /ZI
; File C:\Program Files\Microsoft Visual Studio\2022\Community\VC\Tools\MSVC\14.38.33130\include\type_traits
;	COMDAT ??$addressof@PEAD@std@@YAPEAPEADAEAPEAD@Z
_TEXT	SEGMENT
_Val$ = 224
??$addressof@PEAD@std@@YAPEAPEADAEAPEAD@Z PROC		; std::addressof<char *>, COMDAT

; 1585 : _NODISCARD constexpr _Ty* addressof(_Ty& _Val) noexcept {

$LN3:
	mov	QWORD PTR [rsp+8], rcx
	push	rbp
	push	rdi
	sub	rsp, 232				; 000000e8H
	lea	rbp, QWORD PTR [rsp+32]
	lea	rcx, OFFSET FLAT:__86E2ECA3_type_traits
	call	__CheckForDebuggerJustMyCode

; 1586 :     return __builtin_addressof(_Val);

	mov	rax, QWORD PTR _Val$[rbp]

; 1587 : }

	lea	rsp, QWORD PTR [rbp+200]
	pop	rdi
	pop	rbp
	ret	0
??$addressof@PEAD@std@@YAPEAPEADAEAPEAD@Z ENDP		; std::addressof<char *>
_TEXT	ENDS
; Function compile flags: /Odtp /RTCsu /ZI
; File C:\Program Files\Microsoft Visual Studio\2022\Community\VC\Tools\MSVC\14.38.33130\include\xmemory
;	COMDAT ??$destroy@Ufile_task@@@?$_Default_allocator_traits@V?$allocator@Ufile_task@@@std@@@std@@SAXAEAV?$allocator@Ufile_task@@@1@QEAUfile_task@@@Z
_TEXT	SEGMENT
__formal$ = 224
_Ptr$ = 232
??$destroy@Ufile_task@@@?$_Default_allocator_traits@V?$allocator@Ufile_task@@@std@@@std@@SAXAEAV?$allocator@Ufile_task@@@1@QEAUfile_task@@@Z PROC ; std::_Default_allocator_traits<std::allocator<file_task> >::destroy<file_task>, COMDAT

; 728  :     static _CONSTEXPR20 void destroy(_Alloc&, _Uty* const _Ptr) {

$LN3:
	mov	QWORD PTR [rsp+16], rdx
	mov	QWORD PTR [rsp+8], rcx
	push	rbp
	push	rdi
	sub	rsp, 232				; 000000e8H
	lea	rbp, QWORD PTR [rsp+32]
	lea	rcx, OFFSET FLAT:__53DEE440_xmemory
	call	__CheckForDebuggerJustMyCode

; 729  : #if _HAS_CXX20
; 730  :         _STD destroy_at(_Ptr);

	mov	rcx, QWORD PTR _Ptr$[rbp]
	call	??$destroy_at@Ufile_task@@@std@@YAXQEAUfile_task@@@Z ; std::destroy_at<file_task>

; 731  : #else // ^^^ _HAS_CXX20 / !_HAS_CXX20 vvv
; 732  :         _Ptr->~_Uty();
; 733  : #endif // ^^^ !_HAS_CXX20 ^^^
; 734  :     }

	lea	rsp, QWORD PTR [rbp+200]
	pop	rdi
	pop	rbp
	ret	0
??$destroy@Ufile_task@@@?$_Default_allocator_traits@V?$allocator@Ufile_task@@@std@@@std@@SAXAEAV?$allocator@Ufile_task@@@1@QEAUfile_task@@@Z ENDP ; std::_Default_allocator_traits<std::allocator<file_task> >::destroy<file_task>
_TEXT	ENDS
; Function compile flags: /Odtp /RTCsu /ZI
; File C:\Program Files\Microsoft Visual Studio\2022\Community\VC\Tools\MSVC\14.38.33130\include\xmemory
;	COMDAT ??$_Unfancy@Ufile_task@@@std@@YAPEAUfile_task@@PEAU1@@Z
_TEXT	SEGMENT
_Ptr$ = 224
??$_Unfancy@Ufile_task@@@std@@YAPEAUfile_task@@PEAU1@@Z PROC ; std::_Unfancy<file_task>, COMDAT

; 35   : _NODISCARD constexpr _Ty* _Unfancy(_Ty* _Ptr) noexcept { // do nothing for plain pointers

$LN3:
	mov	QWORD PTR [rsp+8], rcx
	push	rbp
	push	rdi
	sub	rsp, 232				; 000000e8H
	lea	rbp, QWORD PTR [rsp+32]
	lea	rcx, OFFSET FLAT:__53DEE440_xmemory
	call	__CheckForDebuggerJustMyCode

; 36   :     return _Ptr;

	mov	rax, QWORD PTR _Ptr$[rbp]

; 37   : }

	lea	rsp, QWORD PTR [rbp+200]
	pop	rdi
	pop	rbp
	ret	0
??$_Unfancy@Ufile_task@@@std@@YAPEAUfile_task@@PEAU1@@Z ENDP ; std::_Unfancy<file_task>
_TEXT	ENDS
; Function compile flags: /Odtp /RTCsu /ZI
; File C:\Program Files\Microsoft Visual Studio\2022\Community\VC\Tools\MSVC\14.38.33130\include\xutility
;	COMDAT ??$_Construct_in_place@PEADAEBQEAD@std@@YAXAEAPEADAEBQEAD@Z
_TEXT	SEGMENT
$T1 = 200
_Obj$ = 256
<_Args_0>$ = 264
??$_Construct_in_place@PEADAEBQEAD@std@@YAXAEAPEADAEBQEAD@Z PROC ; std::_Construct_in_place<char *,char * const &>, COMDAT

; 248  :     is_nothrow_constructible_v<_Ty, _Types...>) {

$LN5:
	mov	QWORD PTR [rsp+16], rdx
	mov	QWORD PTR [rsp+8], rcx
	push	rbp
	push	rdi
	sub	rsp, 264				; 00000108H
	lea	rbp, QWORD PTR [rsp+32]
	lea	rcx, OFFSET FLAT:__81056E89_xutility
	call	__CheckForDebuggerJustMyCode

; 249  : #if _HAS_CXX20
; 250  :     if (_STD is_constant_evaluated()) {

	call	?is_constant_evaluated@std@@YA_NXZ	; std::is_constant_evaluated
	movzx	eax, al
	test	eax, eax
	je	SHORT $LN2@Construct_

; 251  :         _STD construct_at(_STD addressof(_Obj), _STD forward<_Types>(_Args)...);

	mov	rcx, QWORD PTR _Obj$[rbp]
	call	??$addressof@PEAD@std@@YAPEAPEADAEAPEAD@Z ; std::addressof<char *>
	mov	rdx, QWORD PTR <_Args_0>$[rbp]
	mov	rcx, rax
	call	??$construct_at@PEADAEBQEAD$0A@@std@@YAPEAPEADQEAPEADAEBQEAD@Z ; std::construct_at<char *,char * const &,0>

; 252  :     } else

	jmp	SHORT $LN3@Construct_
$LN2@Construct_:

; 253  : #endif // _HAS_CXX20
; 254  :     {
; 255  :         ::new (static_cast<void*>(_STD addressof(_Obj))) _Ty(_STD forward<_Types>(_Args)...);

	mov	rcx, QWORD PTR _Obj$[rbp]
	call	??$addressof@PEAD@std@@YAPEAPEADAEAPEAD@Z ; std::addressof<char *>
	mov	rdx, rax
	mov	ecx, 8
	call	??2@YAPEAX_KPEAX@Z			; operator new
	mov	QWORD PTR $T1[rbp], rax
	mov	rax, QWORD PTR $T1[rbp]
	mov	rcx, QWORD PTR <_Args_0>$[rbp]
	mov	rcx, QWORD PTR [rcx]
	mov	QWORD PTR [rax], rcx
$LN3@Construct_:

; 256  :     }
; 257  : }

	lea	rsp, QWORD PTR [rbp+232]
	pop	rdi
	pop	rbp
	ret	0
??$_Construct_in_place@PEADAEBQEAD@std@@YAXAEAPEADAEBQEAD@Z ENDP ; std::_Construct_in_place<char *,char * const &>
_TEXT	ENDS
; Function compile flags: /Odtp /RTCsu /ZI
; File C:\Program Files\Microsoft Visual Studio\2022\Community\VC\Tools\MSVC\14.38.33130\include\xstring
;	COMDAT ??$_Allocate_for_capacity@$0A@@?$basic_string@DU?$char_traits@D@std@@V?$allocator@D@2@@std@@CAPEADAEAV?$allocator@D@1@AEA_K@Z
_TEXT	SEGMENT
_Fancy_ptr$ = 8
_Ptr$1 = 40
_Idx$2 = 72
_Al$ = 320
_Capacity$ = 328
??$_Allocate_for_capacity@$0A@@?$basic_string@DU?$char_traits@D@std@@V?$allocator@D@2@@std@@CAPEADAEAV?$allocator@D@1@AEA_K@Z PROC ; std::basic_string<char,std::char_traits<char>,std::allocator<char> >::_Allocate_for_capacity<0>, COMDAT

; 2601 :     _NODISCARD static _CONSTEXPR20 pointer _Allocate_for_capacity(_Alty& _Al, size_type& _Capacity) {

$LN7:
	mov	QWORD PTR [rsp+16], rdx
	mov	QWORD PTR [rsp+8], rcx
	push	rbp
	push	rdi
	sub	rsp, 328				; 00000148H
	lea	rbp, QWORD PTR [rsp+32]
	lea	rcx, OFFSET FLAT:__270D62DC_xstring
	call	__CheckForDebuggerJustMyCode

; 2602 :         _STL_INTERNAL_CHECK(_Capacity > _Small_string_capacity);
; 2603 :         ++_Capacity; // Take null terminator into consideration

	mov	rax, QWORD PTR _Capacity$[rbp]
	mov	rax, QWORD PTR [rax]
	inc	rax
	mov	rcx, QWORD PTR _Capacity$[rbp]
	mov	QWORD PTR [rcx], rax

; 2604 : 
; 2605 :         pointer _Fancy_ptr;
; 2606 :         if constexpr (_Policy == _Allocation_policy::_At_least) {
; 2607 :             _Fancy_ptr = _Allocate_at_least_helper(_Al, _Capacity);

	mov	rdx, QWORD PTR _Capacity$[rbp]
	mov	rcx, QWORD PTR _Al$[rbp]
	call	??$_Allocate_at_least_helper@V?$allocator@D@std@@@std@@YAPEADAEAV?$allocator@D@0@AEA_K@Z ; std::_Allocate_at_least_helper<std::allocator<char> >
	mov	QWORD PTR _Fancy_ptr$[rbp], rax

; 2608 :         } else {
; 2609 :             _STL_INTERNAL_STATIC_ASSERT(_Policy == _Allocation_policy::_Exactly);
; 2610 :             _Fancy_ptr = _Al.allocate(_Capacity);
; 2611 :         }
; 2612 : 
; 2613 : #if _HAS_CXX20
; 2614 :         // Start element lifetimes to avoid UB. This is a more general mechanism than _String_val::_Activate_SSO_buffer,
; 2615 :         // but likely more impactful to throughput.
; 2616 :         if (_STD is_constant_evaluated()) {

	call	?is_constant_evaluated@std@@YA_NXZ	; std::is_constant_evaluated
	movzx	eax, al
	test	eax, eax
	je	SHORT $LN5@Allocate_f

; 2617 :             _Elem* const _Ptr = _Unfancy(_Fancy_ptr);

	mov	rcx, QWORD PTR _Fancy_ptr$[rbp]
	call	??$_Unfancy@D@std@@YAPEADPEAD@Z		; std::_Unfancy<char>
	mov	QWORD PTR _Ptr$1[rbp], rax

; 2618 :             for (size_type _Idx = 0; _Idx < _Capacity; ++_Idx) {

	mov	QWORD PTR _Idx$2[rbp], 0
	jmp	SHORT $LN4@Allocate_f
$LN2@Allocate_f:
	mov	rax, QWORD PTR _Idx$2[rbp]
	inc	rax
	mov	QWORD PTR _Idx$2[rbp], rax
$LN4@Allocate_f:
	mov	rax, QWORD PTR _Capacity$[rbp]
	mov	rax, QWORD PTR [rax]
	cmp	QWORD PTR _Idx$2[rbp], rax
	jae	SHORT $LN3@Allocate_f

; 2619 :                 _STD construct_at(_Ptr + _Idx);

	mov	rax, QWORD PTR _Idx$2[rbp]
	mov	rcx, QWORD PTR _Ptr$1[rbp]
	add	rcx, rax
	mov	rax, rcx
	mov	rcx, rax
	call	??$construct_at@D$$V$0A@@std@@YAPEADQEAD@Z ; std::construct_at<char,0>

; 2620 :             }

	jmp	SHORT $LN2@Allocate_f
$LN3@Allocate_f:
$LN5@Allocate_f:

; 2621 :         }
; 2622 : #endif // _HAS_CXX20
; 2623 :         --_Capacity;

	mov	rax, QWORD PTR _Capacity$[rbp]
	mov	rax, QWORD PTR [rax]
	dec	rax
	mov	rcx, QWORD PTR _Capacity$[rbp]
	mov	QWORD PTR [rcx], rax

; 2624 :         return _Fancy_ptr;

	mov	rax, QWORD PTR _Fancy_ptr$[rbp]

; 2625 :     }

	lea	rsp, QWORD PTR [rbp+296]
	pop	rdi
	pop	rbp
	ret	0
??$_Allocate_for_capacity@$0A@@?$basic_string@DU?$char_traits@D@std@@V?$allocator@D@2@@std@@CAPEADAEAV?$allocator@D@1@AEA_K@Z ENDP ; std::basic_string<char,std::char_traits<char>,std::allocator<char> >::_Allocate_for_capacity<0>
_TEXT	ENDS
; Function compile flags: /Odtp /RTCsu /ZI
; File C:\Program Files\Microsoft Visual Studio\2022\Community\VC\Tools\MSVC\14.38.33130\include\xmemory
;	COMDAT ??1?$_Container_proxy_ptr12@V?$allocator@U_Container_proxy@std@@@std@@@std@@QEAA@XZ
_TEXT	SEGMENT
this$ = 224
??1?$_Container_proxy_ptr12@V?$allocator@U_Container_proxy@std@@@std@@@std@@QEAA@XZ PROC ; std::_Container_proxy_ptr12<std::allocator<std::_Container_proxy> >::~_Container_proxy_ptr12<std::allocator<std::_Container_proxy> >, COMDAT

; 1483 :     _CONSTEXPR20 ~_Container_proxy_ptr12() {

$LN4:
	mov	QWORD PTR [rsp+8], rcx
	push	rbp
	push	rdi
	sub	rsp, 232				; 000000e8H
	lea	rbp, QWORD PTR [rsp+32]
	lea	rcx, OFFSET FLAT:__53DEE440_xmemory
	call	__CheckForDebuggerJustMyCode

; 1484 :         if (_Ptr) {

	mov	rax, QWORD PTR this$[rbp]
	cmp	QWORD PTR [rax], 0
	je	SHORT $LN2@Container_

; 1485 :             _Delete_plain_internal(_Al, _Ptr);

	mov	rax, QWORD PTR this$[rbp]
	mov	rdx, QWORD PTR [rax]
	mov	rax, QWORD PTR this$[rbp]
	mov	rcx, QWORD PTR [rax+8]
	call	??$_Delete_plain_internal@V?$allocator@U_Container_proxy@std@@@std@@@std@@YAXAEAV?$allocator@U_Container_proxy@std@@@0@QEAU_Container_proxy@0@@Z ; std::_Delete_plain_internal<std::allocator<std::_Container_proxy> >
$LN2@Container_:

; 1486 :         }
; 1487 :     }

	lea	rsp, QWORD PTR [rbp+200]
	pop	rdi
	pop	rbp
	ret	0
??1?$_Container_proxy_ptr12@V?$allocator@U_Container_proxy@std@@@std@@@std@@QEAA@XZ ENDP ; std::_Container_proxy_ptr12<std::allocator<std::_Container_proxy> >::~_Container_proxy_ptr12<std::allocator<std::_Container_proxy> >
_TEXT	ENDS
; Function compile flags: /Odtp /RTCsu /ZI
; File C:\Program Files\Microsoft Visual Studio\2022\Community\VC\Tools\MSVC\14.38.33130\include\xmemory
;	COMDAT ??0?$_Container_proxy_ptr12@V?$allocator@U_Container_proxy@std@@@std@@@std@@QEAA@AEAV?$allocator@U_Container_proxy@std@@@1@AEAU_Container_base12@1@@Z
_TEXT	SEGMENT
$T1 = 200
this$ = 256
_Al_$ = 264
_Mycont$ = 272
??0?$_Container_proxy_ptr12@V?$allocator@U_Container_proxy@std@@@std@@@std@@QEAA@AEAV?$allocator@U_Container_proxy@std@@@1@AEAU_Container_base12@1@@Z PROC ; std::_Container_proxy_ptr12<std::allocator<std::_Container_proxy> >::_Container_proxy_ptr12<std::allocator<std::_Container_proxy> >, COMDAT

; 1469 :     _CONSTEXPR20 _Container_proxy_ptr12(_Alloc& _Al_, _Container_base12& _Mycont) : _Al(_Al_) {

$LN3:
	mov	QWORD PTR [rsp+24], r8
	mov	QWORD PTR [rsp+16], rdx
	mov	QWORD PTR [rsp+8], rcx
	push	rbp
	push	rdi
	sub	rsp, 264				; 00000108H
	lea	rbp, QWORD PTR [rsp+32]
	lea	rcx, OFFSET FLAT:__53DEE440_xmemory
	call	__CheckForDebuggerJustMyCode
	mov	rcx, QWORD PTR this$[rbp]
	call	??0_Basic_container_proxy_ptr12@std@@IEAA@XZ ; std::_Basic_container_proxy_ptr12::_Basic_container_proxy_ptr12
	mov	rax, QWORD PTR this$[rbp]
	mov	rcx, QWORD PTR _Al_$[rbp]
	mov	QWORD PTR [rax+8], rcx

; 1470 :         // create a new _Container_proxy pointing at _Mycont
; 1471 :         _Ptr = _Unfancy(_Al_.allocate(1));

	mov	edx, 1
	mov	rcx, QWORD PTR _Al_$[rbp]
	call	?allocate@?$allocator@U_Container_proxy@std@@@std@@QEAAPEAU_Container_proxy@2@_K@Z ; std::allocator<std::_Container_proxy>::allocate
	mov	rcx, rax
	call	??$_Unfancy@U_Container_proxy@std@@@std@@YAPEAU_Container_proxy@0@PEAU10@@Z ; std::_Unfancy<std::_Container_proxy>
	mov	rcx, QWORD PTR this$[rbp]
	mov	QWORD PTR [rcx], rax

; 1472 :         _Construct_in_place(*_Ptr, _STD addressof(_Mycont));

	mov	rcx, QWORD PTR _Mycont$[rbp]
	call	??$addressof@U_Container_base12@std@@@std@@YAPEAU_Container_base12@0@AEAU10@@Z ; std::addressof<std::_Container_base12>
	mov	QWORD PTR $T1[rbp], rax
	lea	rdx, QWORD PTR $T1[rbp]
	mov	rax, QWORD PTR this$[rbp]
	mov	rcx, QWORD PTR [rax]
	call	??$_Construct_in_place@U_Container_proxy@std@@PEAU_Container_base12@2@@std@@YAXAEAU_Container_proxy@0@$$QEAPEAU_Container_base12@0@@Z ; std::_Construct_in_place<std::_Container_proxy,std::_Container_base12 *>

; 1473 :         _Mycont._Myproxy = _Ptr;

	mov	rax, QWORD PTR _Mycont$[rbp]
	mov	rcx, QWORD PTR this$[rbp]
	mov	rcx, QWORD PTR [rcx]
	mov	QWORD PTR [rax], rcx

; 1474 :     }

	mov	rax, QWORD PTR this$[rbp]
	lea	rsp, QWORD PTR [rbp+232]
	pop	rdi
	pop	rbp
	ret	0
??0?$_Container_proxy_ptr12@V?$allocator@U_Container_proxy@std@@@std@@@std@@QEAA@AEAV?$allocator@U_Container_proxy@std@@@1@AEAU_Container_base12@1@@Z ENDP ; std::_Container_proxy_ptr12<std::allocator<std::_Container_proxy> >::_Container_proxy_ptr12<std::allocator<std::_Container_proxy> >
_TEXT	ENDS
; Function compile flags: /Odtp /RTCsu /ZI
; File C:\Program Files\Microsoft Visual Studio\2022\Community\VC\Tools\MSVC\14.38.33130\include\xmemory
;	COMDAT ??$_Unfancy@U_Container_proxy@std@@@std@@YAPEAU_Container_proxy@0@PEAU10@@Z
_TEXT	SEGMENT
_Ptr$ = 224
??$_Unfancy@U_Container_proxy@std@@@std@@YAPEAU_Container_proxy@0@PEAU10@@Z PROC ; std::_Unfancy<std::_Container_proxy>, COMDAT

; 35   : _NODISCARD constexpr _Ty* _Unfancy(_Ty* _Ptr) noexcept { // do nothing for plain pointers

$LN3:
	mov	QWORD PTR [rsp+8], rcx
	push	rbp
	push	rdi
	sub	rsp, 232				; 000000e8H
	lea	rbp, QWORD PTR [rsp+32]
	lea	rcx, OFFSET FLAT:__53DEE440_xmemory
	call	__CheckForDebuggerJustMyCode

; 36   :     return _Ptr;

	mov	rax, QWORD PTR _Ptr$[rbp]

; 37   : }

	lea	rsp, QWORD PTR [rbp+200]
	pop	rdi
	pop	rbp
	ret	0
??$_Unfancy@U_Container_proxy@std@@@std@@YAPEAU_Container_proxy@0@PEAU10@@Z ENDP ; std::_Unfancy<std::_Container_proxy>
_TEXT	ENDS
; Function compile flags: /Odtp /RTCsu /ZI
; File C:\Program Files\Microsoft Visual Studio\2022\Community\VC\Tools\MSVC\14.38.33130\include\xmemory
;	COMDAT ??$_Deallocate_plain@V?$allocator@U_Container_proxy@std@@@std@@@std@@YAXAEAV?$allocator@U_Container_proxy@std@@@0@QEAU_Container_proxy@0@@Z
_TEXT	SEGMENT
_Al$ = 224
_Ptr$ = 232
??$_Deallocate_plain@V?$allocator@U_Container_proxy@std@@@std@@@std@@YAXAEAV?$allocator@U_Container_proxy@std@@@0@QEAU_Container_proxy@0@@Z PROC ; std::_Deallocate_plain<std::allocator<std::_Container_proxy> >, COMDAT

; 1123 : _CONSTEXPR20 void _Deallocate_plain(_Alloc& _Al, typename _Alloc::value_type* const _Ptr) noexcept {

$LN3:
	mov	QWORD PTR [rsp+16], rdx
	mov	QWORD PTR [rsp+8], rcx
	push	rbp
	push	rdi
	sub	rsp, 232				; 000000e8H
	lea	rbp, QWORD PTR [rsp+32]
	lea	rcx, OFFSET FLAT:__53DEE440_xmemory
	call	__CheckForDebuggerJustMyCode

; 1124 :     // deallocate a plain pointer using an allocator
; 1125 :     using _Alloc_traits = allocator_traits<_Alloc>;
; 1126 :     if constexpr (is_same_v<_Alloc_ptr_t<_Alloc>, typename _Alloc::value_type*>) {
; 1127 :         _Alloc_traits::deallocate(_Al, _Ptr, 1);

	mov	r8d, 1
	mov	rdx, QWORD PTR _Ptr$[rbp]
	mov	rcx, QWORD PTR _Al$[rbp]
	call	?deallocate@?$_Default_allocator_traits@V?$allocator@U_Container_proxy@std@@@std@@@std@@SAXAEAV?$allocator@U_Container_proxy@std@@@2@QEAU_Container_proxy@2@_K@Z ; std::_Default_allocator_traits<std::allocator<std::_Container_proxy> >::deallocate
	npad	1

; 1128 :     } else {
; 1129 :         using _Ptr_traits = pointer_traits<_Alloc_ptr_t<_Alloc>>;
; 1130 :         _Alloc_traits::deallocate(_Al, _Ptr_traits::pointer_to(*_Ptr), 1);
; 1131 :     }
; 1132 : }

	lea	rsp, QWORD PTR [rbp+200]
	pop	rdi
	pop	rbp
	ret	0
??$_Deallocate_plain@V?$allocator@U_Container_proxy@std@@@std@@@std@@YAXAEAV?$allocator@U_Container_proxy@std@@@0@QEAU_Container_proxy@0@@Z ENDP ; std::_Deallocate_plain<std::allocator<std::_Container_proxy> >
_TEXT	ENDS
; Function compile flags: /Odtp /RTCsu /ZI
; File C:\Program Files\Microsoft Visual Studio\2022\Community\VC\Tools\MSVC\14.38.33130\include\__msvc_chrono.hpp
;	COMDAT ??$?G_JU?$ratio@$00$0DLJKMKAA@@std@@_JU01@@chrono@std@@YA?AV?$duration@_JU?$ratio@$00$0DLJKMKAA@@std@@@01@AEBV201@0@Z
_TEXT	SEGMENT
$T1 = 200
$T2 = 232
$T3 = 264
tv68 = 280
__$ReturnUdt$ = 320
_Left$ = 328
_Right$ = 336
??$?G_JU?$ratio@$00$0DLJKMKAA@@std@@_JU01@@chrono@std@@YA?AV?$duration@_JU?$ratio@$00$0DLJKMKAA@@std@@@01@AEBV201@0@Z PROC ; std::chrono::operator-<__int64,std::ratio<1,1000000000>,__int64,std::ratio<1,1000000000> >, COMDAT

; 289  :             is_arithmetic_v<_Rep1>&& is_arithmetic_v<_Rep2>) /* strengthened */ {

$LN3:
	mov	QWORD PTR [rsp+24], r8
	mov	QWORD PTR [rsp+16], rdx
	mov	QWORD PTR [rsp+8], rcx
	push	rbp
	push	rdi
	sub	rsp, 328				; 00000148H
	lea	rbp, QWORD PTR [rsp+32]
	lea	rcx, OFFSET FLAT:__368A71EB___msvc_chrono@hpp
	call	__CheckForDebuggerJustMyCode

; 290  :         using _CD = common_type_t<duration<_Rep1, _Period1>, duration<_Rep2, _Period2>>;
; 291  :         return _CD(_CD(_Left).count() - _CD(_Right).count());

	mov	rax, QWORD PTR _Left$[rbp]
	mov	rax, QWORD PTR [rax]
	mov	QWORD PTR $T2[rbp], rax
	mov	rax, QWORD PTR _Right$[rbp]
	mov	rax, QWORD PTR [rax]
	mov	QWORD PTR $T3[rbp], rax
	lea	rcx, QWORD PTR $T2[rbp]
	call	?count@?$duration@_JU?$ratio@$00$0DLJKMKAA@@std@@@chrono@std@@QEBA_JXZ ; std::chrono::duration<__int64,std::ratio<1,1000000000> >::count
	mov	QWORD PTR tv68[rbp], rax
	lea	rcx, QWORD PTR $T3[rbp]
	call	?count@?$duration@_JU?$ratio@$00$0DLJKMKAA@@std@@@chrono@std@@QEBA_JXZ ; std::chrono::duration<__int64,std::ratio<1,1000000000> >::count
	mov	rcx, QWORD PTR tv68[rbp]
	sub	rcx, rax
	mov	rax, rcx
	mov	QWORD PTR $T1[rbp], rax
	lea	rdx, QWORD PTR $T1[rbp]
	mov	rcx, QWORD PTR __$ReturnUdt$[rbp]
	call	??$?0_J$0A@@?$duration@_JU?$ratio@$00$0DLJKMKAA@@std@@@chrono@std@@QEAA@AEB_J@Z ; std::chrono::duration<__int64,std::ratio<1,1000000000> >::duration<__int64,std::ratio<1,1000000000> ><__int64,0>
	mov	rax, QWORD PTR __$ReturnUdt$[rbp]

; 292  :     }

	lea	rsp, QWORD PTR [rbp+296]
	pop	rdi
	pop	rbp
	ret	0
??$?G_JU?$ratio@$00$0DLJKMKAA@@std@@_JU01@@chrono@std@@YA?AV?$duration@_JU?$ratio@$00$0DLJKMKAA@@std@@@01@AEBV201@0@Z ENDP ; std::chrono::operator-<__int64,std::ratio<1,1000000000>,__int64,std::ratio<1,1000000000> >
_TEXT	ENDS
; Function compile flags: /Odtp /RTCsu /ZI
;	COMDAT ??1sentry@?$basic_istream@DU?$char_traits@D@std@@@std@@QEAA@XZ
_TEXT	SEGMENT
this$ = 224
??1sentry@?$basic_istream@DU?$char_traits@D@std@@@std@@QEAA@XZ PROC ; std::basic_istream<char,std::char_traits<char> >::sentry::~sentry, COMDAT
$LN3:
	mov	QWORD PTR [rsp+8], rcx
	push	rbp
	push	rdi
	sub	rsp, 232				; 000000e8H
	lea	rbp, QWORD PTR [rsp+32]
	mov	rcx, QWORD PTR this$[rbp]
	call	??1_Sentry_base@?$basic_istream@DU?$char_traits@D@std@@@std@@QEAA@XZ ; std::basic_istream<char,std::char_traits<char> >::_Sentry_base::~_Sentry_base
	lea	rsp, QWORD PTR [rbp+200]
	pop	rdi
	pop	rbp
	ret	0
??1sentry@?$basic_istream@DU?$char_traits@D@std@@@std@@QEAA@XZ ENDP ; std::basic_istream<char,std::char_traits<char> >::sentry::~sentry
_TEXT	ENDS
; Function compile flags: /Odtp /RTCsu /ZI
; File C:\Program Files\Microsoft Visual Studio\2022\Community\VC\Tools\MSVC\14.38.33130\include\istream
;	COMDAT ??Bsentry@?$basic_istream@DU?$char_traits@D@std@@@std@@QEBA_NXZ
_TEXT	SEGMENT
this$ = 224
??Bsentry@?$basic_istream@DU?$char_traits@D@std@@@std@@QEBA_NXZ PROC ; std::basic_istream<char,std::char_traits<char> >::sentry::operator bool, COMDAT

; 100  :         explicit __CLR_OR_THIS_CALL operator bool() const {

$LN3:
	mov	QWORD PTR [rsp+8], rcx
	push	rbp
	push	rdi
	sub	rsp, 232				; 000000e8H
	lea	rbp, QWORD PTR [rsp+32]
	lea	rcx, OFFSET FLAT:__88F3F913_istream
	call	__CheckForDebuggerJustMyCode

; 101  :             return _Ok;

	mov	rax, QWORD PTR this$[rbp]
	movzx	eax, BYTE PTR [rax+8]

; 102  :         }

	lea	rsp, QWORD PTR [rbp+200]
	pop	rdi
	pop	rbp
	ret	0
??Bsentry@?$basic_istream@DU?$char_traits@D@std@@@std@@QEBA_NXZ ENDP ; std::basic_istream<char,std::char_traits<char> >::sentry::operator bool
_TEXT	ENDS
; Function compile flags: /Odtp /RTCsu /ZI
; File C:\Program Files\Microsoft Visual Studio\2022\Community\VC\Tools\MSVC\14.38.33130\include\istream
;	COMDAT ??0sentry@?$basic_istream@DU?$char_traits@D@std@@@std@@QEAA@AEAV12@_N@Z
_TEXT	SEGMENT
tv86 = 192
this$ = 240
_Istr$ = 248
_Noskip$ = 256
??0sentry@?$basic_istream@DU?$char_traits@D@std@@@std@@QEAA@AEAV12@_N@Z PROC ; std::basic_istream<char,std::char_traits<char> >::sentry::sentry, COMDAT

; 98   :             : _Sentry_base(_Istr), _Ok(_Sentry_base::_Myistr._Ipfx(_Noskip)) {}

$LN4:
	mov	BYTE PTR [rsp+24], r8b
	mov	QWORD PTR [rsp+16], rdx
	mov	QWORD PTR [rsp+8], rcx
	push	rbp
	push	rdi
	sub	rsp, 248				; 000000f8H
	lea	rbp, QWORD PTR [rsp+32]
	lea	rcx, OFFSET FLAT:__88F3F913_istream
	call	__CheckForDebuggerJustMyCode
	mov	rdx, QWORD PTR _Istr$[rbp]
	mov	rcx, QWORD PTR this$[rbp]
	call	??0_Sentry_base@?$basic_istream@DU?$char_traits@D@std@@@std@@QEAA@AEAV12@@Z ; std::basic_istream<char,std::char_traits<char> >::_Sentry_base::_Sentry_base
	npad	1
	mov	rax, QWORD PTR this$[rbp]
	mov	rax, QWORD PTR [rax]
	mov	QWORD PTR tv86[rbp], rax
	movzx	edx, BYTE PTR _Noskip$[rbp]
	mov	rcx, QWORD PTR tv86[rbp]
	call	QWORD PTR __imp_?_Ipfx@?$basic_istream@DU?$char_traits@D@std@@@std@@QEAA_N_N@Z
	mov	rcx, QWORD PTR this$[rbp]
	mov	BYTE PTR [rcx+8], al
	mov	rax, QWORD PTR this$[rbp]
	lea	rsp, QWORD PTR [rbp+216]
	pop	rdi
	pop	rbp
	ret	0
??0sentry@?$basic_istream@DU?$char_traits@D@std@@@std@@QEAA@AEAV12@_N@Z ENDP ; std::basic_istream<char,std::char_traits<char> >::sentry::sentry
_TEXT	ENDS
; Function compile flags: /Odtp /RTCsu /ZI
;	COMDAT text$x
text$x	SEGMENT
tv86 = 192
this$ = 240
_Istr$ = 248
_Noskip$ = 256
?dtor$0@?0???0sentry@?$basic_istream@DU?$char_traits@D@std@@@std@@QEAA@AEAV12@_N@Z@4HA PROC ; `std::basic_istream<char,std::char_traits<char> >::sentry::sentry'::`1'::dtor$0
	mov	QWORD PTR [rsp+8], rcx
	mov	QWORD PTR [rsp+16], rdx
	push	rbp
	push	rdi
	sub	rsp, 40					; 00000028H
	lea	rbp, QWORD PTR [rdx+32]
	mov	rcx, QWORD PTR this$[rbp]
	call	??1_Sentry_base@?$basic_istream@DU?$char_traits@D@std@@@std@@QEAA@XZ ; std::basic_istream<char,std::char_traits<char> >::_Sentry_base::~_Sentry_base
	add	rsp, 40					; 00000028H
	pop	rdi
	pop	rbp
	ret	0
?dtor$0@?0???0sentry@?$basic_istream@DU?$char_traits@D@std@@@std@@QEAA@AEAV12@_N@Z@4HA ENDP ; `std::basic_istream<char,std::char_traits<char> >::sentry::sentry'::`1'::dtor$0
text$x	ENDS
; Function compile flags: /Odtp /RTCsu /ZI
; File C:\Program Files\Microsoft Visual Studio\2022\Community\VC\Tools\MSVC\14.38.33130\include\istream
;	COMDAT ??1_Sentry_base@?$basic_istream@DU?$char_traits@D@std@@@std@@QEAA@XZ
_TEXT	SEGMENT
_Rdbuf$ = 8
tv72 = 216
this$ = 256
??1_Sentry_base@?$basic_istream@DU?$char_traits@D@std@@@std@@QEAA@XZ PROC ; std::basic_istream<char,std::char_traits<char> >::_Sentry_base::~_Sentry_base, COMDAT

; 83   :         __CLR_OR_THIS_CALL ~_Sentry_base() noexcept {

$LN4:
	mov	QWORD PTR [rsp+8], rcx
	push	rbp
	push	rdi
	sub	rsp, 264				; 00000108H
	lea	rbp, QWORD PTR [rsp+32]
	lea	rcx, OFFSET FLAT:__88F3F913_istream
	call	__CheckForDebuggerJustMyCode

; 84   :             const auto _Rdbuf = _Myistr.rdbuf();

	mov	rax, QWORD PTR this$[rbp]
	mov	rax, QWORD PTR [rax]
	mov	QWORD PTR tv72[rbp], rax
	mov	rax, QWORD PTR tv72[rbp]
	mov	rax, QWORD PTR [rax]
	movsxd	rax, DWORD PTR [rax+4]
	mov	rcx, QWORD PTR tv72[rbp]
	add	rcx, rax
	mov	rax, rcx
	mov	rcx, rax
	call	QWORD PTR __imp_?rdbuf@?$basic_ios@DU?$char_traits@D@std@@@std@@QEBAPEAV?$basic_streambuf@DU?$char_traits@D@std@@@2@XZ
	mov	QWORD PTR _Rdbuf$[rbp], rax

; 85   :             if (_Rdbuf) {

	cmp	QWORD PTR _Rdbuf$[rbp], 0
	je	SHORT $LN2@Sentry_bas

; 86   :                 _Rdbuf->_Unlock();

	mov	rax, QWORD PTR _Rdbuf$[rbp]
	mov	rax, QWORD PTR [rax]
	mov	rcx, QWORD PTR _Rdbuf$[rbp]
	call	QWORD PTR [rax+16]
	npad	1
$LN2@Sentry_bas:

; 87   :             }
; 88   :         }

	lea	rsp, QWORD PTR [rbp+232]
	pop	rdi
	pop	rbp
	ret	0
??1_Sentry_base@?$basic_istream@DU?$char_traits@D@std@@@std@@QEAA@XZ ENDP ; std::basic_istream<char,std::char_traits<char> >::_Sentry_base::~_Sentry_base
_TEXT	ENDS
; Function compile flags: /Odtp /RTCsu /ZI
; File C:\Program Files\Microsoft Visual Studio\2022\Community\VC\Tools\MSVC\14.38.33130\include\istream
;	COMDAT ??0_Sentry_base@?$basic_istream@DU?$char_traits@D@std@@@std@@QEAA@AEAV12@@Z
_TEXT	SEGMENT
_Rdbuf$ = 8
tv73 = 216
this$ = 256
_Istr$ = 264
??0_Sentry_base@?$basic_istream@DU?$char_traits@D@std@@@std@@QEAA@AEAV12@@Z PROC ; std::basic_istream<char,std::char_traits<char> >::_Sentry_base::_Sentry_base, COMDAT

; 76   :         __CLR_OR_THIS_CALL _Sentry_base(basic_istream& _Istr) : _Myistr(_Istr) {

$LN4:
	mov	QWORD PTR [rsp+16], rdx
	mov	QWORD PTR [rsp+8], rcx
	push	rbp
	push	rdi
	sub	rsp, 264				; 00000108H
	lea	rbp, QWORD PTR [rsp+32]
	lea	rcx, OFFSET FLAT:__88F3F913_istream
	call	__CheckForDebuggerJustMyCode
	mov	rax, QWORD PTR this$[rbp]
	mov	rcx, QWORD PTR _Istr$[rbp]
	mov	QWORD PTR [rax], rcx

; 77   :             const auto _Rdbuf = _Myistr.rdbuf();

	mov	rax, QWORD PTR this$[rbp]
	mov	rax, QWORD PTR [rax]
	mov	QWORD PTR tv73[rbp], rax
	mov	rax, QWORD PTR tv73[rbp]
	mov	rax, QWORD PTR [rax]
	movsxd	rax, DWORD PTR [rax+4]
	mov	rcx, QWORD PTR tv73[rbp]
	add	rcx, rax
	mov	rax, rcx
	mov	rcx, rax
	call	QWORD PTR __imp_?rdbuf@?$basic_ios@DU?$char_traits@D@std@@@std@@QEBAPEAV?$basic_streambuf@DU?$char_traits@D@std@@@2@XZ
	mov	QWORD PTR _Rdbuf$[rbp], rax

; 78   :             if (_Rdbuf) {

	cmp	QWORD PTR _Rdbuf$[rbp], 0
	je	SHORT $LN2@Sentry_bas

; 79   :                 _Rdbuf->_Lock();

	mov	rax, QWORD PTR _Rdbuf$[rbp]
	mov	rax, QWORD PTR [rax]
	mov	rcx, QWORD PTR _Rdbuf$[rbp]
	call	QWORD PTR [rax+8]
$LN2@Sentry_bas:

; 80   :             }
; 81   :         }

	mov	rax, QWORD PTR this$[rbp]
	lea	rsp, QWORD PTR [rbp+232]
	pop	rdi
	pop	rbp
	ret	0
??0_Sentry_base@?$basic_istream@DU?$char_traits@D@std@@@std@@QEAA@AEAV12@@Z ENDP ; std::basic_istream<char,std::char_traits<char> >::_Sentry_base::_Sentry_base
_TEXT	ENDS
; Function compile flags: /Odtp /RTCsu /ZI
; File C:\Program Files\Microsoft Visual Studio\2022\Community\VC\Tools\MSVC\14.38.33130\include\memory
;	COMDAT ??$?0U?$default_delete@V_Facet_base@std@@@std@@$0A@@?$unique_ptr@V_Facet_base@std@@U?$default_delete@V_Facet_base@std@@@2@@std@@QEAA@PEAV_Facet_base@1@@Z
_TEXT	SEGMENT
$T1 = 196
tv70 = 216
this$ = 256
_Ptr$ = 264
??$?0U?$default_delete@V_Facet_base@std@@@std@@$0A@@?$unique_ptr@V_Facet_base@std@@U?$default_delete@V_Facet_base@std@@@2@@std@@QEAA@PEAV_Facet_base@1@@Z PROC ; std::unique_ptr<std::_Facet_base,std::default_delete<std::_Facet_base> >::unique_ptr<std::_Facet_base,std::default_delete<std::_Facet_base> ><std::default_delete<std::_Facet_base>,0>, COMDAT

; 3223 :     _CONSTEXPR23 explicit unique_ptr(pointer _Ptr) noexcept : _Mypair(_Zero_then_variadic_args_t{}, _Ptr) {}

$LN3:
	mov	QWORD PTR [rsp+16], rdx
	mov	QWORD PTR [rsp+8], rcx
	push	rbp
	push	rdi
	sub	rsp, 264				; 00000108H
	lea	rbp, QWORD PTR [rsp+32]
	lea	rcx, OFFSET FLAT:__A092E177_memory
	call	__CheckForDebuggerJustMyCode
	mov	rax, QWORD PTR this$[rbp]
	mov	QWORD PTR tv70[rbp], rax
	lea	r8, QWORD PTR _Ptr$[rbp]
	movzx	edx, BYTE PTR $T1[rbp]
	mov	rcx, QWORD PTR tv70[rbp]
	call	??$?0AEAPEAV_Facet_base@std@@@?$_Compressed_pair@U?$default_delete@V_Facet_base@std@@@std@@PEAV_Facet_base@2@$00@std@@QEAA@U_Zero_then_variadic_args_t@1@AEAPEAV_Facet_base@1@@Z ; std::_Compressed_pair<std::default_delete<std::_Facet_base>,std::_Facet_base *,1>::_Compressed_pair<std::default_delete<std::_Facet_base>,std::_Facet_base *,1><std::_Facet_base * &>
	mov	rax, QWORD PTR this$[rbp]
	lea	rsp, QWORD PTR [rbp+232]
	pop	rdi
	pop	rbp
	ret	0
??$?0U?$default_delete@V_Facet_base@std@@@std@@$0A@@?$unique_ptr@V_Facet_base@std@@U?$default_delete@V_Facet_base@std@@@2@@std@@QEAA@PEAV_Facet_base@1@@Z ENDP ; std::unique_ptr<std::_Facet_base,std::default_delete<std::_Facet_base> >::unique_ptr<std::_Facet_base,std::default_delete<std::_Facet_base> ><std::default_delete<std::_Facet_base>,0>
_TEXT	ENDS
; Function compile flags: /Odtp /RTCsu /ZI
;	COMDAT ?__autoclassinit2@?$unique_ptr@V_Facet_base@std@@U?$default_delete@V_Facet_base@std@@@2@@std@@QEAAX_K@Z
_TEXT	SEGMENT
this$ = 224
classSize$ = 232
?__autoclassinit2@?$unique_ptr@V_Facet_base@std@@U?$default_delete@V_Facet_base@std@@@2@@std@@QEAAX_K@Z PROC ; std::unique_ptr<std::_Facet_base,std::default_delete<std::_Facet_base> >::__autoclassinit2, COMDAT
$LN3:
	mov	QWORD PTR [rsp+16], rdx
	mov	QWORD PTR [rsp+8], rcx
	push	rbp
	push	rdi
	sub	rsp, 200				; 000000c8H
	mov	rbp, rsp
	mov	rdi, QWORD PTR this$[rbp]
	xor	eax, eax
	mov	rcx, QWORD PTR classSize$[rbp]
	rep stosb
	lea	rsp, QWORD PTR [rbp+200]
	pop	rdi
	pop	rbp
	ret	0
?__autoclassinit2@?$unique_ptr@V_Facet_base@std@@U?$default_delete@V_Facet_base@std@@@2@@std@@QEAAX_K@Z ENDP ; std::unique_ptr<std::_Facet_base,std::default_delete<std::_Facet_base> >::__autoclassinit2
_TEXT	ENDS
; Function compile flags: /Odtp /RTCsu /ZI
; File C:\Program Files\Microsoft Visual Studio\2022\Community\VC\Tools\MSVC\14.38.33130\include\xmemory
;	COMDAT ?_Get_first@?$_Compressed_pair@U?$default_delete@V_Facet_base@std@@@std@@PEAV_Facet_base@2@$00@std@@QEAAAEAU?$default_delete@V_Facet_base@std@@@2@XZ
_TEXT	SEGMENT
this$ = 224
?_Get_first@?$_Compressed_pair@U?$default_delete@V_Facet_base@std@@@std@@PEAV_Facet_base@2@$00@std@@QEAAAEAU?$default_delete@V_Facet_base@std@@@2@XZ PROC ; std::_Compressed_pair<std::default_delete<std::_Facet_base>,std::_Facet_base *,1>::_Get_first, COMDAT

; 1526 :     constexpr _Ty1& _Get_first() noexcept {

$LN3:
	mov	QWORD PTR [rsp+8], rcx
	push	rbp
	push	rdi
	sub	rsp, 232				; 000000e8H
	lea	rbp, QWORD PTR [rsp+32]
	lea	rcx, OFFSET FLAT:__53DEE440_xmemory
	call	__CheckForDebuggerJustMyCode

; 1527 :         return *this;

	mov	rax, QWORD PTR this$[rbp]

; 1528 :     }

	lea	rsp, QWORD PTR [rbp+200]
	pop	rdi
	pop	rbp
	ret	0
?_Get_first@?$_Compressed_pair@U?$default_delete@V_Facet_base@std@@@std@@PEAV_Facet_base@2@$00@std@@QEAAAEAU?$default_delete@V_Facet_base@std@@@2@XZ ENDP ; std::_Compressed_pair<std::default_delete<std::_Facet_base>,std::_Facet_base *,1>::_Get_first
_TEXT	ENDS
; Function compile flags: /Odtp /RTCsu /ZI
; File C:\Program Files\Microsoft Visual Studio\2022\Community\VC\Tools\MSVC\14.38.33130\include\memory
;	COMDAT ?release@?$unique_ptr@V_Facet_base@std@@U?$default_delete@V_Facet_base@std@@@2@@std@@QEAAPEAV_Facet_base@2@XZ
_TEXT	SEGMENT
$T1 = 196
this$ = 256
?release@?$unique_ptr@V_Facet_base@std@@U?$default_delete@V_Facet_base@std@@@2@@std@@QEAAPEAV_Facet_base@2@XZ PROC ; std::unique_ptr<std::_Facet_base,std::default_delete<std::_Facet_base> >::release, COMDAT

; 3308 :     _CONSTEXPR23 pointer release() noexcept {

$LN3:
	mov	QWORD PTR [rsp+8], rcx
	push	rbp
	push	rdi
	sub	rsp, 264				; 00000108H
	lea	rbp, QWORD PTR [rsp+32]
	lea	rcx, OFFSET FLAT:__A092E177_memory
	call	__CheckForDebuggerJustMyCode

; 3309 :         return _STD exchange(_Mypair._Myval2, nullptr);

	mov	QWORD PTR $T1[rbp], 0
	mov	rax, QWORD PTR this$[rbp]
	lea	rdx, QWORD PTR $T1[rbp]
	mov	rcx, rax
	call	??$exchange@PEAV_Facet_base@std@@$$T@std@@YAPEAV_Facet_base@0@AEAPEAV10@$$QEA$$T@Z ; std::exchange<std::_Facet_base *,std::nullptr_t>

; 3310 :     }

	lea	rsp, QWORD PTR [rbp+232]
	pop	rdi
	pop	rbp
	ret	0
?release@?$unique_ptr@V_Facet_base@std@@U?$default_delete@V_Facet_base@std@@@2@@std@@QEAAPEAV_Facet_base@2@XZ ENDP ; std::unique_ptr<std::_Facet_base,std::default_delete<std::_Facet_base> >::release
_TEXT	ENDS
; Function compile flags: /Odtp /RTCsu /ZI
; File C:\Program Files\Microsoft Visual Studio\2022\Community\VC\Tools\MSVC\14.38.33130\include\memory
;	COMDAT ??1?$unique_ptr@V_Facet_base@std@@U?$default_delete@V_Facet_base@std@@@2@@std@@QEAA@XZ
_TEXT	SEGMENT
tv77 = 192
tv75 = 200
this$ = 240
??1?$unique_ptr@V_Facet_base@std@@U?$default_delete@V_Facet_base@std@@@2@@std@@QEAA@XZ PROC ; std::unique_ptr<std::_Facet_base,std::default_delete<std::_Facet_base> >::~unique_ptr<std::_Facet_base,std::default_delete<std::_Facet_base> >, COMDAT

; 3278 :     _CONSTEXPR23 ~unique_ptr() noexcept {

$LN4:
	mov	QWORD PTR [rsp+8], rcx
	push	rbp
	push	rdi
	sub	rsp, 248				; 000000f8H
	lea	rbp, QWORD PTR [rsp+32]
	lea	rcx, OFFSET FLAT:__A092E177_memory
	call	__CheckForDebuggerJustMyCode

; 3279 :         if (_Mypair._Myval2) {

	mov	rax, QWORD PTR this$[rbp]
	cmp	QWORD PTR [rax], 0
	je	SHORT $LN2@unique_ptr

; 3280 :             _Mypair._Get_first()(_Mypair._Myval2);

	mov	rax, QWORD PTR this$[rbp]
	mov	rcx, rax
	call	?_Get_first@?$_Compressed_pair@U?$default_delete@V_Facet_base@std@@@std@@PEAV_Facet_base@2@$00@std@@QEAAAEAU?$default_delete@V_Facet_base@std@@@2@XZ ; std::_Compressed_pair<std::default_delete<std::_Facet_base>,std::_Facet_base *,1>::_Get_first
	mov	QWORD PTR tv77[rbp], rax
	mov	rax, QWORD PTR this$[rbp]
	mov	rax, QWORD PTR [rax]
	mov	QWORD PTR tv75[rbp], rax
	mov	rdx, QWORD PTR tv75[rbp]
	mov	rcx, QWORD PTR tv77[rbp]
	call	??R?$default_delete@V_Facet_base@std@@@std@@QEBAXPEAV_Facet_base@1@@Z ; std::default_delete<std::_Facet_base>::operator()
$LN2@unique_ptr:

; 3281 :         }
; 3282 :     }

	lea	rsp, QWORD PTR [rbp+216]
	pop	rdi
	pop	rbp
	ret	0
??1?$unique_ptr@V_Facet_base@std@@U?$default_delete@V_Facet_base@std@@@2@@std@@QEAA@XZ ENDP ; std::unique_ptr<std::_Facet_base,std::default_delete<std::_Facet_base> >::~unique_ptr<std::_Facet_base,std::default_delete<std::_Facet_base> >
_TEXT	ENDS
; Function compile flags: /Odtp /RTCsu /ZI
; File C:\Program Files\Microsoft Visual Studio\2022\Community\VC\Tools\MSVC\14.38.33130\include\memory
;	COMDAT ??R?$default_delete@V_Facet_base@std@@@std@@QEBAXPEAV_Facet_base@1@@Z
_TEXT	SEGMENT
$T1 = 200
tv71 = 216
tv72 = 224
this$ = 272
_Ptr$ = 280
??R?$default_delete@V_Facet_base@std@@@std@@QEBAXPEAV_Facet_base@1@@Z PROC ; std::default_delete<std::_Facet_base>::operator(), COMDAT

; 3168 :     _CONSTEXPR23 void operator()(_Ty* _Ptr) const noexcept /* strengthened */ { // delete a pointer

$LN5:
	mov	QWORD PTR [rsp+16], rdx
	mov	QWORD PTR [rsp+8], rcx
	push	rbp
	push	rdi
	sub	rsp, 280				; 00000118H
	lea	rbp, QWORD PTR [rsp+32]
	lea	rcx, OFFSET FLAT:__A092E177_memory
	call	__CheckForDebuggerJustMyCode

; 3169 :         static_assert(0 < sizeof(_Ty), "can't delete an incomplete type");
; 3170 :         delete _Ptr;

	mov	rax, QWORD PTR _Ptr$[rbp]
	mov	QWORD PTR $T1[rbp], rax
	cmp	QWORD PTR $T1[rbp], 0
	je	SHORT $LN3@operator
	mov	rax, QWORD PTR $T1[rbp]
	mov	rax, QWORD PTR [rax]
	mov	rax, QWORD PTR [rax]
	mov	QWORD PTR tv71[rbp], rax
	mov	edx, 1
	mov	rcx, QWORD PTR $T1[rbp]
	call	QWORD PTR tv71[rbp]
	mov	QWORD PTR tv72[rbp], rax
	jmp	SHORT $LN4@operator
$LN3@operator:
	mov	QWORD PTR tv72[rbp], 0
$LN4@operator:

; 3171 :     }

	lea	rsp, QWORD PTR [rbp+248]
	pop	rdi
	pop	rbp
	ret	0
??R?$default_delete@V_Facet_base@std@@@std@@QEBAXPEAV_Facet_base@1@@Z ENDP ; std::default_delete<std::_Facet_base>::operator()
_TEXT	ENDS
; Function compile flags: /Odtp /RTCsu /ZI
; File C:\Program Files\Microsoft Visual Studio\2022\Community\VC\Tools\MSVC\14.38.33130\include\xutility
;	COMDAT ??$construct_at@U_Container_proxy@std@@PEAU_Container_base12@2@$0A@@std@@YAPEAU_Container_proxy@0@QEAU10@$$QEAPEAU_Container_base12@0@@Z
_TEXT	SEGMENT
$T1 = 200
_Location$ = 256
<_Args_0>$ = 264
??$construct_at@U_Container_proxy@std@@PEAU_Container_base12@2@$0A@@std@@YAPEAU_Container_proxy@0@QEAU10@$$QEAPEAU_Container_base12@0@@Z PROC ; std::construct_at<std::_Container_proxy,std::_Container_base12 *,0>, COMDAT

; 241  :     noexcept(::new(static_cast<void*>(_Location)) _Ty(_STD forward<_Types>(_Args)...))) /* strengthened */ {

$LN3:
	mov	QWORD PTR [rsp+16], rdx
	mov	QWORD PTR [rsp+8], rcx
	push	rbp
	push	rdi
	sub	rsp, 264				; 00000108H
	lea	rbp, QWORD PTR [rsp+32]
	lea	rcx, OFFSET FLAT:__81056E89_xutility
	call	__CheckForDebuggerJustMyCode

; 242  :     _MSVC_CONSTEXPR return ::new (static_cast<void*>(_Location)) _Ty(_STD forward<_Types>(_Args)...);

	mov	rdx, QWORD PTR _Location$[rbp]
	mov	ecx, 16
	call	??2@YAPEAX_KPEAX@Z			; operator new
	mov	QWORD PTR $T1[rbp], rax
	mov	rax, QWORD PTR <_Args_0>$[rbp]
	mov	rdx, QWORD PTR [rax]
	mov	rcx, QWORD PTR $T1[rbp]
	call	??0_Container_proxy@std@@QEAA@PEAU_Container_base12@1@@Z ; std::_Container_proxy::_Container_proxy

; 243  : }

	lea	rsp, QWORD PTR [rbp+232]
	pop	rdi
	pop	rbp
	ret	0
??$construct_at@U_Container_proxy@std@@PEAU_Container_base12@2@$0A@@std@@YAPEAU_Container_proxy@0@QEAU10@$$QEAPEAU_Container_base12@0@@Z ENDP ; std::construct_at<std::_Container_proxy,std::_Container_base12 *,0>
_TEXT	ENDS
; Function compile flags: /Odtp /RTCsu /ZI
; File C:\Program Files\Microsoft Visual Studio\2022\Community\VC\Tools\MSVC\14.38.33130\include\type_traits
;	COMDAT ??$addressof@U_Container_proxy@std@@@std@@YAPEAU_Container_proxy@0@AEAU10@@Z
_TEXT	SEGMENT
_Val$ = 224
??$addressof@U_Container_proxy@std@@@std@@YAPEAU_Container_proxy@0@AEAU10@@Z PROC ; std::addressof<std::_Container_proxy>, COMDAT

; 1585 : _NODISCARD constexpr _Ty* addressof(_Ty& _Val) noexcept {

$LN3:
	mov	QWORD PTR [rsp+8], rcx
	push	rbp
	push	rdi
	sub	rsp, 232				; 000000e8H
	lea	rbp, QWORD PTR [rsp+32]
	lea	rcx, OFFSET FLAT:__86E2ECA3_type_traits
	call	__CheckForDebuggerJustMyCode

; 1586 :     return __builtin_addressof(_Val);

	mov	rax, QWORD PTR _Val$[rbp]

; 1587 : }

	lea	rsp, QWORD PTR [rbp+200]
	pop	rdi
	pop	rbp
	ret	0
??$addressof@U_Container_proxy@std@@@std@@YAPEAU_Container_proxy@0@AEAU10@@Z ENDP ; std::addressof<std::_Container_proxy>
_TEXT	ENDS
; Function compile flags: /Odtp /RTCsu /ZI
; File C:\Program Files\Microsoft Visual Studio\2022\Community\VC\Tools\MSVC\14.38.33130\include\xutility
;	COMDAT ??$construct_at@DAEBD$0A@@std@@YAPEADQEADAEBD@Z
_TEXT	SEGMENT
$T1 = 200
_Location$ = 256
<_Args_0>$ = 264
??$construct_at@DAEBD$0A@@std@@YAPEADQEADAEBD@Z PROC	; std::construct_at<char,char const &,0>, COMDAT

; 241  :     noexcept(::new(static_cast<void*>(_Location)) _Ty(_STD forward<_Types>(_Args)...))) /* strengthened */ {

$LN3:
	mov	QWORD PTR [rsp+16], rdx
	mov	QWORD PTR [rsp+8], rcx
	push	rbp
	push	rdi
	sub	rsp, 264				; 00000108H
	lea	rbp, QWORD PTR [rsp+32]
	lea	rcx, OFFSET FLAT:__81056E89_xutility
	call	__CheckForDebuggerJustMyCode

; 242  :     _MSVC_CONSTEXPR return ::new (static_cast<void*>(_Location)) _Ty(_STD forward<_Types>(_Args)...);

	mov	rdx, QWORD PTR _Location$[rbp]
	mov	ecx, 1
	call	??2@YAPEAX_KPEAX@Z			; operator new
	mov	QWORD PTR $T1[rbp], rax
	mov	rax, QWORD PTR $T1[rbp]
	mov	rcx, QWORD PTR <_Args_0>$[rbp]
	movzx	ecx, BYTE PTR [rcx]
	mov	BYTE PTR [rax], cl
	mov	rax, QWORD PTR $T1[rbp]

; 243  : }

	lea	rsp, QWORD PTR [rbp+232]
	pop	rdi
	pop	rbp
	ret	0
??$construct_at@DAEBD$0A@@std@@YAPEADQEADAEBD@Z ENDP	; std::construct_at<char,char const &,0>
_TEXT	ENDS
; Function compile flags: /Odtp /RTCsu /ZI
; File C:\Program Files\Microsoft Visual Studio\2022\Community\VC\Tools\MSVC\14.38.33130\include\xmemory
;	COMDAT ??$_Deallocate@$0BA@$0A@@std@@YAXPEAX_K@Z
_TEXT	SEGMENT
_Ptr$ = 224
_Bytes$ = 232
??$_Deallocate@$0BA@$0A@@std@@YAXPEAX_K@Z PROC		; std::_Deallocate<16,0>, COMDAT

; 251  : _CONSTEXPR20 void _Deallocate(void* _Ptr, size_t _Bytes) noexcept {

$LN6:
	mov	QWORD PTR [rsp+16], rdx
	mov	QWORD PTR [rsp+8], rcx
	push	rbp
	push	rdi
	sub	rsp, 232				; 000000e8H
	lea	rbp, QWORD PTR [rsp+32]
	lea	rcx, OFFSET FLAT:__53DEE440_xmemory
	call	__CheckForDebuggerJustMyCode

; 252  :     // deallocate storage allocated by _Allocate when !_HAS_ALIGNED_NEW || _Align <= __STDCPP_DEFAULT_NEW_ALIGNMENT__
; 253  : #if _HAS_CXX20 // TRANSITION, GH-1532
; 254  :     if (_STD is_constant_evaluated()) {

	call	?is_constant_evaluated@std@@YA_NXZ	; std::is_constant_evaluated
	movzx	eax, al
	test	eax, eax
	je	SHORT $LN2@Deallocate

; 255  :         ::operator delete(_Ptr);

	mov	rcx, QWORD PTR _Ptr$[rbp]
	call	??3@YAXPEAX@Z				; operator delete

; 256  :     } else

	jmp	SHORT $LN3@Deallocate
$LN2@Deallocate:

; 257  : #endif // _HAS_CXX20
; 258  :     {
; 259  : #if defined(_M_IX86) || defined(_M_X64)
; 260  :         if (_Bytes >= _Big_allocation_threshold) { // boost the alignment of big allocations to help autovectorization

	cmp	QWORD PTR _Bytes$[rbp], 4096		; 00001000H
	jb	SHORT $LN4@Deallocate

; 261  :             _Adjust_manually_vector_aligned(_Ptr, _Bytes);

	lea	rdx, QWORD PTR _Bytes$[rbp]
	lea	rcx, QWORD PTR _Ptr$[rbp]
	call	?_Adjust_manually_vector_aligned@std@@YAXAEAPEAXAEA_K@Z ; std::_Adjust_manually_vector_aligned
$LN4@Deallocate:

; 262  :         }
; 263  : #endif // defined(_M_IX86) || defined(_M_X64)
; 264  :         ::operator delete(_Ptr, _Bytes);

	mov	rdx, QWORD PTR _Bytes$[rbp]
	mov	rcx, QWORD PTR _Ptr$[rbp]
	call	??3@YAXPEAX_K@Z				; operator delete
	npad	1
$LN3@Deallocate:

; 265  :     }
; 266  : }

	lea	rsp, QWORD PTR [rbp+200]
	pop	rdi
	pop	rbp
	ret	0
??$_Deallocate@$0BA@$0A@@std@@YAXPEAX_K@Z ENDP		; std::_Deallocate<16,0>
_TEXT	ENDS
; Function compile flags: /Odtp /RTCsu /ZI
; File C:\Program Files\Microsoft Visual Studio\2022\Community\VC\Tools\MSVC\14.38.33130\include\xstring
;	COMDAT ??$_Reallocate_grow_by@V<lambda_1>@?1??push_back@?$basic_string@DU?$char_traits@D@std@@V?$allocator@D@2@@std@@QEAAXD@Z@D@?$basic_string@DU?$char_traits@D@std@@V?$allocator@D@2@@std@@AEAAAEAV01@_KV<lambda_1>@?1??push_back@01@QEAAXD@Z@D@Z
_TEXT	SEGMENT
_My_data$ = 8
_Old_size$ = 40
_New_size$ = 72
_Old_capacity$ = 104
_New_capacity$ = 136
_Al$ = 168
_New_ptr$ = 200
_Raw_new$ = 232
_Old_ptr$5 = 264
__$ArrayPad$ = 472
this$ = 512
_Size_increase$ = 520
_Fn$ = 528
<_Args_0>$ = 536
??$_Reallocate_grow_by@V<lambda_1>@?1??push_back@?$basic_string@DU?$char_traits@D@std@@V?$allocator@D@2@@std@@QEAAXD@Z@D@?$basic_string@DU?$char_traits@D@std@@V?$allocator@D@2@@std@@AEAAAEAV01@_KV<lambda_1>@?1??push_back@01@QEAAXD@Z@D@Z PROC ; std::basic_string<char,std::char_traits<char>,std::allocator<char> >::_Reallocate_grow_by<`std::basic_string<char,std::char_traits<char>,std::allocator<char> >::push_back'::`2'::<lambda_1>,char>, COMDAT

; 4770 :     _CONSTEXPR20 basic_string& _Reallocate_grow_by(const size_type _Size_increase, _Fty _Fn, _ArgTys... _Args) {

$LN6:
	mov	BYTE PTR [rsp+32], r9b
	mov	BYTE PTR [rsp+24], r8b
	mov	QWORD PTR [rsp+16], rdx
	mov	QWORD PTR [rsp+8], rcx
	push	rbp
	push	rdi
	sub	rsp, 536				; 00000218H
	lea	rbp, QWORD PTR [rsp+48]
	lea	rdi, QWORD PTR [rsp+48]
	mov	ecx, 74					; 0000004aH
	mov	eax, -858993460				; ccccccccH
	rep stosd
	mov	rcx, QWORD PTR [rsp+568]
	mov	rax, QWORD PTR __security_cookie
	xor	rax, rbp
	mov	QWORD PTR __$ArrayPad$[rbp], rax
	lea	rcx, OFFSET FLAT:__270D62DC_xstring
	call	__CheckForDebuggerJustMyCode

; 4771 :         // reallocate to increase size by _Size_increase elements, new buffer prepared by
; 4772 :         // _Fn(_New_ptr, _Old_ptr, _Old_size, _Args...)
; 4773 :         auto& _My_data            = _Mypair._Myval2;

	mov	rax, QWORD PTR this$[rbp]
	mov	QWORD PTR _My_data$[rbp], rax

; 4774 :         const size_type _Old_size = _My_data._Mysize;

	mov	rax, QWORD PTR _My_data$[rbp]
	mov	rax, QWORD PTR [rax+24]
	mov	QWORD PTR _Old_size$[rbp], rax

; 4775 :         if (max_size() - _Old_size < _Size_increase) {

	mov	rcx, QWORD PTR this$[rbp]
	call	?max_size@?$basic_string@DU?$char_traits@D@std@@V?$allocator@D@2@@std@@QEBA_KXZ ; std::basic_string<char,std::char_traits<char>,std::allocator<char> >::max_size
	sub	rax, QWORD PTR _Old_size$[rbp]
	cmp	rax, QWORD PTR _Size_increase$[rbp]
	jae	SHORT $LN2@Reallocate

; 4776 :             _Xlen_string(); // result too long

	call	?_Xlen_string@std@@YAXXZ		; std::_Xlen_string
$LN2@Reallocate:

; 4777 :         }
; 4778 : 
; 4779 :         const size_type _New_size     = _Old_size + _Size_increase;

	mov	rax, QWORD PTR _Size_increase$[rbp]
	mov	rcx, QWORD PTR _Old_size$[rbp]
	add	rcx, rax
	mov	rax, rcx
	mov	QWORD PTR _New_size$[rbp], rax

; 4780 :         const size_type _Old_capacity = _My_data._Myres;

	mov	rax, QWORD PTR _My_data$[rbp]
	mov	rax, QWORD PTR [rax+32]
	mov	QWORD PTR _Old_capacity$[rbp], rax

; 4781 :         size_type _New_capacity       = _Calculate_growth(_New_size);

	mov	rdx, QWORD PTR _New_size$[rbp]
	mov	rcx, QWORD PTR this$[rbp]
	call	?_Calculate_growth@?$basic_string@DU?$char_traits@D@std@@V?$allocator@D@2@@std@@AEBA_K_K@Z ; std::basic_string<char,std::char_traits<char>,std::allocator<char> >::_Calculate_growth
	mov	QWORD PTR _New_capacity$[rbp], rax

; 4782 :         auto& _Al                     = _Getal();

	mov	rcx, QWORD PTR this$[rbp]
	call	?_Getal@?$basic_string@DU?$char_traits@D@std@@V?$allocator@D@2@@std@@AEAAAEAV?$allocator@D@2@XZ ; std::basic_string<char,std::char_traits<char>,std::allocator<char> >::_Getal
	mov	QWORD PTR _Al$[rbp], rax

; 4783 :         const pointer _New_ptr        = _Allocate_for_capacity(_Al, _New_capacity); // throws

	lea	rdx, QWORD PTR _New_capacity$[rbp]
	mov	rcx, QWORD PTR _Al$[rbp]
	call	??$_Allocate_for_capacity@$0A@@?$basic_string@DU?$char_traits@D@std@@V?$allocator@D@2@@std@@CAPEADAEAV?$allocator@D@1@AEA_K@Z ; std::basic_string<char,std::char_traits<char>,std::allocator<char> >::_Allocate_for_capacity<0>
	mov	QWORD PTR _New_ptr$[rbp], rax

; 4784 : 
; 4785 :         _My_data._Orphan_all();

	mov	rcx, QWORD PTR _My_data$[rbp]
	call	?_Orphan_all@_Container_base12@std@@QEAAXXZ ; std::_Container_base12::_Orphan_all

; 4786 :         _ASAN_STRING_REMOVE(*this);
; 4787 :         _My_data._Mysize      = _New_size;

	mov	rax, QWORD PTR _My_data$[rbp]
	mov	rcx, QWORD PTR _New_size$[rbp]
	mov	QWORD PTR [rax+24], rcx

; 4788 :         _My_data._Myres       = _New_capacity;

	mov	rax, QWORD PTR _My_data$[rbp]
	mov	rcx, QWORD PTR _New_capacity$[rbp]
	mov	QWORD PTR [rax+32], rcx

; 4789 :         _Elem* const _Raw_new = _Unfancy(_New_ptr);

	mov	rcx, QWORD PTR _New_ptr$[rbp]
	call	??$_Unfancy@D@std@@YAPEADPEAD@Z		; std::_Unfancy<char>
	mov	QWORD PTR _Raw_new$[rbp], rax

; 4790 :         if (_Old_capacity > _Small_string_capacity) {

	cmp	QWORD PTR _Old_capacity$[rbp], 15
	jbe	SHORT $LN3@Reallocate

; 4791 :             const pointer _Old_ptr = _My_data._Bx._Ptr;

	mov	rax, QWORD PTR _My_data$[rbp]
	mov	rax, QWORD PTR [rax+8]
	mov	QWORD PTR _Old_ptr$5[rbp], rax

; 4792 :             _Fn(_Raw_new, _Unfancy(_Old_ptr), _Old_size, _Args...);

	mov	rcx, QWORD PTR _Old_ptr$5[rbp]
	call	??$_Unfancy@D@std@@YAPEADPEAD@Z		; std::_Unfancy<char>
	movzx	ecx, BYTE PTR <_Args_0>$[rbp]
	mov	BYTE PTR [rsp+32], cl
	mov	r9, QWORD PTR _Old_size$[rbp]
	mov	r8, rax
	mov	rdx, QWORD PTR _Raw_new$[rbp]
	lea	rcx, QWORD PTR _Fn$[rbp]
	call	??R<lambda_1>@?1??push_back@?$basic_string@DU?$char_traits@D@std@@V?$allocator@D@2@@std@@QEAAXD@Z@QEBA@QEADQEBD_KD@Z ; `std::basic_string<char,std::char_traits<char>,std::allocator<char> >::push_back'::`2'::<lambda_1>::operator()

; 4793 :             _Deallocate_for_capacity(_Al, _Old_ptr, _Old_capacity);

	mov	r8, QWORD PTR _Old_capacity$[rbp]
	mov	rdx, QWORD PTR _Old_ptr$5[rbp]
	mov	rcx, QWORD PTR _Al$[rbp]
	call	?_Deallocate_for_capacity@?$basic_string@DU?$char_traits@D@std@@V?$allocator@D@2@@std@@CAXAEAV?$allocator@D@2@QEAD_K@Z ; std::basic_string<char,std::char_traits<char>,std::allocator<char> >::_Deallocate_for_capacity

; 4794 :             _My_data._Bx._Ptr = _New_ptr;

	mov	rax, QWORD PTR _My_data$[rbp]
	mov	rcx, QWORD PTR _New_ptr$[rbp]
	mov	QWORD PTR [rax+8], rcx

; 4795 :         } else {

	jmp	SHORT $LN4@Reallocate
$LN3@Reallocate:

; 4796 :             _Fn(_Raw_new, _My_data._Bx._Buf, _Old_size, _Args...);

	mov	rax, QWORD PTR _My_data$[rbp]
	add	rax, 8
	movzx	ecx, BYTE PTR <_Args_0>$[rbp]
	mov	BYTE PTR [rsp+32], cl
	mov	r9, QWORD PTR _Old_size$[rbp]
	mov	r8, rax
	mov	rdx, QWORD PTR _Raw_new$[rbp]
	lea	rcx, QWORD PTR _Fn$[rbp]
	call	??R<lambda_1>@?1??push_back@?$basic_string@DU?$char_traits@D@std@@V?$allocator@D@2@@std@@QEAAXD@Z@QEBA@QEADQEBD_KD@Z ; `std::basic_string<char,std::char_traits<char>,std::allocator<char> >::push_back'::`2'::<lambda_1>::operator()

; 4797 :             _Construct_in_place(_My_data._Bx._Ptr, _New_ptr);

	mov	rax, QWORD PTR _My_data$[rbp]
	add	rax, 8
	lea	rdx, QWORD PTR _New_ptr$[rbp]
	mov	rcx, rax
	call	??$_Construct_in_place@PEADAEBQEAD@std@@YAXAEAPEADAEBQEAD@Z ; std::_Construct_in_place<char *,char * const &>
$LN4@Reallocate:

; 4798 :         }
; 4799 : 
; 4800 :         _ASAN_STRING_CREATE(*this);
; 4801 :         return *this;

	mov	rax, QWORD PTR this$[rbp]
$LN5@Reallocate:

; 4802 :     }

	mov	rdi, rax
	lea	rcx, QWORD PTR [rbp-48]
	lea	rdx, OFFSET FLAT:??$_Reallocate_grow_by@V<lambda_1>@?1??push_back@?$basic_string@DU?$char_traits@D@std@@V?$allocator@D@2@@std@@QEAAXD@Z@D@?$basic_string@DU?$char_traits@D@std@@V?$allocator@D@2@@std@@AEAAAEAV01@_KV<lambda_1>@?1??push_back@01@QEAAXD@Z@D@Z$rtcFrameData
	call	_RTC_CheckStackVars
	mov	rax, rdi
	mov	rcx, QWORD PTR __$ArrayPad$[rbp]
	xor	rcx, rbp
	call	__security_check_cookie
	lea	rsp, QWORD PTR [rbp+488]
	pop	rdi
	pop	rbp
	ret	0
??$_Reallocate_grow_by@V<lambda_1>@?1??push_back@?$basic_string@DU?$char_traits@D@std@@V?$allocator@D@2@@std@@QEAAXD@Z@D@?$basic_string@DU?$char_traits@D@std@@V?$allocator@D@2@@std@@AEAAAEAV01@_KV<lambda_1>@?1??push_back@01@QEAAXD@Z@D@Z ENDP ; std::basic_string<char,std::char_traits<char>,std::allocator<char> >::_Reallocate_grow_by<`std::basic_string<char,std::char_traits<char>,std::allocator<char> >::push_back'::`2'::<lambda_1>,char>
_TEXT	ENDS
; Function compile flags: /Odtp /RTCsu /ZI
; File C:\Program Files\Microsoft Visual Studio\2022\Community\VC\Tools\MSVC\14.38.33130\include\xstring
;	COMDAT ??R<lambda_1>@?1??push_back@?$basic_string@DU?$char_traits@D@std@@V?$allocator@D@2@@std@@QEAAXD@Z@QEBA@QEADQEBD_KD@Z
_TEXT	SEGMENT
$T1 = 196
this$ = 256
_New_ptr$ = 264
_Old_ptr$ = 272
_Old_size$ = 280
_Ch$ = 288
??R<lambda_1>@?1??push_back@?$basic_string@DU?$char_traits@D@std@@V?$allocator@D@2@@std@@QEAAXD@Z@QEBA@QEADQEBD_KD@Z PROC ; `std::basic_string<char,std::char_traits<char>,std::allocator<char> >::push_back'::`2'::<lambda_1>::operator(), COMDAT

; 4056 :             [](_Elem* const _New_ptr, const _Elem* const _Old_ptr, const size_type _Old_size, const _Elem _Ch) {

$LN3:
	mov	QWORD PTR [rsp+32], r9
	mov	QWORD PTR [rsp+24], r8
	mov	QWORD PTR [rsp+16], rdx
	mov	QWORD PTR [rsp+8], rcx
	push	rbp
	push	rdi
	sub	rsp, 264				; 00000108H
	lea	rbp, QWORD PTR [rsp+32]
	lea	rcx, OFFSET FLAT:__270D62DC_xstring
	call	__CheckForDebuggerJustMyCode

; 4057 :                 _Traits::copy(_New_ptr, _Old_ptr, _Old_size);

	mov	r8, QWORD PTR _Old_size$[rbp]
	mov	rdx, QWORD PTR _Old_ptr$[rbp]
	mov	rcx, QWORD PTR _New_ptr$[rbp]
	call	?copy@?$_Char_traits@DH@std@@SAPEADQEADQEBD_K@Z ; std::_Char_traits<char,int>::copy

; 4058 :                 _Traits::assign(_New_ptr[_Old_size], _Ch);

	mov	rax, QWORD PTR _Old_size$[rbp]
	mov	rcx, QWORD PTR _New_ptr$[rbp]
	add	rcx, rax
	mov	rax, rcx
	lea	rdx, QWORD PTR _Ch$[rbp]
	mov	rcx, rax
	call	?assign@?$_Narrow_char_traits@DH@std@@SAXAEADAEBD@Z ; std::_Narrow_char_traits<char,int>::assign

; 4059 :                 _Traits::assign(_New_ptr[_Old_size + 1], _Elem());

	mov	BYTE PTR $T1[rbp], 0
	mov	rax, QWORD PTR _New_ptr$[rbp]
	mov	rcx, QWORD PTR _Old_size$[rbp]
	lea	rax, QWORD PTR [rax+rcx+1]
	lea	rdx, QWORD PTR $T1[rbp]
	mov	rcx, rax
	call	?assign@?$_Narrow_char_traits@DH@std@@SAXAEADAEBD@Z ; std::_Narrow_char_traits<char,int>::assign

; 4060 :             },

	lea	rsp, QWORD PTR [rbp+232]
	pop	rdi
	pop	rbp
	ret	0
??R<lambda_1>@?1??push_back@?$basic_string@DU?$char_traits@D@std@@V?$allocator@D@2@@std@@QEAAXD@Z@QEBA@QEADQEBD_KD@Z ENDP ; `std::basic_string<char,std::char_traits<char>,std::allocator<char> >::push_back'::`2'::<lambda_1>::operator()
_TEXT	ENDS
; Function compile flags: /Odtp /RTCsu /ZI
; File C:\Program Files\Microsoft Visual Studio\2022\Community\VC\Tools\MSVC\14.38.33130\include\xmemory
;	COMDAT ??$_Destroy_in_place@PEAD@std@@YAXAEAPEAD@Z
_TEXT	SEGMENT
_Obj$ = 224
??$_Destroy_in_place@PEAD@std@@YAXAEAPEAD@Z PROC	; std::_Destroy_in_place<char *>, COMDAT

; 303  : _CONSTEXPR20 void _Destroy_in_place(_Ty& _Obj) noexcept {

$LN3:
	mov	QWORD PTR [rsp+8], rcx
	push	rbp
	push	rdi
	sub	rsp, 232				; 000000e8H
	lea	rbp, QWORD PTR [rsp+32]
	lea	rcx, OFFSET FLAT:__53DEE440_xmemory
	call	__CheckForDebuggerJustMyCode

; 304  :     if constexpr (is_array_v<_Ty>) {
; 305  :         _Destroy_range(_Obj, _Obj + extent_v<_Ty>);
; 306  :     } else {
; 307  :         _Obj.~_Ty();
; 308  :     }
; 309  : }

	lea	rsp, QWORD PTR [rbp+200]
	pop	rdi
	pop	rbp
	ret	0
??$_Destroy_in_place@PEAD@std@@YAXAEAPEAD@Z ENDP	; std::_Destroy_in_place<char *>
_TEXT	ENDS
; Function compile flags: /Odtp /RTCsu /ZI
; File C:\Program Files\Microsoft Visual Studio\2022\Community\VC\Tools\MSVC\14.38.33130\include\xmemory
;	COMDAT ??$_Destroy_range@V?$allocator@Ufile_task@@@std@@@std@@YAXPEAUfile_task@@QEAU1@AEAV?$allocator@Ufile_task@@@0@@Z
_TEXT	SEGMENT
_First$ = 224
_Last$ = 232
_Al$ = 240
??$_Destroy_range@V?$allocator@Ufile_task@@@std@@@std@@YAXPEAUfile_task@@QEAU1@AEAV?$allocator@Ufile_task@@@0@@Z PROC ; std::_Destroy_range<std::allocator<file_task> >, COMDAT

; 1086 : _CONSTEXPR20 void _Destroy_range(_Alloc_ptr_t<_Alloc> _First, const _Alloc_ptr_t<_Alloc> _Last, _Alloc& _Al) noexcept {

$LN6:
	mov	QWORD PTR [rsp+24], r8
	mov	QWORD PTR [rsp+16], rdx
	mov	QWORD PTR [rsp+8], rcx
	push	rbp
	push	rdi
	sub	rsp, 232				; 000000e8H
	lea	rbp, QWORD PTR [rsp+32]
	lea	rcx, OFFSET FLAT:__53DEE440_xmemory
	call	__CheckForDebuggerJustMyCode

; 1087 :     // note that this is an optimization for debug mode codegen; in release mode the BE removes all of this
; 1088 :     using _Ty = typename _Alloc::value_type;
; 1089 :     if constexpr (!conjunction_v<is_trivially_destructible<_Ty>, _Uses_default_destroy<_Alloc, _Ty*>>) {
; 1090 :         for (; _First != _Last; ++_First) {

	jmp	SHORT $LN4@Destroy_ra
$LN2@Destroy_ra:
	mov	rax, QWORD PTR _First$[rbp]
	add	rax, 32					; 00000020H
	mov	QWORD PTR _First$[rbp], rax
$LN4@Destroy_ra:
	mov	rax, QWORD PTR _Last$[rbp]
	cmp	QWORD PTR _First$[rbp], rax
	je	SHORT $LN3@Destroy_ra

; 1091 :             allocator_traits<_Alloc>::destroy(_Al, _Unfancy(_First));

	mov	rcx, QWORD PTR _First$[rbp]
	call	??$_Unfancy@Ufile_task@@@std@@YAPEAUfile_task@@PEAU1@@Z ; std::_Unfancy<file_task>
	mov	rdx, rax
	mov	rcx, QWORD PTR _Al$[rbp]
	call	??$destroy@Ufile_task@@@?$_Default_allocator_traits@V?$allocator@Ufile_task@@@std@@@std@@SAXAEAV?$allocator@Ufile_task@@@1@QEAUfile_task@@@Z ; std::_Default_allocator_traits<std::allocator<file_task> >::destroy<file_task>

; 1092 :         }

	jmp	SHORT $LN2@Destroy_ra
$LN3@Destroy_ra:

; 1093 :     }
; 1094 : }

	lea	rsp, QWORD PTR [rbp+200]
	pop	rdi
	pop	rbp
	ret	0
??$_Destroy_range@V?$allocator@Ufile_task@@@std@@@std@@YAXPEAUfile_task@@QEAU1@AEAV?$allocator@Ufile_task@@@0@@Z ENDP ; std::_Destroy_range<std::allocator<file_task> >
_TEXT	ENDS
; Function compile flags: /Odtp /RTCsu /ZI
; File C:\Program Files\Microsoft Visual Studio\2022\Community\VC\Tools\MSVC\14.38.33130\include\type_traits
;	COMDAT ??$addressof@D@std@@YAPEADAEAD@Z
_TEXT	SEGMENT
_Val$ = 224
??$addressof@D@std@@YAPEADAEAD@Z PROC			; std::addressof<char>, COMDAT

; 1585 : _NODISCARD constexpr _Ty* addressof(_Ty& _Val) noexcept {

$LN3:
	mov	QWORD PTR [rsp+8], rcx
	push	rbp
	push	rdi
	sub	rsp, 232				; 000000e8H
	lea	rbp, QWORD PTR [rsp+32]
	lea	rcx, OFFSET FLAT:__86E2ECA3_type_traits
	call	__CheckForDebuggerJustMyCode

; 1586 :     return __builtin_addressof(_Val);

	mov	rax, QWORD PTR _Val$[rbp]

; 1587 : }

	lea	rsp, QWORD PTR [rbp+200]
	pop	rdi
	pop	rbp
	ret	0
??$addressof@D@std@@YAPEADAEAD@Z ENDP			; std::addressof<char>
_TEXT	ENDS
; Function compile flags: /Odtp /RTCsu /ZI
; File C:\Program Files\Microsoft Visual Studio\2022\Community\VC\Tools\MSVC\14.38.33130\include\xstring
;	COMDAT ??$_Construct@$01PEBD@?$basic_string@DU?$char_traits@D@std@@V?$allocator@D@2@@std@@AEAAXQEBD_K@Z
_TEXT	SEGMENT
_My_data$ = 8
_Al$ = 40
_Alproxy$ = 72
$S29$ = 100
_Proxy$ = 136
_New_capacity$ = 184
_New_ptr$ = 216
tv141 = 424
__$ArrayPad$ = 432
this$ = 480
_Arg$ = 488
_Count$ = 496
??$_Construct@$01PEBD@?$basic_string@DU?$char_traits@D@std@@V?$allocator@D@2@@std@@AEAAXQEBD_K@Z PROC ; std::basic_string<char,std::char_traits<char>,std::allocator<char> >::_Construct<2,char const *>, COMDAT

; 2636 :     _CONSTEXPR20 void _Construct(const _Char_or_ptr _Arg, _CRT_GUARDOVERFLOW const size_type _Count) {

$LN7:
	mov	QWORD PTR [rsp+24], r8
	mov	QWORD PTR [rsp+16], rdx
	mov	QWORD PTR [rsp+8], rcx
	push	rbp
	push	rdi
	sub	rsp, 488				; 000001e8H
	lea	rbp, QWORD PTR [rsp+32]
	lea	rdi, QWORD PTR [rsp+32]
	mov	ecx, 66					; 00000042H
	mov	eax, -858993460				; ccccccccH
	rep stosd
	mov	rcx, QWORD PTR [rsp+520]
	mov	rax, QWORD PTR __security_cookie
	xor	rax, rbp
	mov	QWORD PTR __$ArrayPad$[rbp], rax
	lea	rcx, OFFSET FLAT:__270D62DC_xstring
	call	__CheckForDebuggerJustMyCode

; 2637 :         auto& _My_data = _Mypair._Myval2;

	mov	rax, QWORD PTR this$[rbp]
	mov	QWORD PTR _My_data$[rbp], rax

; 2638 :         _STL_INTERNAL_CHECK(!_My_data._Large_mode_engaged());
; 2639 : 
; 2640 :         if constexpr (_Strat == _Construct_strategy::_From_char) {
; 2641 :             _STL_INTERNAL_STATIC_ASSERT(is_same_v<_Char_or_ptr, _Elem>);
; 2642 :         } else {
; 2643 :             _STL_INTERNAL_STATIC_ASSERT(_Is_elem_cptr<_Char_or_ptr>::value);
; 2644 :         }
; 2645 : 
; 2646 :         if (_Count > max_size()) {

	mov	rcx, QWORD PTR this$[rbp]
	call	?max_size@?$basic_string@DU?$char_traits@D@std@@V?$allocator@D@2@@std@@QEBA_KXZ ; std::basic_string<char,std::char_traits<char>,std::allocator<char> >::max_size
	cmp	QWORD PTR _Count$[rbp], rax
	jbe	SHORT $LN2@Construct

; 2647 :             _Xlen_string(); // result too long

	call	?_Xlen_string@std@@YAXXZ		; std::_Xlen_string
$LN2@Construct:

; 2648 :         }
; 2649 : 
; 2650 :         auto& _Al       = _Getal();

	mov	rcx, QWORD PTR this$[rbp]
	call	?_Getal@?$basic_string@DU?$char_traits@D@std@@V?$allocator@D@2@@std@@AEAAAEAV?$allocator@D@2@XZ ; std::basic_string<char,std::char_traits<char>,std::allocator<char> >::_Getal
	mov	QWORD PTR _Al$[rbp], rax

; 2651 :         auto&& _Alproxy = _GET_PROXY_ALLOCATOR(_Alty, _Al);

	mov	rdx, QWORD PTR _Al$[rbp]
	lea	rcx, QWORD PTR $S29$[rbp]
	call	??$?0D@?$allocator@U_Container_proxy@std@@@std@@QEAA@AEBV?$allocator@D@1@@Z ; std::allocator<std::_Container_proxy>::allocator<std::_Container_proxy><char>
	lea	rax, QWORD PTR $S29$[rbp]
	mov	QWORD PTR _Alproxy$[rbp], rax

; 2652 :         _Container_proxy_ptr<_Alty> _Proxy(_Alproxy, _My_data);

	mov	r8, QWORD PTR _My_data$[rbp]
	mov	rdx, QWORD PTR _Alproxy$[rbp]
	lea	rcx, QWORD PTR _Proxy$[rbp]
	call	??0?$_Container_proxy_ptr12@V?$allocator@U_Container_proxy@std@@@std@@@std@@QEAA@AEAV?$allocator@U_Container_proxy@std@@@1@AEAU_Container_base12@1@@Z ; std::_Container_proxy_ptr12<std::allocator<std::_Container_proxy> >::_Container_proxy_ptr12<std::allocator<std::_Container_proxy> >
	npad	1

; 2653 : 
; 2654 :         if (_Count <= _Small_string_capacity) {

	cmp	QWORD PTR _Count$[rbp], 15
	ja	SHORT $LN3@Construct

; 2655 :             _My_data._Mysize = _Count;

	mov	rax, QWORD PTR _My_data$[rbp]
	mov	rcx, QWORD PTR _Count$[rbp]
	mov	QWORD PTR [rax+24], rcx

; 2656 :             _My_data._Myres  = _Small_string_capacity;

	mov	rax, QWORD PTR _My_data$[rbp]
	mov	QWORD PTR [rax+32], 15

; 2657 : 
; 2658 :             if constexpr (_Strat == _Construct_strategy::_From_char) {
; 2659 :                 _Traits::assign(_My_data._Bx._Buf, _Count, _Arg);
; 2660 :                 _Traits::assign(_My_data._Bx._Buf[_Count], _Elem());
; 2661 :             } else if constexpr (_Strat == _Construct_strategy::_From_ptr) {
; 2662 :                 _Traits::copy(_My_data._Bx._Buf, _Arg, _Count);
; 2663 :                 _Traits::assign(_My_data._Bx._Buf[_Count], _Elem());
; 2664 :             } else { // _Strat == _Construct_strategy::_From_string
; 2665 : #ifdef _INSERT_STRING_ANNOTATION
; 2666 :                 _Traits::copy(_My_data._Bx._Buf, _Arg, _Count + 1);
; 2667 : #else // ^^^ _INSERT_STRING_ANNOTATION / !_INSERT_STRING_ANNOTATION vvv
; 2668 :                 _Traits::copy(_My_data._Bx._Buf, _Arg, _BUF_SIZE);

	mov	rax, QWORD PTR _My_data$[rbp]
	add	rax, 8
	mov	r8d, 16
	mov	rdx, QWORD PTR _Arg$[rbp]
	mov	rcx, rax
	call	?copy@?$_Char_traits@DH@std@@SAPEADQEADQEBD_K@Z ; std::_Char_traits<char,int>::copy

; 2669 : #endif // !_INSERT_STRING_ANNOTATION
; 2670 :             }
; 2671 : 
; 2672 :             _Proxy._Release();

	lea	rcx, QWORD PTR _Proxy$[rbp]
	call	?_Release@_Basic_container_proxy_ptr12@std@@QEAAXXZ ; std::_Basic_container_proxy_ptr12::_Release
	npad	1

; 2673 :             return;

	lea	rcx, QWORD PTR _Proxy$[rbp]
	call	??1?$_Container_proxy_ptr12@V?$allocator@U_Container_proxy@std@@@std@@@std@@QEAA@XZ ; std::_Container_proxy_ptr12<std::allocator<std::_Container_proxy> >::~_Container_proxy_ptr12<std::allocator<std::_Container_proxy> >
	jmp	$LN4@Construct
$LN3@Construct:

; 2674 :         }
; 2675 : 
; 2676 :         _My_data._Myres         = _Small_string_capacity;

	mov	rax, QWORD PTR _My_data$[rbp]
	mov	QWORD PTR [rax+32], 15

; 2677 :         size_type _New_capacity = _Calculate_growth(_Count);

	mov	rdx, QWORD PTR _Count$[rbp]
	mov	rcx, QWORD PTR this$[rbp]
	call	?_Calculate_growth@?$basic_string@DU?$char_traits@D@std@@V?$allocator@D@2@@std@@AEBA_K_K@Z ; std::basic_string<char,std::char_traits<char>,std::allocator<char> >::_Calculate_growth
	mov	QWORD PTR _New_capacity$[rbp], rax

; 2678 :         const pointer _New_ptr  = _Allocate_for_capacity(_Al, _New_capacity); // throws

	lea	rdx, QWORD PTR _New_capacity$[rbp]
	mov	rcx, QWORD PTR _Al$[rbp]
	call	??$_Allocate_for_capacity@$0A@@?$basic_string@DU?$char_traits@D@std@@V?$allocator@D@2@@std@@CAPEADAEAV?$allocator@D@1@AEA_K@Z ; std::basic_string<char,std::char_traits<char>,std::allocator<char> >::_Allocate_for_capacity<0>
	mov	QWORD PTR _New_ptr$[rbp], rax

; 2679 :         _Construct_in_place(_My_data._Bx._Ptr, _New_ptr);

	mov	rax, QWORD PTR _My_data$[rbp]
	add	rax, 8
	lea	rdx, QWORD PTR _New_ptr$[rbp]
	mov	rcx, rax
	call	??$_Construct_in_place@PEADAEBQEAD@std@@YAXAEAPEADAEBQEAD@Z ; std::_Construct_in_place<char *,char * const &>

; 2680 : 
; 2681 :         _My_data._Mysize = _Count;

	mov	rax, QWORD PTR _My_data$[rbp]
	mov	rcx, QWORD PTR _Count$[rbp]
	mov	QWORD PTR [rax+24], rcx

; 2682 :         _My_data._Myres  = _New_capacity;

	mov	rax, QWORD PTR _My_data$[rbp]
	mov	rcx, QWORD PTR _New_capacity$[rbp]
	mov	QWORD PTR [rax+32], rcx

; 2683 :         if constexpr (_Strat == _Construct_strategy::_From_char) {
; 2684 :             _Traits::assign(_Unfancy(_New_ptr), _Count, _Arg);
; 2685 :             _Traits::assign(_Unfancy(_New_ptr)[_Count], _Elem());
; 2686 :         } else if constexpr (_Strat == _Construct_strategy::_From_ptr) {
; 2687 :             _Traits::copy(_Unfancy(_New_ptr), _Arg, _Count);
; 2688 :             _Traits::assign(_Unfancy(_New_ptr)[_Count], _Elem());
; 2689 :         } else { // _Strat == _Construct_strategy::_From_string
; 2690 :             _Traits::copy(_Unfancy(_New_ptr), _Arg, _Count + 1);

	mov	rax, QWORD PTR _Count$[rbp]
	inc	rax
	mov	QWORD PTR tv141[rbp], rax
	mov	rcx, QWORD PTR _New_ptr$[rbp]
	call	??$_Unfancy@D@std@@YAPEADPEAD@Z		; std::_Unfancy<char>
	mov	rcx, QWORD PTR tv141[rbp]
	mov	r8, rcx
	mov	rdx, QWORD PTR _Arg$[rbp]
	mov	rcx, rax
	call	?copy@?$_Char_traits@DH@std@@SAPEADQEADQEBD_K@Z ; std::_Char_traits<char,int>::copy

; 2691 :         }
; 2692 : 
; 2693 :         _ASAN_STRING_CREATE(*this);
; 2694 :         _Proxy._Release();

	lea	rcx, QWORD PTR _Proxy$[rbp]
	call	?_Release@_Basic_container_proxy_ptr12@std@@QEAAXXZ ; std::_Basic_container_proxy_ptr12::_Release
	npad	1

; 2695 :     }

	lea	rcx, QWORD PTR _Proxy$[rbp]
	call	??1?$_Container_proxy_ptr12@V?$allocator@U_Container_proxy@std@@@std@@@std@@QEAA@XZ ; std::_Container_proxy_ptr12<std::allocator<std::_Container_proxy> >::~_Container_proxy_ptr12<std::allocator<std::_Container_proxy> >
$LN4@Construct:
	lea	rcx, QWORD PTR [rbp-32]
	lea	rdx, OFFSET FLAT:??$_Construct@$01PEBD@?$basic_string@DU?$char_traits@D@std@@V?$allocator@D@2@@std@@AEAAXQEBD_K@Z$rtcFrameData
	call	_RTC_CheckStackVars
	mov	rcx, QWORD PTR __$ArrayPad$[rbp]
	xor	rcx, rbp
	call	__security_check_cookie
	lea	rsp, QWORD PTR [rbp+456]
	pop	rdi
	pop	rbp
	ret	0
$LN6@Construct:
??$_Construct@$01PEBD@?$basic_string@DU?$char_traits@D@std@@V?$allocator@D@2@@std@@AEAAXQEBD_K@Z ENDP ; std::basic_string<char,std::char_traits<char>,std::allocator<char> >::_Construct<2,char const *>
_TEXT	ENDS
; Function compile flags: /Odtp /RTCsu /ZI
;	COMDAT text$x
text$x	SEGMENT
_My_data$ = 8
_Al$ = 40
_Alproxy$ = 72
$S29$ = 100
_Proxy$ = 136
_New_capacity$ = 184
_New_ptr$ = 216
tv141 = 424
__$ArrayPad$ = 432
this$ = 480
_Arg$ = 488
_Count$ = 496
?dtor$0@?0???$_Construct@$01PEBD@?$basic_string@DU?$char_traits@D@std@@V?$allocator@D@2@@std@@AEAAXQEBD_K@Z@4HA PROC ; `std::basic_string<char,std::char_traits<char>,std::allocator<char> >::_Construct<2,char const *>'::`1'::dtor$0
	mov	QWORD PTR [rsp+8], rcx
	mov	QWORD PTR [rsp+16], rdx
	push	rbp
	push	rdi
	sub	rsp, 40					; 00000028H
	lea	rbp, QWORD PTR [rdx+32]
	lea	rcx, QWORD PTR _Proxy$[rbp]
	call	??1?$_Container_proxy_ptr12@V?$allocator@U_Container_proxy@std@@@std@@@std@@QEAA@XZ ; std::_Container_proxy_ptr12<std::allocator<std::_Container_proxy> >::~_Container_proxy_ptr12<std::allocator<std::_Container_proxy> >
	add	rsp, 40					; 00000028H
	pop	rdi
	pop	rbp
	ret	0
?dtor$0@?0???$_Construct@$01PEBD@?$basic_string@DU?$char_traits@D@std@@V?$allocator@D@2@@std@@AEAAXQEBD_K@Z@4HA ENDP ; `std::basic_string<char,std::char_traits<char>,std::allocator<char> >::_Construct<2,char const *>'::`1'::dtor$0
text$x	ENDS
; Function compile flags: /Odtp /RTCsu /ZI
; File C:\Program Files\Microsoft Visual Studio\2022\Community\VC\Tools\MSVC\14.38.33130\include\xstring
;	COMDAT ??$_Construct@$00PEBD@?$basic_string@DU?$char_traits@D@std@@V?$allocator@D@2@@std@@AEAAXQEBD_K@Z
_TEXT	SEGMENT
_My_data$ = 8
_Al$ = 40
_Alproxy$ = 72
$S28$ = 100
_Proxy$ = 136
_New_capacity$ = 184
_New_ptr$ = 216
$T7 = 436
$T8 = 468
__$ArrayPad$ = 488
this$ = 528
_Arg$ = 536
_Count$ = 544
??$_Construct@$00PEBD@?$basic_string@DU?$char_traits@D@std@@V?$allocator@D@2@@std@@AEAAXQEBD_K@Z PROC ; std::basic_string<char,std::char_traits<char>,std::allocator<char> >::_Construct<1,char const *>, COMDAT

; 2636 :     _CONSTEXPR20 void _Construct(const _Char_or_ptr _Arg, _CRT_GUARDOVERFLOW const size_type _Count) {

$LN7:
	mov	QWORD PTR [rsp+24], r8
	mov	QWORD PTR [rsp+16], rdx
	mov	QWORD PTR [rsp+8], rcx
	push	rbp
	push	rdi
	sub	rsp, 536				; 00000218H
	lea	rbp, QWORD PTR [rsp+32]
	lea	rdi, QWORD PTR [rsp+32]
	mov	ecx, 78					; 0000004eH
	mov	eax, -858993460				; ccccccccH
	rep stosd
	mov	rcx, QWORD PTR [rsp+568]
	mov	rax, QWORD PTR __security_cookie
	xor	rax, rbp
	mov	QWORD PTR __$ArrayPad$[rbp], rax
	lea	rcx, OFFSET FLAT:__270D62DC_xstring
	call	__CheckForDebuggerJustMyCode

; 2637 :         auto& _My_data = _Mypair._Myval2;

	mov	rax, QWORD PTR this$[rbp]
	mov	QWORD PTR _My_data$[rbp], rax

; 2638 :         _STL_INTERNAL_CHECK(!_My_data._Large_mode_engaged());
; 2639 : 
; 2640 :         if constexpr (_Strat == _Construct_strategy::_From_char) {
; 2641 :             _STL_INTERNAL_STATIC_ASSERT(is_same_v<_Char_or_ptr, _Elem>);
; 2642 :         } else {
; 2643 :             _STL_INTERNAL_STATIC_ASSERT(_Is_elem_cptr<_Char_or_ptr>::value);
; 2644 :         }
; 2645 : 
; 2646 :         if (_Count > max_size()) {

	mov	rcx, QWORD PTR this$[rbp]
	call	?max_size@?$basic_string@DU?$char_traits@D@std@@V?$allocator@D@2@@std@@QEBA_KXZ ; std::basic_string<char,std::char_traits<char>,std::allocator<char> >::max_size
	cmp	QWORD PTR _Count$[rbp], rax
	jbe	SHORT $LN2@Construct

; 2647 :             _Xlen_string(); // result too long

	call	?_Xlen_string@std@@YAXXZ		; std::_Xlen_string
$LN2@Construct:

; 2648 :         }
; 2649 : 
; 2650 :         auto& _Al       = _Getal();

	mov	rcx, QWORD PTR this$[rbp]
	call	?_Getal@?$basic_string@DU?$char_traits@D@std@@V?$allocator@D@2@@std@@AEAAAEAV?$allocator@D@2@XZ ; std::basic_string<char,std::char_traits<char>,std::allocator<char> >::_Getal
	mov	QWORD PTR _Al$[rbp], rax

; 2651 :         auto&& _Alproxy = _GET_PROXY_ALLOCATOR(_Alty, _Al);

	mov	rdx, QWORD PTR _Al$[rbp]
	lea	rcx, QWORD PTR $S28$[rbp]
	call	??$?0D@?$allocator@U_Container_proxy@std@@@std@@QEAA@AEBV?$allocator@D@1@@Z ; std::allocator<std::_Container_proxy>::allocator<std::_Container_proxy><char>
	lea	rax, QWORD PTR $S28$[rbp]
	mov	QWORD PTR _Alproxy$[rbp], rax

; 2652 :         _Container_proxy_ptr<_Alty> _Proxy(_Alproxy, _My_data);

	mov	r8, QWORD PTR _My_data$[rbp]
	mov	rdx, QWORD PTR _Alproxy$[rbp]
	lea	rcx, QWORD PTR _Proxy$[rbp]
	call	??0?$_Container_proxy_ptr12@V?$allocator@U_Container_proxy@std@@@std@@@std@@QEAA@AEAV?$allocator@U_Container_proxy@std@@@1@AEAU_Container_base12@1@@Z ; std::_Container_proxy_ptr12<std::allocator<std::_Container_proxy> >::_Container_proxy_ptr12<std::allocator<std::_Container_proxy> >
	npad	1

; 2653 : 
; 2654 :         if (_Count <= _Small_string_capacity) {

	cmp	QWORD PTR _Count$[rbp], 15
	ja	SHORT $LN3@Construct

; 2655 :             _My_data._Mysize = _Count;

	mov	rax, QWORD PTR _My_data$[rbp]
	mov	rcx, QWORD PTR _Count$[rbp]
	mov	QWORD PTR [rax+24], rcx

; 2656 :             _My_data._Myres  = _Small_string_capacity;

	mov	rax, QWORD PTR _My_data$[rbp]
	mov	QWORD PTR [rax+32], 15

; 2657 : 
; 2658 :             if constexpr (_Strat == _Construct_strategy::_From_char) {
; 2659 :                 _Traits::assign(_My_data._Bx._Buf, _Count, _Arg);
; 2660 :                 _Traits::assign(_My_data._Bx._Buf[_Count], _Elem());
; 2661 :             } else if constexpr (_Strat == _Construct_strategy::_From_ptr) {
; 2662 :                 _Traits::copy(_My_data._Bx._Buf, _Arg, _Count);

	mov	rax, QWORD PTR _My_data$[rbp]
	add	rax, 8
	mov	r8, QWORD PTR _Count$[rbp]
	mov	rdx, QWORD PTR _Arg$[rbp]
	mov	rcx, rax
	call	?copy@?$_Char_traits@DH@std@@SAPEADQEADQEBD_K@Z ; std::_Char_traits<char,int>::copy

; 2663 :                 _Traits::assign(_My_data._Bx._Buf[_Count], _Elem());

	mov	BYTE PTR $T7[rbp], 0
	mov	rax, QWORD PTR _My_data$[rbp]
	mov	rcx, QWORD PTR _Count$[rbp]
	lea	rax, QWORD PTR [rax+rcx+8]
	lea	rdx, QWORD PTR $T7[rbp]
	mov	rcx, rax
	call	?assign@?$_Narrow_char_traits@DH@std@@SAXAEADAEBD@Z ; std::_Narrow_char_traits<char,int>::assign

; 2664 :             } else { // _Strat == _Construct_strategy::_From_string
; 2665 : #ifdef _INSERT_STRING_ANNOTATION
; 2666 :                 _Traits::copy(_My_data._Bx._Buf, _Arg, _Count + 1);
; 2667 : #else // ^^^ _INSERT_STRING_ANNOTATION / !_INSERT_STRING_ANNOTATION vvv
; 2668 :                 _Traits::copy(_My_data._Bx._Buf, _Arg, _BUF_SIZE);
; 2669 : #endif // !_INSERT_STRING_ANNOTATION
; 2670 :             }
; 2671 : 
; 2672 :             _Proxy._Release();

	lea	rcx, QWORD PTR _Proxy$[rbp]
	call	?_Release@_Basic_container_proxy_ptr12@std@@QEAAXXZ ; std::_Basic_container_proxy_ptr12::_Release
	npad	1

; 2673 :             return;

	lea	rcx, QWORD PTR _Proxy$[rbp]
	call	??1?$_Container_proxy_ptr12@V?$allocator@U_Container_proxy@std@@@std@@@std@@QEAA@XZ ; std::_Container_proxy_ptr12<std::allocator<std::_Container_proxy> >::~_Container_proxy_ptr12<std::allocator<std::_Container_proxy> >
	jmp	$LN4@Construct
$LN3@Construct:

; 2674 :         }
; 2675 : 
; 2676 :         _My_data._Myres         = _Small_string_capacity;

	mov	rax, QWORD PTR _My_data$[rbp]
	mov	QWORD PTR [rax+32], 15

; 2677 :         size_type _New_capacity = _Calculate_growth(_Count);

	mov	rdx, QWORD PTR _Count$[rbp]
	mov	rcx, QWORD PTR this$[rbp]
	call	?_Calculate_growth@?$basic_string@DU?$char_traits@D@std@@V?$allocator@D@2@@std@@AEBA_K_K@Z ; std::basic_string<char,std::char_traits<char>,std::allocator<char> >::_Calculate_growth
	mov	QWORD PTR _New_capacity$[rbp], rax

; 2678 :         const pointer _New_ptr  = _Allocate_for_capacity(_Al, _New_capacity); // throws

	lea	rdx, QWORD PTR _New_capacity$[rbp]
	mov	rcx, QWORD PTR _Al$[rbp]
	call	??$_Allocate_for_capacity@$0A@@?$basic_string@DU?$char_traits@D@std@@V?$allocator@D@2@@std@@CAPEADAEAV?$allocator@D@1@AEA_K@Z ; std::basic_string<char,std::char_traits<char>,std::allocator<char> >::_Allocate_for_capacity<0>
	mov	QWORD PTR _New_ptr$[rbp], rax

; 2679 :         _Construct_in_place(_My_data._Bx._Ptr, _New_ptr);

	mov	rax, QWORD PTR _My_data$[rbp]
	add	rax, 8
	lea	rdx, QWORD PTR _New_ptr$[rbp]
	mov	rcx, rax
	call	??$_Construct_in_place@PEADAEBQEAD@std@@YAXAEAPEADAEBQEAD@Z ; std::_Construct_in_place<char *,char * const &>

; 2680 : 
; 2681 :         _My_data._Mysize = _Count;

	mov	rax, QWORD PTR _My_data$[rbp]
	mov	rcx, QWORD PTR _Count$[rbp]
	mov	QWORD PTR [rax+24], rcx

; 2682 :         _My_data._Myres  = _New_capacity;

	mov	rax, QWORD PTR _My_data$[rbp]
	mov	rcx, QWORD PTR _New_capacity$[rbp]
	mov	QWORD PTR [rax+32], rcx

; 2683 :         if constexpr (_Strat == _Construct_strategy::_From_char) {
; 2684 :             _Traits::assign(_Unfancy(_New_ptr), _Count, _Arg);
; 2685 :             _Traits::assign(_Unfancy(_New_ptr)[_Count], _Elem());
; 2686 :         } else if constexpr (_Strat == _Construct_strategy::_From_ptr) {
; 2687 :             _Traits::copy(_Unfancy(_New_ptr), _Arg, _Count);

	mov	rcx, QWORD PTR _New_ptr$[rbp]
	call	??$_Unfancy@D@std@@YAPEADPEAD@Z		; std::_Unfancy<char>
	mov	r8, QWORD PTR _Count$[rbp]
	mov	rdx, QWORD PTR _Arg$[rbp]
	mov	rcx, rax
	call	?copy@?$_Char_traits@DH@std@@SAPEADQEADQEBD_K@Z ; std::_Char_traits<char,int>::copy

; 2688 :             _Traits::assign(_Unfancy(_New_ptr)[_Count], _Elem());

	mov	BYTE PTR $T8[rbp], 0
	mov	rcx, QWORD PTR _New_ptr$[rbp]
	call	??$_Unfancy@D@std@@YAPEADPEAD@Z		; std::_Unfancy<char>
	add	rax, QWORD PTR _Count$[rbp]
	lea	rdx, QWORD PTR $T8[rbp]
	mov	rcx, rax
	call	?assign@?$_Narrow_char_traits@DH@std@@SAXAEADAEBD@Z ; std::_Narrow_char_traits<char,int>::assign

; 2689 :         } else { // _Strat == _Construct_strategy::_From_string
; 2690 :             _Traits::copy(_Unfancy(_New_ptr), _Arg, _Count + 1);
; 2691 :         }
; 2692 : 
; 2693 :         _ASAN_STRING_CREATE(*this);
; 2694 :         _Proxy._Release();

	lea	rcx, QWORD PTR _Proxy$[rbp]
	call	?_Release@_Basic_container_proxy_ptr12@std@@QEAAXXZ ; std::_Basic_container_proxy_ptr12::_Release
	npad	1

; 2695 :     }

	lea	rcx, QWORD PTR _Proxy$[rbp]
	call	??1?$_Container_proxy_ptr12@V?$allocator@U_Container_proxy@std@@@std@@@std@@QEAA@XZ ; std::_Container_proxy_ptr12<std::allocator<std::_Container_proxy> >::~_Container_proxy_ptr12<std::allocator<std::_Container_proxy> >
$LN4@Construct:
	lea	rcx, QWORD PTR [rbp-32]
	lea	rdx, OFFSET FLAT:??$_Construct@$00PEBD@?$basic_string@DU?$char_traits@D@std@@V?$allocator@D@2@@std@@AEAAXQEBD_K@Z$rtcFrameData
	call	_RTC_CheckStackVars
	mov	rcx, QWORD PTR __$ArrayPad$[rbp]
	xor	rcx, rbp
	call	__security_check_cookie
	lea	rsp, QWORD PTR [rbp+504]
	pop	rdi
	pop	rbp
	ret	0
$LN6@Construct:
??$_Construct@$00PEBD@?$basic_string@DU?$char_traits@D@std@@V?$allocator@D@2@@std@@AEAAXQEBD_K@Z ENDP ; std::basic_string<char,std::char_traits<char>,std::allocator<char> >::_Construct<1,char const *>
_TEXT	ENDS
; Function compile flags: /Odtp /RTCsu /ZI
;	COMDAT text$x
text$x	SEGMENT
_My_data$ = 8
_Al$ = 40
_Alproxy$ = 72
$S28$ = 100
_Proxy$ = 136
_New_capacity$ = 184
_New_ptr$ = 216
$T7 = 436
$T8 = 468
__$ArrayPad$ = 488
this$ = 528
_Arg$ = 536
_Count$ = 544
?dtor$0@?0???$_Construct@$00PEBD@?$basic_string@DU?$char_traits@D@std@@V?$allocator@D@2@@std@@AEAAXQEBD_K@Z@4HA PROC ; `std::basic_string<char,std::char_traits<char>,std::allocator<char> >::_Construct<1,char const *>'::`1'::dtor$0
	mov	QWORD PTR [rsp+8], rcx
	mov	QWORD PTR [rsp+16], rdx
	push	rbp
	push	rdi
	sub	rsp, 40					; 00000028H
	lea	rbp, QWORD PTR [rdx+32]
	lea	rcx, QWORD PTR _Proxy$[rbp]
	call	??1?$_Container_proxy_ptr12@V?$allocator@U_Container_proxy@std@@@std@@@std@@QEAA@XZ ; std::_Container_proxy_ptr12<std::allocator<std::_Container_proxy> >::~_Container_proxy_ptr12<std::allocator<std::_Container_proxy> >
	add	rsp, 40					; 00000028H
	pop	rdi
	pop	rbp
	ret	0
?dtor$0@?0???$_Construct@$00PEBD@?$basic_string@DU?$char_traits@D@std@@V?$allocator@D@2@@std@@AEAAXQEBD_K@Z@4HA ENDP ; `std::basic_string<char,std::char_traits<char>,std::allocator<char> >::_Construct<1,char const *>'::`1'::dtor$0
text$x	ENDS
; Function compile flags: /Odtp /RTCsu /ZI
; File C:\Program Files\Microsoft Visual Studio\2022\Community\VC\Tools\MSVC\14.38.33130\include\xmemory
;	COMDAT ??$?0$$V@?$_Compressed_pair@V?$allocator@D@std@@V?$_String_val@U?$_Simple_types@D@std@@@2@$00@std@@QEAA@U_Zero_then_variadic_args_t@1@@Z
_TEXT	SEGMENT
this$ = 224
__formal$ = 232
??$?0$$V@?$_Compressed_pair@V?$allocator@D@std@@V?$_String_val@U?$_Simple_types@D@std@@@2@$00@std@@QEAA@U_Zero_then_variadic_args_t@1@@Z PROC ; std::_Compressed_pair<std::allocator<char>,std::_String_val<std::_Simple_types<char> >,1>::_Compressed_pair<std::allocator<char>,std::_String_val<std::_Simple_types<char> >,1><>, COMDAT

; 1519 :         : _Ty1(), _Myval2(_STD forward<_Other2>(_Val2)...) {}

$LN3:
	mov	BYTE PTR [rsp+16], dl
	mov	QWORD PTR [rsp+8], rcx
	push	rbp
	push	rdi
	sub	rsp, 232				; 000000e8H
	lea	rbp, QWORD PTR [rsp+32]
	lea	rcx, OFFSET FLAT:__53DEE440_xmemory
	call	__CheckForDebuggerJustMyCode
	mov	rcx, QWORD PTR this$[rbp]
	call	??0?$allocator@D@std@@QEAA@XZ		; std::allocator<char>::allocator<char>
	mov	rax, QWORD PTR this$[rbp]
	mov	rcx, rax
	call	??0?$_String_val@U?$_Simple_types@D@std@@@std@@QEAA@XZ ; std::_String_val<std::_Simple_types<char> >::_String_val<std::_Simple_types<char> >
	mov	rax, QWORD PTR this$[rbp]
	lea	rsp, QWORD PTR [rbp+200]
	pop	rdi
	pop	rbp
	ret	0
??$?0$$V@?$_Compressed_pair@V?$allocator@D@std@@V?$_String_val@U?$_Simple_types@D@std@@@2@$00@std@@QEAA@U_Zero_then_variadic_args_t@1@@Z ENDP ; std::_Compressed_pair<std::allocator<char>,std::_String_val<std::_Simple_types<char> >,1>::_Compressed_pair<std::allocator<char>,std::_String_val<std::_Simple_types<char> >,1><>
_TEXT	ENDS
; Function compile flags: /Odtp /RTCsu /ZI
; File C:\Program Files\Microsoft Visual Studio\2022\Community\VC\Tools\MSVC\14.38.33130\include\xmemory
;	COMDAT ??$?0V?$allocator@D@std@@$$V@?$_Compressed_pair@V?$allocator@D@std@@V?$_String_val@U?$_Simple_types@D@std@@@2@$00@std@@QEAA@U_One_then_variadic_args_t@1@$$QEAV?$allocator@D@1@@Z
_TEXT	SEGMENT
this$ = 224
__formal$ = 232
_Val1$ = 240
??$?0V?$allocator@D@std@@$$V@?$_Compressed_pair@V?$allocator@D@std@@V?$_String_val@U?$_Simple_types@D@std@@@2@$00@std@@QEAA@U_One_then_variadic_args_t@1@$$QEAV?$allocator@D@1@@Z PROC ; std::_Compressed_pair<std::allocator<char>,std::_String_val<std::_Simple_types<char> >,1>::_Compressed_pair<std::allocator<char>,std::_String_val<std::_Simple_types<char> >,1><std::allocator<char> >, COMDAT

; 1524 :         : _Ty1(_STD forward<_Other1>(_Val1)), _Myval2(_STD forward<_Other2>(_Val2)...) {}

$LN3:
	mov	QWORD PTR [rsp+24], r8
	mov	BYTE PTR [rsp+16], dl
	mov	QWORD PTR [rsp+8], rcx
	push	rbp
	push	rdi
	sub	rsp, 232				; 000000e8H
	lea	rbp, QWORD PTR [rsp+32]
	lea	rcx, OFFSET FLAT:__53DEE440_xmemory
	call	__CheckForDebuggerJustMyCode
	mov	rax, QWORD PTR this$[rbp]
	mov	rcx, rax
	call	??0?$_String_val@U?$_Simple_types@D@std@@@std@@QEAA@XZ ; std::_String_val<std::_Simple_types<char> >::_String_val<std::_Simple_types<char> >
	mov	rax, QWORD PTR this$[rbp]
	lea	rsp, QWORD PTR [rbp+200]
	pop	rdi
	pop	rbp
	ret	0
??$?0V?$allocator@D@std@@$$V@?$_Compressed_pair@V?$allocator@D@std@@V?$_String_val@U?$_Simple_types@D@std@@@2@$00@std@@QEAA@U_One_then_variadic_args_t@1@$$QEAV?$allocator@D@1@@Z ENDP ; std::_Compressed_pair<std::allocator<char>,std::_String_val<std::_Simple_types<char> >,1>::_Compressed_pair<std::allocator<char>,std::_String_val<std::_Simple_types<char> >,1><std::allocator<char> >
_TEXT	ENDS
; Function compile flags: /Odtp /RTCsu /ZI
; File C:\Program Files\Microsoft Visual Studio\2022\Community\VC\Tools\MSVC\14.38.33130\include\xmemory
;	COMDAT ??$?0D@?$allocator@U_Container_proxy@std@@@std@@QEAA@AEBV?$allocator@D@1@@Z
_TEXT	SEGMENT
this$ = 224
__formal$ = 232
??$?0D@?$allocator@U_Container_proxy@std@@@std@@QEAA@AEBV?$allocator@D@1@@Z PROC ; std::allocator<std::_Container_proxy>::allocator<std::_Container_proxy><char>, COMDAT

; 966  :     constexpr allocator(const allocator<_Other>&) noexcept {}

$LN3:
	mov	QWORD PTR [rsp+16], rdx
	mov	QWORD PTR [rsp+8], rcx
	push	rbp
	push	rdi
	sub	rsp, 232				; 000000e8H
	lea	rbp, QWORD PTR [rsp+32]
	lea	rcx, OFFSET FLAT:__53DEE440_xmemory
	call	__CheckForDebuggerJustMyCode
	mov	rax, QWORD PTR this$[rbp]
	lea	rsp, QWORD PTR [rbp+200]
	pop	rdi
	pop	rbp
	ret	0
??$?0D@?$allocator@U_Container_proxy@std@@@std@@QEAA@AEBV?$allocator@D@1@@Z ENDP ; std::allocator<std::_Container_proxy>::allocator<std::_Container_proxy><char>
_TEXT	ENDS
; Function compile flags: /Odtp /RTCsu /ZI
; File C:\Program Files\Microsoft Visual Studio\2022\Community\VC\Tools\MSVC\14.38.33130\include\xmemory
;	COMDAT ??$_Convert_size@_K_K@std@@YA_K_K@Z
_TEXT	SEGMENT
_Len$ = 224
??$_Convert_size@_K_K@std@@YA_K_K@Z PROC		; std::_Convert_size<unsigned __int64,unsigned __int64>, COMDAT

; 1108 :     sizeof(_Unsigned_type) <= sizeof(_Size_type)) {

$LN3:
	mov	QWORD PTR [rsp+8], rcx
	push	rbp
	push	rdi
	sub	rsp, 232				; 000000e8H
	lea	rbp, QWORD PTR [rsp+32]
	lea	rcx, OFFSET FLAT:__53DEE440_xmemory
	call	__CheckForDebuggerJustMyCode

; 1109 :     // convert _Unsigned_type to _Size_type, avoiding truncation
; 1110 :     _STL_INTERNAL_STATIC_ASSERT(_Unsigned_type(-1) > 0);
; 1111 :     _STL_INTERNAL_STATIC_ASSERT(_Size_type(-1) > 0);
; 1112 : 
; 1113 :     if constexpr (sizeof(_Unsigned_type) > sizeof(_Size_type)) {
; 1114 :         if (_Len > (numeric_limits<_Size_type>::max)()) {
; 1115 :             _Xlength_error("size is too long for _Size_type");
; 1116 :         }
; 1117 :     }
; 1118 : 
; 1119 :     return static_cast<_Size_type>(_Len);

	mov	rax, QWORD PTR _Len$[rbp]

; 1120 : }

	lea	rsp, QWORD PTR [rbp+200]
	pop	rdi
	pop	rbp
	ret	0
??$_Convert_size@_K_K@std@@YA_K_K@Z ENDP		; std::_Convert_size<unsigned __int64,unsigned __int64>
_TEXT	ENDS
; Function compile flags: /Odtp /RTCsu /ZI
; File C:\Program Files\Microsoft Visual Studio\2022\Community\VC\Tools\MSVC\14.38.33130\include\utility
;	COMDAT ??$min@_K@std@@YAAEB_KAEB_K0@Z
_TEXT	SEGMENT
$T1 = 200
tv65 = 216
_Left$ = 256
_Right$ = 264
??$min@_K@std@@YAAEB_KAEB_K0@Z PROC			; std::min<unsigned __int64>, COMDAT

; 98   :     (min) (const _Ty& _Left, const _Ty& _Right) noexcept(noexcept(_Right < _Left)) /* strengthened */ {

$LN5:
	mov	QWORD PTR [rsp+16], rdx
	mov	QWORD PTR [rsp+8], rcx
	push	rbp
	push	rdi
	sub	rsp, 264				; 00000108H
	lea	rbp, QWORD PTR [rsp+32]
	lea	rcx, OFFSET FLAT:__394B8783_utility
	call	__CheckForDebuggerJustMyCode

; 99   :     // return smaller of _Left and _Right
; 100  :     return _Right < _Left ? _Right : _Left;

	mov	rax, QWORD PTR _Right$[rbp]
	mov	rcx, QWORD PTR _Left$[rbp]
	mov	rcx, QWORD PTR [rcx]
	cmp	QWORD PTR [rax], rcx
	jae	SHORT $LN3@min
	mov	rax, QWORD PTR _Right$[rbp]
	mov	QWORD PTR tv65[rbp], rax
	jmp	SHORT $LN4@min
$LN3@min:
	mov	rax, QWORD PTR _Left$[rbp]
	mov	QWORD PTR tv65[rbp], rax
$LN4@min:
	mov	rax, QWORD PTR tv65[rbp]
	mov	QWORD PTR $T1[rbp], rax
	mov	rax, QWORD PTR $T1[rbp]

; 101  : }

	lea	rsp, QWORD PTR [rbp+232]
	pop	rdi
	pop	rbp
	ret	0
??$min@_K@std@@YAAEB_KAEB_K0@Z ENDP			; std::min<unsigned __int64>
_TEXT	ENDS
; Function compile flags: /Odtp /RTCsu /ZI
; File C:\Program Files\Microsoft Visual Studio\2022\Community\VC\Tools\MSVC\14.38.33130\include\ostream
;	COMDAT ??Bsentry@?$basic_ostream@DU?$char_traits@D@std@@@std@@QEBA_NXZ
_TEXT	SEGMENT
this$ = 224
??Bsentry@?$basic_ostream@DU?$char_traits@D@std@@@std@@QEBA_NXZ PROC ; std::basic_ostream<char,std::char_traits<char> >::sentry::operator bool, COMDAT

; 128  :         explicit __CLR_OR_THIS_CALL operator bool() const {

$LN3:
	mov	QWORD PTR [rsp+8], rcx
	push	rbp
	push	rdi
	sub	rsp, 232				; 000000e8H
	lea	rbp, QWORD PTR [rsp+32]
	lea	rcx, OFFSET FLAT:__EB23CC29_ostream
	call	__CheckForDebuggerJustMyCode

; 129  :             return _Ok;

	mov	rax, QWORD PTR this$[rbp]
	movzx	eax, BYTE PTR [rax+8]

; 130  :         }

	lea	rsp, QWORD PTR [rbp+200]
	pop	rdi
	pop	rbp
	ret	0
??Bsentry@?$basic_ostream@DU?$char_traits@D@std@@@std@@QEBA_NXZ ENDP ; std::basic_ostream<char,std::char_traits<char> >::sentry::operator bool
_TEXT	ENDS
; Function compile flags: /Odtp /RTCsu /ZI
; File C:\Program Files\Microsoft Visual Studio\2022\Community\VC\Tools\MSVC\14.38.33130\include\ostream
;	COMDAT ??1sentry@?$basic_ostream@DU?$char_traits@D@std@@@std@@QEAA@XZ
_TEXT	SEGMENT
_Zero_uncaught_exceptions$ = 4
tv71 = 212
this$ = 256
??1sentry@?$basic_ostream@DU?$char_traits@D@std@@@std@@QEAA@XZ PROC ; std::basic_ostream<char,std::char_traits<char> >::sentry::~sentry, COMDAT

; 113  :         __CLR_OR_THIS_CALL ~sentry() noexcept {

$LN6:
	mov	QWORD PTR [rsp+8], rcx
	push	rbp
	push	rdi
	sub	rsp, 264				; 00000108H
	lea	rbp, QWORD PTR [rsp+32]
	lea	rcx, OFFSET FLAT:__EB23CC29_ostream
	call	__CheckForDebuggerJustMyCode

; 114  : #if !_HAS_EXCEPTIONS
; 115  :             const bool _Zero_uncaught_exceptions = true;
; 116  : #elif _HAS_DEPRECATED_UNCAUGHT_EXCEPTION
; 117  :             const bool _Zero_uncaught_exceptions = !_STD uncaught_exception(); // TRANSITION, ArchivedOS-12000909
; 118  : #else // ^^^ _HAS_DEPRECATED_UNCAUGHT_EXCEPTION / !_HAS_DEPRECATED_UNCAUGHT_EXCEPTION vvv
; 119  :             const bool _Zero_uncaught_exceptions = _STD uncaught_exceptions() == 0;

	call	?uncaught_exceptions@std@@YAHXZ		; std::uncaught_exceptions
	test	eax, eax
	jne	SHORT $LN4@sentry
	mov	BYTE PTR tv71[rbp], 1
	jmp	SHORT $LN5@sentry
$LN4@sentry:
	mov	BYTE PTR tv71[rbp], 0
$LN5@sentry:
	movzx	eax, BYTE PTR tv71[rbp]
	mov	BYTE PTR _Zero_uncaught_exceptions$[rbp], al

; 120  : #endif // !_HAS_DEPRECATED_UNCAUGHT_EXCEPTION
; 121  : 
; 122  :             if (_Zero_uncaught_exceptions) {

	movzx	eax, BYTE PTR _Zero_uncaught_exceptions$[rbp]
	test	eax, eax
	je	SHORT $LN2@sentry

; 123  :                 this->_Myostr._Osfx();

	mov	rax, QWORD PTR this$[rbp]
	mov	rcx, QWORD PTR [rax]
	call	QWORD PTR __imp_?_Osfx@?$basic_ostream@DU?$char_traits@D@std@@@std@@QEAAXXZ
$LN2@sentry:

; 124  :             }
; 125  :         }

	mov	rcx, QWORD PTR this$[rbp]
	call	??1_Sentry_base@?$basic_ostream@DU?$char_traits@D@std@@@std@@QEAA@XZ ; std::basic_ostream<char,std::char_traits<char> >::_Sentry_base::~_Sentry_base
	lea	rsp, QWORD PTR [rbp+232]
	pop	rdi
	pop	rbp
	ret	0
??1sentry@?$basic_ostream@DU?$char_traits@D@std@@@std@@QEAA@XZ ENDP ; std::basic_ostream<char,std::char_traits<char> >::sentry::~sentry
_TEXT	ENDS
; Function compile flags: /Odtp /RTCsu /ZI
; File C:\Program Files\Microsoft Visual Studio\2022\Community\VC\Tools\MSVC\14.38.33130\include\ostream
;	COMDAT ??0sentry@?$basic_ostream@DU?$char_traits@D@std@@@std@@QEAA@AEAV12@@Z
_TEXT	SEGMENT
_Tied$ = 8
this$ = 256
_Ostr$ = 264
??0sentry@?$basic_ostream@DU?$char_traits@D@std@@@std@@QEAA@AEAV12@@Z PROC ; std::basic_ostream<char,std::char_traits<char> >::sentry::sentry, COMDAT

; 96   :         explicit __CLR_OR_THIS_CALL sentry(basic_ostream& _Ostr) : _Sentry_base(_Ostr) {

$LN7:
	mov	QWORD PTR [rsp+16], rdx
	mov	QWORD PTR [rsp+8], rcx
	push	rbp
	push	rdi
	sub	rsp, 264				; 00000108H
	lea	rbp, QWORD PTR [rsp+32]
	lea	rcx, OFFSET FLAT:__EB23CC29_ostream
	call	__CheckForDebuggerJustMyCode
	mov	rdx, QWORD PTR _Ostr$[rbp]
	mov	rcx, QWORD PTR this$[rbp]
	call	??0_Sentry_base@?$basic_ostream@DU?$char_traits@D@std@@@std@@QEAA@AEAV12@@Z ; std::basic_ostream<char,std::char_traits<char> >::_Sentry_base::_Sentry_base
	npad	1

; 97   :             if (!_Ostr.good()) {

	mov	rax, QWORD PTR _Ostr$[rbp]
	mov	rax, QWORD PTR [rax]
	movsxd	rax, DWORD PTR [rax+4]
	mov	rcx, QWORD PTR _Ostr$[rbp]
	add	rcx, rax
	mov	rax, rcx
	mov	rcx, rax
	call	QWORD PTR __imp_?good@ios_base@std@@QEBA_NXZ
	movzx	eax, al
	test	eax, eax
	jne	SHORT $LN2@sentry

; 98   :                 _Ok = false;

	mov	rax, QWORD PTR this$[rbp]
	mov	BYTE PTR [rax+8], 0

; 99   :                 return;

	jmp	$LN1@sentry
$LN2@sentry:

; 100  :             }
; 101  : 
; 102  :             const auto _Tied = _Ostr.tie();

	mov	rax, QWORD PTR _Ostr$[rbp]
	mov	rax, QWORD PTR [rax]
	movsxd	rax, DWORD PTR [rax+4]
	mov	rcx, QWORD PTR _Ostr$[rbp]
	add	rcx, rax
	mov	rax, rcx
	mov	rcx, rax
	call	QWORD PTR __imp_?tie@?$basic_ios@DU?$char_traits@D@std@@@std@@QEBAPEAV?$basic_ostream@DU?$char_traits@D@std@@@2@XZ
	mov	QWORD PTR _Tied$[rbp], rax

; 103  :             if (!_Tied || _Tied == &_Ostr) {

	cmp	QWORD PTR _Tied$[rbp], 0
	je	SHORT $LN4@sentry
	mov	rax, QWORD PTR _Ostr$[rbp]
	cmp	QWORD PTR _Tied$[rbp], rax
	jne	SHORT $LN3@sentry
$LN4@sentry:

; 104  :                 _Ok = true;

	mov	rax, QWORD PTR this$[rbp]
	mov	BYTE PTR [rax+8], 1

; 105  :                 return;

	jmp	SHORT $LN1@sentry
$LN3@sentry:

; 106  :             }
; 107  : 
; 108  :             _Tied->flush();

	mov	rcx, QWORD PTR _Tied$[rbp]
	call	QWORD PTR __imp_?flush@?$basic_ostream@DU?$char_traits@D@std@@@std@@QEAAAEAV12@XZ

; 109  :             _Ok = _Ostr.good(); // store test only after flushing tie

	mov	rax, QWORD PTR _Ostr$[rbp]
	mov	rax, QWORD PTR [rax]
	movsxd	rax, DWORD PTR [rax+4]
	mov	rcx, QWORD PTR _Ostr$[rbp]
	add	rcx, rax
	mov	rax, rcx
	mov	rcx, rax
	call	QWORD PTR __imp_?good@ios_base@std@@QEBA_NXZ
	mov	rcx, QWORD PTR this$[rbp]
	mov	BYTE PTR [rcx+8], al
$LN1@sentry:

; 110  :         }

	mov	rax, QWORD PTR this$[rbp]
	lea	rsp, QWORD PTR [rbp+232]
	pop	rdi
	pop	rbp
	ret	0
??0sentry@?$basic_ostream@DU?$char_traits@D@std@@@std@@QEAA@AEAV12@@Z ENDP ; std::basic_ostream<char,std::char_traits<char> >::sentry::sentry
_TEXT	ENDS
; Function compile flags: /Odtp /RTCsu /ZI
;	COMDAT text$x
text$x	SEGMENT
_Tied$ = 8
this$ = 256
_Ostr$ = 264
?dtor$0@?0???0sentry@?$basic_ostream@DU?$char_traits@D@std@@@std@@QEAA@AEAV12@@Z@4HA PROC ; `std::basic_ostream<char,std::char_traits<char> >::sentry::sentry'::`1'::dtor$0
	mov	QWORD PTR [rsp+8], rcx
	mov	QWORD PTR [rsp+16], rdx
	push	rbp
	push	rdi
	sub	rsp, 40					; 00000028H
	lea	rbp, QWORD PTR [rdx+32]
	mov	rcx, QWORD PTR this$[rbp]
	call	??1_Sentry_base@?$basic_ostream@DU?$char_traits@D@std@@@std@@QEAA@XZ ; std::basic_ostream<char,std::char_traits<char> >::_Sentry_base::~_Sentry_base
	add	rsp, 40					; 00000028H
	pop	rdi
	pop	rbp
	ret	0
?dtor$0@?0???0sentry@?$basic_ostream@DU?$char_traits@D@std@@@std@@QEAA@AEAV12@@Z@4HA ENDP ; `std::basic_ostream<char,std::char_traits<char> >::sentry::sentry'::`1'::dtor$0
text$x	ENDS
; Function compile flags: /Odtp /RTCsu /ZI
; File C:\Program Files\Microsoft Visual Studio\2022\Community\VC\Tools\MSVC\14.38.33130\include\ostream
;	COMDAT ??1_Sentry_base@?$basic_ostream@DU?$char_traits@D@std@@@std@@QEAA@XZ
_TEXT	SEGMENT
_Rdbuf$ = 8
tv72 = 216
this$ = 256
??1_Sentry_base@?$basic_ostream@DU?$char_traits@D@std@@@std@@QEAA@XZ PROC ; std::basic_ostream<char,std::char_traits<char> >::_Sentry_base::~_Sentry_base, COMDAT

; 82   :         __CLR_OR_THIS_CALL ~_Sentry_base() noexcept { // destroy after unlocking

$LN4:
	mov	QWORD PTR [rsp+8], rcx
	push	rbp
	push	rdi
	sub	rsp, 264				; 00000108H
	lea	rbp, QWORD PTR [rsp+32]
	lea	rcx, OFFSET FLAT:__EB23CC29_ostream
	call	__CheckForDebuggerJustMyCode

; 83   :             const auto _Rdbuf = _Myostr.rdbuf();

	mov	rax, QWORD PTR this$[rbp]
	mov	rax, QWORD PTR [rax]
	mov	QWORD PTR tv72[rbp], rax
	mov	rax, QWORD PTR tv72[rbp]
	mov	rax, QWORD PTR [rax]
	movsxd	rax, DWORD PTR [rax+4]
	mov	rcx, QWORD PTR tv72[rbp]
	add	rcx, rax
	mov	rax, rcx
	mov	rcx, rax
	call	QWORD PTR __imp_?rdbuf@?$basic_ios@DU?$char_traits@D@std@@@std@@QEBAPEAV?$basic_streambuf@DU?$char_traits@D@std@@@2@XZ
	mov	QWORD PTR _Rdbuf$[rbp], rax

; 84   :             if (_Rdbuf) {

	cmp	QWORD PTR _Rdbuf$[rbp], 0
	je	SHORT $LN2@Sentry_bas

; 85   :                 _Rdbuf->_Unlock();

	mov	rax, QWORD PTR _Rdbuf$[rbp]
	mov	rax, QWORD PTR [rax]
	mov	rcx, QWORD PTR _Rdbuf$[rbp]
	call	QWORD PTR [rax+16]
	npad	1
$LN2@Sentry_bas:

; 86   :             }
; 87   :         }

	lea	rsp, QWORD PTR [rbp+232]
	pop	rdi
	pop	rbp
	ret	0
??1_Sentry_base@?$basic_ostream@DU?$char_traits@D@std@@@std@@QEAA@XZ ENDP ; std::basic_ostream<char,std::char_traits<char> >::_Sentry_base::~_Sentry_base
_TEXT	ENDS
; Function compile flags: /Odtp /RTCsu /ZI
; File C:\Program Files\Microsoft Visual Studio\2022\Community\VC\Tools\MSVC\14.38.33130\include\ostream
;	COMDAT ??0_Sentry_base@?$basic_ostream@DU?$char_traits@D@std@@@std@@QEAA@AEAV12@@Z
_TEXT	SEGMENT
_Rdbuf$ = 8
tv73 = 216
this$ = 256
_Ostr$ = 264
??0_Sentry_base@?$basic_ostream@DU?$char_traits@D@std@@@std@@QEAA@AEAV12@@Z PROC ; std::basic_ostream<char,std::char_traits<char> >::_Sentry_base::_Sentry_base, COMDAT

; 75   :         __CLR_OR_THIS_CALL _Sentry_base(basic_ostream& _Ostr) : _Myostr(_Ostr) { // lock the stream buffer, if there

$LN4:
	mov	QWORD PTR [rsp+16], rdx
	mov	QWORD PTR [rsp+8], rcx
	push	rbp
	push	rdi
	sub	rsp, 264				; 00000108H
	lea	rbp, QWORD PTR [rsp+32]
	lea	rcx, OFFSET FLAT:__EB23CC29_ostream
	call	__CheckForDebuggerJustMyCode
	mov	rax, QWORD PTR this$[rbp]
	mov	rcx, QWORD PTR _Ostr$[rbp]
	mov	QWORD PTR [rax], rcx

; 76   :             const auto _Rdbuf = _Myostr.rdbuf();

	mov	rax, QWORD PTR this$[rbp]
	mov	rax, QWORD PTR [rax]
	mov	QWORD PTR tv73[rbp], rax
	mov	rax, QWORD PTR tv73[rbp]
	mov	rax, QWORD PTR [rax]
	movsxd	rax, DWORD PTR [rax+4]
	mov	rcx, QWORD PTR tv73[rbp]
	add	rcx, rax
	mov	rax, rcx
	mov	rcx, rax
	call	QWORD PTR __imp_?rdbuf@?$basic_ios@DU?$char_traits@D@std@@@std@@QEBAPEAV?$basic_streambuf@DU?$char_traits@D@std@@@2@XZ
	mov	QWORD PTR _Rdbuf$[rbp], rax

; 77   :             if (_Rdbuf) {

	cmp	QWORD PTR _Rdbuf$[rbp], 0
	je	SHORT $LN2@Sentry_bas

; 78   :                 _Rdbuf->_Lock();

	mov	rax, QWORD PTR _Rdbuf$[rbp]
	mov	rax, QWORD PTR [rax]
	mov	rcx, QWORD PTR _Rdbuf$[rbp]
	call	QWORD PTR [rax+8]
$LN2@Sentry_bas:

; 79   :             }
; 80   :         }

	mov	rax, QWORD PTR this$[rbp]
	lea	rsp, QWORD PTR [rbp+232]
	pop	rdi
	pop	rbp
	ret	0
??0_Sentry_base@?$basic_ostream@DU?$char_traits@D@std@@@std@@QEAA@AEAV12@@Z ENDP ; std::basic_ostream<char,std::char_traits<char> >::_Sentry_base::_Sentry_base
_TEXT	ENDS
; Function compile flags: /Odtp /RTCsu /ZI
; File C:\Program Files\Microsoft Visual Studio\2022\Community\VC\Tools\MSVC\14.38.33130\include\xmemory
;	COMDAT ??$_Unfancy@D@std@@YAPEADPEAD@Z
_TEXT	SEGMENT
_Ptr$ = 224
??$_Unfancy@D@std@@YAPEADPEAD@Z PROC			; std::_Unfancy<char>, COMDAT

; 35   : _NODISCARD constexpr _Ty* _Unfancy(_Ty* _Ptr) noexcept { // do nothing for plain pointers

$LN3:
	mov	QWORD PTR [rsp+8], rcx
	push	rbp
	push	rdi
	sub	rsp, 232				; 000000e8H
	lea	rbp, QWORD PTR [rsp+32]
	lea	rcx, OFFSET FLAT:__53DEE440_xmemory
	call	__CheckForDebuggerJustMyCode

; 36   :     return _Ptr;

	mov	rax, QWORD PTR _Ptr$[rbp]

; 37   : }

	lea	rsp, QWORD PTR [rbp+200]
	pop	rdi
	pop	rbp
	ret	0
??$_Unfancy@D@std@@YAPEADPEAD@Z ENDP			; std::_Unfancy<char>
_TEXT	ENDS
; Function compile flags: /Odtp /RTCsu /ZI
; File C:\Program Files\Microsoft Visual Studio\2022\Community\VC\Tools\MSVC\14.38.33130\include\xmemory
;	COMDAT ??$_Allocate_at_least_helper@V?$allocator@D@std@@@std@@YAPEADAEAV?$allocator@D@0@AEA_K@Z
_TEXT	SEGMENT
_Al$ = 224
_Count$ = 232
??$_Allocate_at_least_helper@V?$allocator@D@std@@@std@@YAPEADAEAV?$allocator@D@0@AEA_K@Z PROC ; std::_Allocate_at_least_helper<std::allocator<char> >, COMDAT

; 2198 :     _Alloc& _Al, _CRT_GUARDOVERFLOW typename allocator_traits<_Alloc>::size_type& _Count) {

$LN3:
	mov	QWORD PTR [rsp+16], rdx
	mov	QWORD PTR [rsp+8], rcx
	push	rbp
	push	rdi
	sub	rsp, 232				; 000000e8H
	lea	rbp, QWORD PTR [rsp+32]
	lea	rcx, OFFSET FLAT:__53DEE440_xmemory
	call	__CheckForDebuggerJustMyCode

; 2199 : #if _HAS_CXX23
; 2200 :     if constexpr (_Should_allocate_at_least<_Alloc>) {
; 2201 :         auto [_Ptr, _Allocated] = _Al.allocate_at_least(_Count);
; 2202 :         _Count                  = _Allocated;
; 2203 :         return _Ptr;
; 2204 :     } else
; 2205 : #endif // _HAS_CXX23
; 2206 :     {
; 2207 :         return _Al.allocate(_Count);

	mov	rax, QWORD PTR _Count$[rbp]
	mov	rdx, QWORD PTR [rax]
	mov	rcx, QWORD PTR _Al$[rbp]
	call	?allocate@?$allocator@D@std@@QEAAPEAD_K@Z ; std::allocator<char>::allocate

; 2208 :     }
; 2209 : }

	lea	rsp, QWORD PTR [rbp+200]
	pop	rdi
	pop	rbp
	ret	0
??$_Allocate_at_least_helper@V?$allocator@D@std@@@std@@YAPEADAEAV?$allocator@D@0@AEA_K@Z ENDP ; std::_Allocate_at_least_helper<std::allocator<char> >
_TEXT	ENDS
; Function compile flags: /Odtp /RTCsu /ZI
; File C:\Program Files\Microsoft Visual Studio\2022\Community\VC\Tools\MSVC\14.38.33130\include\xmemory
;	COMDAT ??$_Delete_plain_internal@V?$allocator@U_Container_proxy@std@@@std@@@std@@YAXAEAV?$allocator@U_Container_proxy@std@@@0@QEAU_Container_proxy@0@@Z
_TEXT	SEGMENT
_Al$ = 224
_Ptr$ = 232
??$_Delete_plain_internal@V?$allocator@U_Container_proxy@std@@@std@@@std@@YAXAEAV?$allocator@U_Container_proxy@std@@@0@QEAU_Container_proxy@0@@Z PROC ; std::_Delete_plain_internal<std::allocator<std::_Container_proxy> >, COMDAT

; 1135 : _CONSTEXPR20 void _Delete_plain_internal(_Alloc& _Al, typename _Alloc::value_type* const _Ptr) noexcept {

$LN3:
	mov	QWORD PTR [rsp+16], rdx
	mov	QWORD PTR [rsp+8], rcx
	push	rbp
	push	rdi
	sub	rsp, 232				; 000000e8H
	lea	rbp, QWORD PTR [rsp+32]
	lea	rcx, OFFSET FLAT:__53DEE440_xmemory
	call	__CheckForDebuggerJustMyCode

; 1136 :     // destroy *_Ptr in place, then deallocate _Ptr using _Al; used for internal container types the user didn't name
; 1137 :     using _Ty = typename _Alloc::value_type;
; 1138 :     _Ptr->~_Ty();
; 1139 :     _Deallocate_plain(_Al, _Ptr);

	mov	rdx, QWORD PTR _Ptr$[rbp]
	mov	rcx, QWORD PTR _Al$[rbp]
	call	??$_Deallocate_plain@V?$allocator@U_Container_proxy@std@@@std@@@std@@YAXAEAV?$allocator@U_Container_proxy@std@@@0@QEAU_Container_proxy@0@@Z ; std::_Deallocate_plain<std::allocator<std::_Container_proxy> >

; 1140 : }

	lea	rsp, QWORD PTR [rbp+200]
	pop	rdi
	pop	rbp
	ret	0
??$_Delete_plain_internal@V?$allocator@U_Container_proxy@std@@@std@@@std@@YAXAEAV?$allocator@U_Container_proxy@std@@@0@QEAU_Container_proxy@0@@Z ENDP ; std::_Delete_plain_internal<std::allocator<std::_Container_proxy> >
_TEXT	ENDS
; Function compile flags: /Odtp /RTCsu /ZI
; File C:\Program Files\Microsoft Visual Studio\2022\Community\VC\Tools\MSVC\14.38.33130\include\utility
;	COMDAT ??$exchange@PEAU_Container_proxy@std@@$$T@std@@YAPEAU_Container_proxy@0@AEAPEAU10@$$QEA$$T@Z
_TEXT	SEGMENT
_Old_val$ = 8
_Val$ = 256
_New_val$ = 264
??$exchange@PEAU_Container_proxy@std@@$$T@std@@YAPEAU_Container_proxy@0@AEAPEAU10@$$QEA$$T@Z PROC ; std::exchange<std::_Container_proxy *,std::nullptr_t>, COMDAT

; 760  :     conjunction_v<is_nothrow_move_constructible<_Ty>, is_nothrow_assignable<_Ty&, _Other>>) {

$LN3:
	mov	QWORD PTR [rsp+16], rdx
	mov	QWORD PTR [rsp+8], rcx
	push	rbp
	push	rdi
	sub	rsp, 264				; 00000108H
	lea	rbp, QWORD PTR [rsp+32]
	lea	rcx, OFFSET FLAT:__394B8783_utility
	call	__CheckForDebuggerJustMyCode

; 761  :     // assign _New_val to _Val, return previous _Val
; 762  :     _Ty _Old_val = static_cast<_Ty&&>(_Val);

	mov	rax, QWORD PTR _Val$[rbp]
	mov	rax, QWORD PTR [rax]
	mov	QWORD PTR _Old_val$[rbp], rax

; 763  :     _Val         = static_cast<_Other&&>(_New_val);

	mov	rax, QWORD PTR _Val$[rbp]
	mov	rcx, QWORD PTR _New_val$[rbp]
	mov	rcx, QWORD PTR [rcx]
	mov	QWORD PTR [rax], rcx

; 764  :     return _Old_val;

	mov	rax, QWORD PTR _Old_val$[rbp]

; 765  : }

	lea	rsp, QWORD PTR [rbp+232]
	pop	rdi
	pop	rbp
	ret	0
??$exchange@PEAU_Container_proxy@std@@$$T@std@@YAPEAU_Container_proxy@0@AEAPEAU10@$$QEA$$T@Z ENDP ; std::exchange<std::_Container_proxy *,std::nullptr_t>
_TEXT	ENDS
; Function compile flags: /Odtp /RTCsu /ZI
; File C:\Program Files\Microsoft Visual Studio\2022\Community\VC\Tools\MSVC\14.38.33130\include\xmemory
;	COMDAT ??$?0Ufile_task@@@?$allocator@U_Container_proxy@std@@@std@@QEAA@AEBV?$allocator@Ufile_task@@@1@@Z
_TEXT	SEGMENT
this$ = 224
__formal$ = 232
??$?0Ufile_task@@@?$allocator@U_Container_proxy@std@@@std@@QEAA@AEBV?$allocator@Ufile_task@@@1@@Z PROC ; std::allocator<std::_Container_proxy>::allocator<std::_Container_proxy><file_task>, COMDAT

; 966  :     constexpr allocator(const allocator<_Other>&) noexcept {}

$LN3:
	mov	QWORD PTR [rsp+16], rdx
	mov	QWORD PTR [rsp+8], rcx
	push	rbp
	push	rdi
	sub	rsp, 232				; 000000e8H
	lea	rbp, QWORD PTR [rsp+32]
	lea	rcx, OFFSET FLAT:__53DEE440_xmemory
	call	__CheckForDebuggerJustMyCode
	mov	rax, QWORD PTR this$[rbp]
	lea	rsp, QWORD PTR [rbp+200]
	pop	rdi
	pop	rbp
	ret	0
??$?0Ufile_task@@@?$allocator@U_Container_proxy@std@@@std@@QEAA@AEBV?$allocator@Ufile_task@@@1@@Z ENDP ; std::allocator<std::_Container_proxy>::allocator<std::_Container_proxy><file_task>
_TEXT	ENDS
; Function compile flags: /Odtp /RTCsu /ZI
; File C:\Program Files\Microsoft Visual Studio\2022\Community\VC\Tools\MSVC\14.38.33130\include\xmemory
;	COMDAT ?allocate@?$allocator@U_Container_proxy@std@@@std@@QEAAPEAU_Container_proxy@2@_K@Z
_TEXT	SEGMENT
this$ = 224
_Count$ = 232
?allocate@?$allocator@U_Container_proxy@std@@@std@@QEAAPEAU_Container_proxy@2@_K@Z PROC ; std::allocator<std::_Container_proxy>::allocate, COMDAT

; 976  :     _NODISCARD_RAW_PTR_ALLOC _CONSTEXPR20 __declspec(allocator) _Ty* allocate(_CRT_GUARDOVERFLOW const size_t _Count) {

$LN3:
	mov	QWORD PTR [rsp+16], rdx
	mov	QWORD PTR [rsp+8], rcx
	push	rbp
	push	rdi
	sub	rsp, 232				; 000000e8H
	lea	rbp, QWORD PTR [rsp+32]
	lea	rcx, OFFSET FLAT:__53DEE440_xmemory
	call	__CheckForDebuggerJustMyCode

; 977  :         static_assert(sizeof(value_type) > 0, "value_type must be complete before calling allocate.");
; 978  :         return static_cast<_Ty*>(_Allocate<_New_alignof<_Ty>>(_Get_size_of_n<sizeof(_Ty)>(_Count)));

	mov	rcx, QWORD PTR _Count$[rbp]
	call	??$_Get_size_of_n@$0BA@@std@@YA_K_K@Z	; std::_Get_size_of_n<16>
	mov	rcx, rax
	call	??$_Allocate@$0BA@U_Default_allocate_traits@std@@$0A@@std@@YAPEAX_K@Z ; std::_Allocate<16,std::_Default_allocate_traits,0>

; 979  :     }

	lea	rsp, QWORD PTR [rbp+200]
	pop	rdi
	pop	rbp
	ret	0
?allocate@?$allocator@U_Container_proxy@std@@@std@@QEAAPEAU_Container_proxy@2@_K@Z ENDP ; std::allocator<std::_Container_proxy>::allocate
_TEXT	ENDS
; Function compile flags: /Odtp /RTCsu /ZI
; File C:\Program Files\Microsoft Visual Studio\2022\Community\VC\Tools\MSVC\14.38.33130\include\xmemory
;	COMDAT ?deallocate@?$allocator@U_Container_proxy@std@@@std@@QEAAXQEAU_Container_proxy@2@_K@Z
_TEXT	SEGMENT
this$ = 224
_Ptr$ = 232
_Count$ = 240
?deallocate@?$allocator@U_Container_proxy@std@@@std@@QEAAXQEAU_Container_proxy@2@_K@Z PROC ; std::allocator<std::_Container_proxy>::deallocate, COMDAT

; 970  :     _CONSTEXPR20 void deallocate(_Ty* const _Ptr, const size_t _Count) {

$LN13:
	mov	QWORD PTR [rsp+24], r8
	mov	QWORD PTR [rsp+16], rdx
	mov	QWORD PTR [rsp+8], rcx
	push	rbp
	push	rdi
	sub	rsp, 248				; 000000f8H
	lea	rbp, QWORD PTR [rsp+48]
	lea	rcx, OFFSET FLAT:__53DEE440_xmemory
	call	__CheckForDebuggerJustMyCode
$LN4@deallocate:

; 971  :         _STL_ASSERT(_Ptr != nullptr || _Count == 0, "null pointer cannot point to a block of non-zero size");

	cmp	QWORD PTR _Ptr$[rbp], 0
	jne	SHORT $LN10@deallocate
	cmp	QWORD PTR _Count$[rbp], 0
	jne	SHORT $LN8@deallocate
$LN10@deallocate:
	jmp	SHORT $LN9@deallocate
$LN8@deallocate:
$LN7@deallocate:
	lea	rax, OFFSET FLAT:??_C@_0DG@KGHKKGBC@null?5pointer?5cannot?5point?5to?5a?5@
	mov	QWORD PTR [rsp+40], rax
	lea	rax, OFFSET FLAT:??_C@_02DKCKIIND@?$CFs@
	mov	QWORD PTR [rsp+32], rax
	xor	r9d, r9d
	mov	r8d, 971				; 000003cbH
	lea	rdx, OFFSET FLAT:??_C@_0GC@MFPFMMDA@C?3?2Program?5Files?2Microsoft?5Visu@
	mov	ecx, 2
	call	QWORD PTR __imp__CrtDbgReport
	cmp	eax, 1
	jne	SHORT $LN12@deallocate
	int	3
	xor	eax, eax
$LN12@deallocate:
	mov	QWORD PTR [rsp+32], 0
	mov	r9d, 971				; 000003cbH
	lea	r8, OFFSET FLAT:??_C@_1ME@HBHJKKLJ@?$AAC?$AA?3?$AA?2?$AAP?$AAr?$AAo?$AAg?$AAr?$AAa?$AAm?$AA?5?$AAF?$AAi?$AAl?$AAe@
	lea	rdx, OFFSET FLAT:??_C@_11LOCGONAA@@
	lea	rcx, OFFSET FLAT:??_C@_1HA@FACCKGGH@?$AA?$CC?$AAn?$AAu?$AAl?$AAl?$AA?5?$AAp?$AAo?$AAi?$AAn?$AAt?$AAe?$AAr?$AA?5?$AAc@
	call	QWORD PTR __imp__invalid_parameter
	xor	eax, eax
	test	eax, eax
	jne	SHORT $LN7@deallocate
$LN9@deallocate:
	xor	eax, eax
	test	eax, eax
	jne	$LN4@deallocate

; 972  :         // no overflow check on the following multiply; we assume _Allocate did that check
; 973  :         _Deallocate<_New_alignof<_Ty>>(_Ptr, sizeof(_Ty) * _Count);

	imul	rax, QWORD PTR _Count$[rbp], 16
	mov	rdx, rax
	mov	rcx, QWORD PTR _Ptr$[rbp]
	call	??$_Deallocate@$0BA@$0A@@std@@YAXPEAX_K@Z ; std::_Deallocate<16,0>

; 974  :     }

	lea	rsp, QWORD PTR [rbp+200]
	pop	rdi
	pop	rbp
	ret	0
?deallocate@?$allocator@U_Container_proxy@std@@@std@@QEAAXQEAU_Container_proxy@2@_K@Z ENDP ; std::allocator<std::_Container_proxy>::deallocate
_TEXT	ENDS
; Function compile flags: /Odtp /RTCsu /ZI
; File C:\Program Files\Microsoft Visual Studio\2022\Community\VC\Tools\MSVC\14.38.33130\include\ostream
;	COMDAT ??$endl@DU?$char_traits@D@std@@@std@@YAAEAV?$basic_ostream@DU?$char_traits@D@std@@@0@AEAV10@@Z
_TEXT	SEGMENT
tv80 = 192
_Ostr$ = 240
??$endl@DU?$char_traits@D@std@@@std@@YAAEAV?$basic_ostream@DU?$char_traits@D@std@@@0@AEAV10@@Z PROC ; std::endl<char,std::char_traits<char> >, COMDAT

; 1010 :     basic_ostream<_Elem, _Traits>& _Ostr) { // insert newline and flush stream

$LN3:
	mov	QWORD PTR [rsp+8], rcx
	push	rbp
	push	rdi
	sub	rsp, 248				; 000000f8H
	lea	rbp, QWORD PTR [rsp+32]
	lea	rcx, OFFSET FLAT:__EB23CC29_ostream
	call	__CheckForDebuggerJustMyCode

; 1011 :     _Ostr.put(_Ostr.widen('\n'));

	mov	rax, QWORD PTR _Ostr$[rbp]
	mov	rax, QWORD PTR [rax]
	movsxd	rax, DWORD PTR [rax+4]
	mov	rcx, QWORD PTR _Ostr$[rbp]
	add	rcx, rax
	mov	rax, rcx
	mov	QWORD PTR tv80[rbp], rax
	mov	dl, 10
	mov	rcx, QWORD PTR tv80[rbp]
	call	QWORD PTR __imp_?widen@?$basic_ios@DU?$char_traits@D@std@@@std@@QEBADD@Z
	movzx	edx, al
	mov	rcx, QWORD PTR _Ostr$[rbp]
	call	QWORD PTR __imp_?put@?$basic_ostream@DU?$char_traits@D@std@@@std@@QEAAAEAV12@D@Z

; 1012 :     _Ostr.flush();

	mov	rcx, QWORD PTR _Ostr$[rbp]
	call	QWORD PTR __imp_?flush@?$basic_ostream@DU?$char_traits@D@std@@@std@@QEAAAEAV12@XZ

; 1013 :     return _Ostr;

	mov	rax, QWORD PTR _Ostr$[rbp]

; 1014 : }

	lea	rsp, QWORD PTR [rbp+216]
	pop	rdi
	pop	rbp
	ret	0
??$endl@DU?$char_traits@D@std@@@std@@YAAEAV?$basic_ostream@DU?$char_traits@D@std@@@0@AEAV10@@Z ENDP ; std::endl<char,std::char_traits<char> >
_TEXT	ENDS
; Function compile flags: /Odtp /RTCsu /ZI
; File C:\Program Files\Microsoft Visual Studio\2022\Community\VC\Tools\MSVC\14.38.33130\include\__msvc_chrono.hpp
;	COMDAT ??$?GUsteady_clock@chrono@std@@V?$duration@_JU?$ratio@$00$0DLJKMKAA@@std@@@12@V312@@chrono@std@@YA?AV?$duration@_JU?$ratio@$00$0DLJKMKAA@@std@@@01@AEBV?$time_point@Usteady_clock@chrono@std@@V?$duration@_JU?$ratio@$00$0DLJKMKAA@@std@@@23@@01@0@Z
_TEXT	SEGMENT
$T1 = 200
$T2 = 232
tv77 = 248
tv75 = 256
__$ReturnUdt$ = 304
_Left$ = 312
_Right$ = 320
??$?GUsteady_clock@chrono@std@@V?$duration@_JU?$ratio@$00$0DLJKMKAA@@std@@@12@V312@@chrono@std@@YA?AV?$duration@_JU?$ratio@$00$0DLJKMKAA@@std@@@01@AEBV?$time_point@Usteady_clock@chrono@std@@V?$duration@_JU?$ratio@$00$0DLJKMKAA@@std@@@23@@01@0@Z PROC ; std::chrono::operator-<std::chrono::steady_clock,std::chrono::duration<__int64,std::ratio<1,1000000000> >,std::chrono::duration<__int64,std::ratio<1,1000000000> > >, COMDAT

; 548  :             is_arithmetic_v<typename _Duration1::rep>&& is_arithmetic_v<typename _Duration2::rep>) /* strengthened */ {

$LN3:
	mov	QWORD PTR [rsp+24], r8
	mov	QWORD PTR [rsp+16], rdx
	mov	QWORD PTR [rsp+8], rcx
	push	rbp
	push	rdi
	sub	rsp, 312				; 00000138H
	lea	rbp, QWORD PTR [rsp+32]
	lea	rcx, OFFSET FLAT:__368A71EB___msvc_chrono@hpp
	call	__CheckForDebuggerJustMyCode

; 549  :         return _Left.time_since_epoch() - _Right.time_since_epoch();

	lea	rdx, QWORD PTR $T1[rbp]
	mov	rcx, QWORD PTR _Right$[rbp]
	call	?time_since_epoch@?$time_point@Usteady_clock@chrono@std@@V?$duration@_JU?$ratio@$00$0DLJKMKAA@@std@@@23@@chrono@std@@QEBA?AV?$duration@_JU?$ratio@$00$0DLJKMKAA@@std@@@23@XZ ; std::chrono::time_point<std::chrono::steady_clock,std::chrono::duration<__int64,std::ratio<1,1000000000> > >::time_since_epoch
	mov	QWORD PTR tv77[rbp], rax
	lea	rdx, QWORD PTR $T2[rbp]
	mov	rcx, QWORD PTR _Left$[rbp]
	call	?time_since_epoch@?$time_point@Usteady_clock@chrono@std@@V?$duration@_JU?$ratio@$00$0DLJKMKAA@@std@@@23@@chrono@std@@QEBA?AV?$duration@_JU?$ratio@$00$0DLJKMKAA@@std@@@23@XZ ; std::chrono::time_point<std::chrono::steady_clock,std::chrono::duration<__int64,std::ratio<1,1000000000> > >::time_since_epoch
	mov	QWORD PTR tv75[rbp], rax
	mov	r8, QWORD PTR tv77[rbp]
	mov	rdx, QWORD PTR tv75[rbp]
	mov	rcx, QWORD PTR __$ReturnUdt$[rbp]
	call	??$?G_JU?$ratio@$00$0DLJKMKAA@@std@@_JU01@@chrono@std@@YA?AV?$duration@_JU?$ratio@$00$0DLJKMKAA@@std@@@01@AEBV201@0@Z ; std::chrono::operator-<__int64,std::ratio<1,1000000000>,__int64,std::ratio<1,1000000000> >
	mov	rax, QWORD PTR __$ReturnUdt$[rbp]

; 550  :     }

	lea	rsp, QWORD PTR [rbp+280]
	pop	rdi
	pop	rbp
	ret	0
??$?GUsteady_clock@chrono@std@@V?$duration@_JU?$ratio@$00$0DLJKMKAA@@std@@@12@V312@@chrono@std@@YA?AV?$duration@_JU?$ratio@$00$0DLJKMKAA@@std@@@01@AEBV?$time_point@Usteady_clock@chrono@std@@V?$duration@_JU?$ratio@$00$0DLJKMKAA@@std@@@23@@01@0@Z ENDP ; std::chrono::operator-<std::chrono::steady_clock,std::chrono::duration<__int64,std::ratio<1,1000000000> >,std::chrono::duration<__int64,std::ratio<1,1000000000> > >
_TEXT	ENDS
; Function compile flags: /Odtp /RTCsu /ZI
; File C:\Program Files\Microsoft Visual Studio\2022\Community\VC\Tools\MSVC\14.38.33130\include\xstring
;	COMDAT ??$?5DU?$char_traits@D@std@@V?$allocator@D@1@@std@@YAAEAV?$basic_istream@DU?$char_traits@D@std@@@0@AEAV10@AEAV?$basic_string@DU?$char_traits@D@std@@V?$allocator@D@2@@0@@Z
_TEXT	SEGMENT
_State$ = 4
_Changed$ = 36
_Ok$ = 72
_Ctype_fac$4 = 120
_Size$5 = 152
_Meta$6 = 180
$T7 = 408
$T8 = 456
tv272 = 468
tv271 = 468
tv270 = 468
tv263 = 472
tv246 = 472
tv231 = 472
tv152 = 472
tv88 = 472
tv65 = 480
tv267 = 488
__$ArrayPad$ = 496
_Istr$ = 544
_Str$ = 552
??$?5DU?$char_traits@D@std@@V?$allocator@D@1@@std@@YAAEAV?$basic_istream@DU?$char_traits@D@std@@@0@AEAV10@AEAV?$basic_string@DU?$char_traits@D@std@@V?$allocator@D@2@@0@@Z PROC ; std::operator>><char,std::char_traits<char>,std::allocator<char> >, COMDAT

; 5145 :     basic_istream<_Elem, _Traits>& _Istr, basic_string<_Elem, _Traits, _Alloc>& _Str) {

$LN22:
	mov	QWORD PTR [rsp+16], rdx
	mov	QWORD PTR [rsp+8], rcx
	push	rbp
	push	rdi
	sub	rsp, 552				; 00000228H
	lea	rbp, QWORD PTR [rsp+32]
	lea	rdi, QWORD PTR [rsp+32]
	mov	ecx, 82					; 00000052H
	mov	eax, -858993460				; ccccccccH
	rep stosd
	mov	rcx, QWORD PTR [rsp+584]
	mov	rax, QWORD PTR __security_cookie
	xor	rax, rbp
	mov	QWORD PTR __$ArrayPad$[rbp], rax
	lea	rcx, OFFSET FLAT:__270D62DC_xstring
	call	__CheckForDebuggerJustMyCode

; 5146 :     using _Myis   = basic_istream<_Elem, _Traits>;
; 5147 :     using _Ctype  = typename _Myis::_Ctype;
; 5148 :     using _Mystr  = basic_string<_Elem, _Traits, _Alloc>;
; 5149 :     using _Mysizt = typename _Mystr::size_type;
; 5150 : 
; 5151 :     typename _Myis::iostate _State = _Myis::goodbit;

	mov	DWORD PTR _State$[rbp], 0

; 5152 :     bool _Changed                  = false;

	mov	BYTE PTR _Changed$[rbp], 0

; 5153 :     const typename _Myis::sentry _Ok(_Istr);

	xor	r8d, r8d
	mov	rdx, QWORD PTR _Istr$[rbp]
	lea	rcx, QWORD PTR _Ok$[rbp]
	call	??0sentry@?$basic_istream@DU?$char_traits@D@std@@@std@@QEAA@AEAV12@_N@Z ; std::basic_istream<char,std::char_traits<char> >::sentry::sentry
	npad	1

; 5154 : 
; 5155 :     if (_Ok) { // state okay, extract characters

	lea	rcx, QWORD PTR _Ok$[rbp]
	call	??Bsentry@?$basic_istream@DU?$char_traits@D@std@@@std@@QEBA_NXZ ; std::basic_istream<char,std::char_traits<char> >::sentry::operator bool
	movzx	eax, al
	test	eax, eax
	je	$LN5@operator

; 5156 :         const _Ctype& _Ctype_fac = _STD use_facet<_Ctype>(_Istr.getloc());

	mov	rax, QWORD PTR _Istr$[rbp]
	mov	rax, QWORD PTR [rax]
	movsxd	rax, DWORD PTR [rax+4]
	mov	rcx, QWORD PTR _Istr$[rbp]
	add	rcx, rax
	mov	rax, rcx
	mov	QWORD PTR tv88[rbp], rax
	lea	rdx, QWORD PTR $T7[rbp]
	mov	rcx, QWORD PTR tv88[rbp]
	call	QWORD PTR __imp_?getloc@ios_base@std@@QEBA?AVlocale@2@XZ
	mov	QWORD PTR tv65[rbp], rax
	mov	rax, QWORD PTR tv65[rbp]
	mov	QWORD PTR tv267[rbp], rax
	mov	rcx, QWORD PTR tv267[rbp]
	call	??$use_facet@V?$ctype@D@std@@@std@@YAAEBV?$ctype@D@0@AEBVlocale@0@@Z ; std::use_facet<std::ctype<char> >
	mov	QWORD PTR _Ctype_fac$4[rbp], rax
	lea	rcx, QWORD PTR $T7[rbp]
	call	??1locale@std@@QEAA@XZ			; std::locale::~locale

; 5157 :         _Str.erase();

	xor	edx, edx
	mov	rcx, QWORD PTR _Str$[rbp]
	call	?erase@?$basic_string@DU?$char_traits@D@std@@V?$allocator@D@2@@std@@QEAAAEAV12@_K@Z ; std::basic_string<char,std::char_traits<char>,std::allocator<char> >::erase
	npad	1

; 5158 : 
; 5159 :         _TRY_IO_BEGIN
; 5160 :         _Mysizt _Size;
; 5161 :         if (0 < _Istr.width() && static_cast<_Mysizt>(_Istr.width()) < _Str.max_size()) {

	mov	rax, QWORD PTR _Istr$[rbp]
	mov	rax, QWORD PTR [rax]
	movsxd	rax, DWORD PTR [rax+4]
	mov	rcx, QWORD PTR _Istr$[rbp]
	add	rcx, rax
	mov	rax, rcx
	mov	rcx, rax
	call	QWORD PTR __imp_?width@ios_base@std@@QEBA_JXZ
	test	rax, rax
	jle	SHORT $LN7@operator
	mov	rcx, QWORD PTR _Str$[rbp]
	call	?max_size@?$basic_string@DU?$char_traits@D@std@@V?$allocator@D@2@@std@@QEBA_KXZ ; std::basic_string<char,std::char_traits<char>,std::allocator<char> >::max_size
	mov	QWORD PTR tv152[rbp], rax
	mov	rcx, QWORD PTR _Istr$[rbp]
	mov	rcx, QWORD PTR [rcx]
	movsxd	rcx, DWORD PTR [rcx+4]
	mov	rdx, QWORD PTR _Istr$[rbp]
	add	rdx, rcx
	mov	rcx, rdx
	call	QWORD PTR __imp_?width@ios_base@std@@QEBA_JXZ
	mov	rcx, QWORD PTR tv152[rbp]
	cmp	rax, rcx
	jae	SHORT $LN7@operator

; 5162 :             _Size = static_cast<_Mysizt>(_Istr.width());

	mov	rax, QWORD PTR _Istr$[rbp]
	mov	rax, QWORD PTR [rax]
	movsxd	rax, DWORD PTR [rax+4]
	mov	rcx, QWORD PTR _Istr$[rbp]
	add	rcx, rax
	mov	rax, rcx
	mov	rcx, rax
	call	QWORD PTR __imp_?width@ios_base@std@@QEBA_JXZ
	mov	QWORD PTR _Size$5[rbp], rax

; 5163 :         } else {

	jmp	SHORT $LN8@operator
$LN7@operator:

; 5164 :             _Size = _Str.max_size();

	mov	rcx, QWORD PTR _Str$[rbp]
	call	?max_size@?$basic_string@DU?$char_traits@D@std@@V?$allocator@D@2@@std@@QEBA_KXZ ; std::basic_string<char,std::char_traits<char>,std::allocator<char> >::max_size
	mov	QWORD PTR _Size$5[rbp], rax
$LN8@operator:

; 5165 :         }
; 5166 : 
; 5167 :         typename _Traits::int_type _Meta = _Istr.rdbuf()->sgetc();

	mov	rax, QWORD PTR _Istr$[rbp]
	mov	rax, QWORD PTR [rax]
	movsxd	rax, DWORD PTR [rax+4]
	mov	rcx, QWORD PTR _Istr$[rbp]
	add	rcx, rax
	mov	rax, rcx
	mov	rcx, rax
	call	QWORD PTR __imp_?rdbuf@?$basic_ios@DU?$char_traits@D@std@@@std@@QEBAPEAV?$basic_streambuf@DU?$char_traits@D@std@@@2@XZ
	mov	rcx, rax
	call	QWORD PTR __imp_?sgetc@?$basic_streambuf@DU?$char_traits@D@std@@@std@@QEAAHXZ
	mov	DWORD PTR tv270[rbp], eax
	mov	eax, DWORD PTR tv270[rbp]
	mov	DWORD PTR _Meta$6[rbp], eax

; 5168 : 
; 5169 :         for (; 0 < _Size; --_Size, _Meta = _Istr.rdbuf()->snextc()) {

	jmp	SHORT $LN4@operator
$LN2@operator:
	mov	rax, QWORD PTR _Size$5[rbp]
	dec	rax
	mov	QWORD PTR _Size$5[rbp], rax
	mov	rax, QWORD PTR _Istr$[rbp]
	mov	rax, QWORD PTR [rax]
	movsxd	rax, DWORD PTR [rax+4]
	mov	rcx, QWORD PTR _Istr$[rbp]
	add	rcx, rax
	mov	rax, rcx
	mov	rcx, rax
	call	QWORD PTR __imp_?rdbuf@?$basic_ios@DU?$char_traits@D@std@@@std@@QEBAPEAV?$basic_streambuf@DU?$char_traits@D@std@@@2@XZ
	mov	rcx, rax
	call	QWORD PTR __imp_?snextc@?$basic_streambuf@DU?$char_traits@D@std@@@std@@QEAAHXZ
	mov	DWORD PTR tv271[rbp], eax
	mov	eax, DWORD PTR tv271[rbp]
	mov	DWORD PTR _Meta$6[rbp], eax
$LN4@operator:
	cmp	QWORD PTR _Size$5[rbp], 0
	jbe	SHORT $LN3@operator

; 5170 :             if (_Traits::eq_int_type(_Traits::eof(), _Meta)) { // end of file, quit

	call	?eof@?$_Narrow_char_traits@DH@std@@SAHXZ ; std::_Narrow_char_traits<char,int>::eof
	mov	edx, DWORD PTR _Meta$6[rbp]
	mov	ecx, eax
	call	?eq_int_type@?$_Narrow_char_traits@DH@std@@SA_NHH@Z ; std::_Narrow_char_traits<char,int>::eq_int_type
	movzx	eax, al
	test	eax, eax
	je	SHORT $LN9@operator

; 5171 :                 _State |= _Myis::eofbit;

	mov	eax, DWORD PTR _State$[rbp]
	or	eax, 1
	mov	DWORD PTR _State$[rbp], eax

; 5172 :                 break;

	jmp	SHORT $LN3@operator
	jmp	SHORT $LN10@operator
$LN9@operator:

; 5173 :             } else if (_Ctype_fac.is(_Ctype::space, _Traits::to_char_type(_Meta))) {

	mov	ecx, DWORD PTR _Meta$6[rbp]
	call	?to_char_type@?$_Narrow_char_traits@DH@std@@SADH@Z ; std::_Narrow_char_traits<char,int>::to_char_type
	movzx	r8d, al
	mov	dx, 72					; 00000048H
	mov	rcx, QWORD PTR _Ctype_fac$4[rbp]
	call	QWORD PTR __imp_?is@?$ctype@D@std@@QEBA_NFD@Z
	mov	BYTE PTR tv272[rbp], al
	movzx	eax, BYTE PTR tv272[rbp]
	test	eax, eax
	je	SHORT $LN11@operator

; 5174 :                 break; // whitespace, quit

	jmp	SHORT $LN3@operator

; 5175 :             } else { // add character to string

	jmp	SHORT $LN10@operator
$LN11@operator:

; 5176 :                 _Str.push_back(_Traits::to_char_type(_Meta));

	mov	ecx, DWORD PTR _Meta$6[rbp]
	call	?to_char_type@?$_Narrow_char_traits@DH@std@@SADH@Z ; std::_Narrow_char_traits<char,int>::to_char_type
	movzx	edx, al
	mov	rcx, QWORD PTR _Str$[rbp]
	call	?push_back@?$basic_string@DU?$char_traits@D@std@@V?$allocator@D@2@@std@@QEAAXD@Z ; std::basic_string<char,std::char_traits<char>,std::allocator<char> >::push_back

; 5177 :                 _Changed = true;

	mov	BYTE PTR _Changed$[rbp], 1
$LN10@operator:

; 5178 :             }
; 5179 :         }

	jmp	$LN2@operator
$LN3@operator:
	jmp	SHORT $LN5@operator
$LN20@operator:
$LN5@operator:

; 5180 :         _CATCH_IO_(_Myis, _Istr)
; 5181 :     }
; 5182 : 
; 5183 :     _Istr.width(0);

	mov	rax, QWORD PTR _Istr$[rbp]
	mov	rax, QWORD PTR [rax]
	movsxd	rax, DWORD PTR [rax+4]
	mov	rcx, QWORD PTR _Istr$[rbp]
	add	rcx, rax
	mov	rax, rcx
	mov	QWORD PTR tv246[rbp], rax
	xor	edx, edx
	mov	rcx, QWORD PTR tv246[rbp]
	call	QWORD PTR __imp_?width@ios_base@std@@QEAA_J_J@Z

; 5184 :     if (!_Changed) {

	movzx	eax, BYTE PTR _Changed$[rbp]
	test	eax, eax
	jne	SHORT $LN13@operator

; 5185 :         _State |= _Myis::failbit;

	mov	eax, DWORD PTR _State$[rbp]
	or	eax, 2
	mov	DWORD PTR _State$[rbp], eax
$LN13@operator:

; 5186 :     }
; 5187 : 
; 5188 :     _Istr.setstate(_State);

	mov	rax, QWORD PTR _Istr$[rbp]
	mov	rax, QWORD PTR [rax]
	movsxd	rax, DWORD PTR [rax+4]
	mov	rcx, QWORD PTR _Istr$[rbp]
	add	rcx, rax
	mov	rax, rcx
	mov	QWORD PTR tv263[rbp], rax
	xor	r8d, r8d
	mov	edx, DWORD PTR _State$[rbp]
	mov	rcx, QWORD PTR tv263[rbp]
	call	QWORD PTR __imp_?setstate@?$basic_ios@DU?$char_traits@D@std@@@std@@QEAAXH_N@Z

; 5189 :     return _Istr;

	mov	rax, QWORD PTR _Istr$[rbp]
	mov	QWORD PTR $T8[rbp], rax
	lea	rcx, QWORD PTR _Ok$[rbp]
	call	??1sentry@?$basic_istream@DU?$char_traits@D@std@@@std@@QEAA@XZ
	mov	rax, QWORD PTR $T8[rbp]

; 5190 : }

	mov	rdi, rax
	lea	rcx, QWORD PTR [rbp-32]
	lea	rdx, OFFSET FLAT:??$?5DU?$char_traits@D@std@@V?$allocator@D@1@@std@@YAAEAV?$basic_istream@DU?$char_traits@D@std@@@0@AEAV10@AEAV?$basic_string@DU?$char_traits@D@std@@V?$allocator@D@2@@0@@Z$rtcFrameData
	call	_RTC_CheckStackVars
	mov	rax, rdi
	mov	rcx, QWORD PTR __$ArrayPad$[rbp]
	xor	rcx, rbp
	call	__security_check_cookie
	lea	rsp, QWORD PTR [rbp+520]
	pop	rdi
	pop	rbp
	ret	0
??$?5DU?$char_traits@D@std@@V?$allocator@D@1@@std@@YAAEAV?$basic_istream@DU?$char_traits@D@std@@@0@AEAV10@AEAV?$basic_string@DU?$char_traits@D@std@@V?$allocator@D@2@@0@@Z ENDP ; std::operator>><char,std::char_traits<char>,std::allocator<char> >
_TEXT	ENDS
; Function compile flags: /Odtp /RTCsu /ZI
;	COMDAT text$x
text$x	SEGMENT
_State$ = 4
_Changed$ = 36
_Ok$ = 72
_Ctype_fac$4 = 120
_Size$5 = 152
_Meta$6 = 180
$T7 = 408
$T8 = 456
tv272 = 468
tv271 = 468
tv270 = 468
tv263 = 472
tv246 = 472
tv231 = 472
tv152 = 472
tv88 = 472
tv65 = 480
tv267 = 488
__$ArrayPad$ = 496
_Istr$ = 544
_Str$ = 552
?dtor$0@?0???$?5DU?$char_traits@D@std@@V?$allocator@D@1@@std@@YAAEAV?$basic_istream@DU?$char_traits@D@std@@@0@AEAV10@AEAV?$basic_string@DU?$char_traits@D@std@@V?$allocator@D@2@@0@@Z@4HA PROC ; `std::operator>><char,std::char_traits<char>,std::allocator<char> >'::`1'::dtor$0
	mov	QWORD PTR [rsp+8], rcx
	mov	QWORD PTR [rsp+16], rdx
	push	rbp
	push	rdi
	sub	rsp, 40					; 00000028H
	lea	rbp, QWORD PTR [rdx+32]
	lea	rcx, QWORD PTR _Ok$[rbp]
	call	??1sentry@?$basic_istream@DU?$char_traits@D@std@@@std@@QEAA@XZ
	add	rsp, 40					; 00000028H
	pop	rdi
	pop	rbp
	ret	0
?dtor$0@?0???$?5DU?$char_traits@D@std@@V?$allocator@D@1@@std@@YAAEAV?$basic_istream@DU?$char_traits@D@std@@@0@AEAV10@AEAV?$basic_string@DU?$char_traits@D@std@@V?$allocator@D@2@@0@@Z@4HA ENDP ; `std::operator>><char,std::char_traits<char>,std::allocator<char> >'::`1'::dtor$0
text$x	ENDS
; Function compile flags: /Odtp /RTCsu /ZI
;	COMDAT text$x
text$x	SEGMENT
_State$ = 4
_Changed$ = 36
_Ok$ = 72
_Ctype_fac$4 = 120
_Size$5 = 152
_Meta$6 = 180
$T7 = 408
$T8 = 456
tv272 = 468
tv271 = 468
tv270 = 468
tv263 = 472
tv246 = 472
tv231 = 472
tv152 = 472
tv88 = 472
tv65 = 480
tv267 = 488
__$ArrayPad$ = 496
_Istr$ = 544
_Str$ = 552
?dtor$1@?0???$?5DU?$char_traits@D@std@@V?$allocator@D@1@@std@@YAAEAV?$basic_istream@DU?$char_traits@D@std@@@0@AEAV10@AEAV?$basic_string@DU?$char_traits@D@std@@V?$allocator@D@2@@0@@Z@4HA PROC ; `std::operator>><char,std::char_traits<char>,std::allocator<char> >'::`1'::dtor$1
	mov	QWORD PTR [rsp+8], rcx
	mov	QWORD PTR [rsp+16], rdx
	push	rbp
	push	rdi
	sub	rsp, 40					; 00000028H
	lea	rbp, QWORD PTR [rdx+32]
	lea	rcx, QWORD PTR $T7[rbp]
	call	??1locale@std@@QEAA@XZ			; std::locale::~locale
	add	rsp, 40					; 00000028H
	pop	rdi
	pop	rbp
	ret	0
?dtor$1@?0???$?5DU?$char_traits@D@std@@V?$allocator@D@1@@std@@YAAEAV?$basic_istream@DU?$char_traits@D@std@@@0@AEAV10@AEAV?$basic_string@DU?$char_traits@D@std@@V?$allocator@D@2@@0@@Z@4HA ENDP ; `std::operator>><char,std::char_traits<char>,std::allocator<char> >'::`1'::dtor$1
text$x	ENDS
; Function compile flags: /Odtp /RTCsu /ZI
;	COMDAT text$x
text$x	SEGMENT
_State$ = 4
_Changed$ = 36
_Ok$ = 72
_Ctype_fac$4 = 120
_Size$5 = 152
_Meta$6 = 180
$T7 = 408
$T8 = 456
tv272 = 468
tv271 = 468
tv270 = 468
tv263 = 472
tv246 = 472
tv231 = 472
tv152 = 472
tv88 = 472
tv65 = 480
tv267 = 488
__$ArrayPad$ = 496
_Istr$ = 544
_Str$ = 552
?catch$2@?0???$?5DU?$char_traits@D@std@@V?$allocator@D@1@@std@@YAAEAV?$basic_istream@DU?$char_traits@D@std@@@0@AEAV10@AEAV?$basic_string@DU?$char_traits@D@std@@V?$allocator@D@2@@0@@Z@4HA PROC ; `std::operator>><char,std::char_traits<char>,std::allocator<char> >'::`1'::catch$2

; 5180 :         _CATCH_IO_(_Myis, _Istr)

	mov	QWORD PTR [rsp+8], rcx
	mov	QWORD PTR [rsp+16], rdx
	push	rbp
	push	rdi
	sub	rsp, 40					; 00000028H
	lea	rbp, QWORD PTR [rdx+32]
__catch$??$?5DU?$char_traits@D@std@@V?$allocator@D@1@@std@@YAAEAV?$basic_istream@DU?$char_traits@D@std@@@0@AEAV10@AEAV?$basic_string@DU?$char_traits@D@std@@V?$allocator@D@2@@0@@Z$0:
	mov	rax, QWORD PTR _Istr$[rbp]
	mov	rax, QWORD PTR [rax]
	movsxd	rax, DWORD PTR [rax+4]
	mov	rcx, QWORD PTR _Istr$[rbp]
	add	rcx, rax
	mov	rax, rcx
	mov	QWORD PTR tv231[rbp], rax
	mov	r8b, 1
	mov	edx, 4
	mov	rcx, QWORD PTR tv231[rbp]
	call	QWORD PTR __imp_?setstate@?$basic_ios@DU?$char_traits@D@std@@@std@@QEAAXH_N@Z
	npad	1
	lea	rax, $LN20@catch$2
	add	rsp, 40					; 00000028H
	pop	rdi
	pop	rbp
	ret	0
	int	3
?catch$2@?0???$?5DU?$char_traits@D@std@@V?$allocator@D@1@@std@@YAAEAV?$basic_istream@DU?$char_traits@D@std@@@0@AEAV10@AEAV?$basic_string@DU?$char_traits@D@std@@V?$allocator@D@2@@0@@Z@4HA ENDP ; `std::operator>><char,std::char_traits<char>,std::allocator<char> >'::`1'::catch$2
text$x	ENDS
; Function compile flags: /Odtp /RTCsu /ZI
; File C:\Program Files\Microsoft Visual Studio\2022\Community\VC\Tools\MSVC\14.38.33130\include\ostream
;	COMDAT ??$?6U?$char_traits@D@std@@@std@@YAAEAV?$basic_ostream@DU?$char_traits@D@std@@@0@AEAV10@PEBD@Z
_TEXT	SEGMENT
_State$ = 4
_Count$ = 40
_Pad$ = 72
_Ok$ = 104
$T4 = 344
tv314 = 360
tv299 = 360
tv285 = 360
tv260 = 360
tv223 = 360
tv194 = 360
tv137 = 360
tv319 = 368
tv258 = 368
tv192 = 368
tv320 = 372
tv139 = 372
tv267 = 376
tv201 = 376
tv265 = 380
tv199 = 380
__$ArrayPad$ = 384
_Ostr$ = 432
_Val$ = 440
??$?6U?$char_traits@D@std@@@std@@YAAEAV?$basic_ostream@DU?$char_traits@D@std@@@0@AEAV10@PEBD@Z PROC ; std::operator<<<std::char_traits<char> >, COMDAT

; 766  : basic_ostream<char, _Traits>& operator<<(basic_ostream<char, _Traits>& _Ostr, const char* _Val) {

$LN25:
	mov	QWORD PTR [rsp+16], rdx
	mov	QWORD PTR [rsp+8], rcx
	push	rbp
	push	rdi
	sub	rsp, 440				; 000001b8H
	lea	rbp, QWORD PTR [rsp+32]
	lea	rdi, QWORD PTR [rsp+32]
	mov	ecx, 54					; 00000036H
	mov	eax, -858993460				; ccccccccH
	rep stosd
	mov	rcx, QWORD PTR [rsp+472]
	mov	rax, QWORD PTR __security_cookie
	xor	rax, rbp
	mov	QWORD PTR __$ArrayPad$[rbp], rax
	lea	rcx, OFFSET FLAT:__EB23CC29_ostream
	call	__CheckForDebuggerJustMyCode

; 767  :     // insert NTBS into char stream
; 768  :     using _Elem = char;
; 769  :     using _Myos = basic_ostream<_Elem, _Traits>;
; 770  : 
; 771  :     ios_base::iostate _State = ios_base::goodbit;

	mov	DWORD PTR _State$[rbp], 0

; 772  :     streamsize _Count        = static_cast<streamsize>(_Traits::length(_Val));

	mov	rcx, QWORD PTR _Val$[rbp]
	call	?length@?$_Narrow_char_traits@DH@std@@SA_KQEBD@Z ; std::_Narrow_char_traits<char,int>::length
	mov	QWORD PTR _Count$[rbp], rax

; 773  :     streamsize _Pad          = _Ostr.width() <= 0 || _Ostr.width() <= _Count ? 0 : _Ostr.width() - _Count;

	mov	rax, QWORD PTR _Ostr$[rbp]
	mov	rax, QWORD PTR [rax]
	movsxd	rax, DWORD PTR [rax+4]
	mov	rcx, QWORD PTR _Ostr$[rbp]
	add	rcx, rax
	mov	rax, rcx
	mov	rcx, rax
	call	QWORD PTR __imp_?width@ios_base@std@@QEBA_JXZ
	test	rax, rax
	jle	SHORT $LN17@operator
	mov	rax, QWORD PTR _Ostr$[rbp]
	mov	rax, QWORD PTR [rax]
	movsxd	rax, DWORD PTR [rax+4]
	mov	rcx, QWORD PTR _Ostr$[rbp]
	add	rcx, rax
	mov	rax, rcx
	mov	rcx, rax
	call	QWORD PTR __imp_?width@ios_base@std@@QEBA_JXZ
	cmp	rax, QWORD PTR _Count$[rbp]
	jle	SHORT $LN17@operator
	mov	rax, QWORD PTR _Ostr$[rbp]
	mov	rax, QWORD PTR [rax]
	movsxd	rax, DWORD PTR [rax+4]
	mov	rcx, QWORD PTR _Ostr$[rbp]
	add	rcx, rax
	mov	rax, rcx
	mov	rcx, rax
	call	QWORD PTR __imp_?width@ios_base@std@@QEBA_JXZ
	sub	rax, QWORD PTR _Count$[rbp]
	mov	QWORD PTR tv137[rbp], rax
	jmp	SHORT $LN18@operator
$LN17@operator:
	mov	QWORD PTR tv137[rbp], 0
$LN18@operator:
	mov	rax, QWORD PTR tv137[rbp]
	mov	QWORD PTR _Pad$[rbp], rax

; 774  :     const typename _Myos::sentry _Ok(_Ostr);

	mov	rdx, QWORD PTR _Ostr$[rbp]
	lea	rcx, QWORD PTR _Ok$[rbp]
	call	??0sentry@?$basic_ostream@DU?$char_traits@D@std@@@std@@QEAA@AEAV12@@Z ; std::basic_ostream<char,std::char_traits<char> >::sentry::sentry
	npad	1

; 775  : 
; 776  :     if (!_Ok) {

	lea	rcx, QWORD PTR _Ok$[rbp]
	call	??Bsentry@?$basic_ostream@DU?$char_traits@D@std@@@std@@QEBA_NXZ ; std::basic_ostream<char,std::char_traits<char> >::sentry::operator bool
	movzx	eax, al
	test	eax, eax
	jne	SHORT $LN8@operator

; 777  :         _State |= ios_base::badbit;

	mov	eax, DWORD PTR _State$[rbp]
	or	eax, 4
	mov	DWORD PTR _State$[rbp], eax

; 778  :     } else { // state okay, insert

	jmp	$LN9@operator
$LN8@operator:

; 779  :         _TRY_IO_BEGIN
; 780  :         if ((_Ostr.flags() & ios_base::adjustfield) != ios_base::left) {

	mov	rax, QWORD PTR _Ostr$[rbp]
	mov	rax, QWORD PTR [rax]
	movsxd	rax, DWORD PTR [rax+4]
	mov	rcx, QWORD PTR _Ostr$[rbp]
	add	rcx, rax
	mov	rax, rcx
	mov	rcx, rax
	call	QWORD PTR __imp_?flags@ios_base@std@@QEBAHXZ
	and	eax, 448				; 000001c0H
	cmp	eax, 64					; 00000040H
	je	$LN11@operator

; 781  :             for (; 0 < _Pad; --_Pad) { // pad on left

	jmp	SHORT $LN4@operator
$LN2@operator:
	mov	rax, QWORD PTR _Pad$[rbp]
	dec	rax
	mov	QWORD PTR _Pad$[rbp], rax
$LN4@operator:
	cmp	QWORD PTR _Pad$[rbp], 0
	jle	$LN11@operator

; 782  :                 if (_Traits::eq_int_type(_Traits::eof(), _Ostr.rdbuf()->sputc(_Ostr.fill()))) {

	mov	rax, QWORD PTR _Ostr$[rbp]
	mov	rax, QWORD PTR [rax]
	movsxd	rax, DWORD PTR [rax+4]
	mov	rcx, QWORD PTR _Ostr$[rbp]
	add	rcx, rax
	mov	rax, rcx
	mov	rcx, rax
	call	QWORD PTR __imp_?rdbuf@?$basic_ios@DU?$char_traits@D@std@@@std@@QEBAPEAV?$basic_streambuf@DU?$char_traits@D@std@@@2@XZ
	mov	QWORD PTR tv194[rbp], rax
	mov	rax, QWORD PTR _Ostr$[rbp]
	mov	rax, QWORD PTR [rax]
	movsxd	rax, DWORD PTR [rax+4]
	mov	rcx, QWORD PTR _Ostr$[rbp]
	add	rcx, rax
	mov	rax, rcx
	mov	rcx, rax
	call	QWORD PTR __imp_?fill@?$basic_ios@DU?$char_traits@D@std@@@std@@QEBADXZ
	mov	BYTE PTR tv192[rbp], al
	movzx	edx, BYTE PTR tv192[rbp]
	mov	rcx, QWORD PTR tv194[rbp]
	call	QWORD PTR __imp_?sputc@?$basic_streambuf@DU?$char_traits@D@std@@@std@@QEAAHD@Z
	mov	DWORD PTR tv139[rbp], eax
	mov	eax, DWORD PTR tv139[rbp]
	mov	DWORD PTR tv201[rbp], eax
	call	?eof@?$_Narrow_char_traits@DH@std@@SAHXZ ; std::_Narrow_char_traits<char,int>::eof
	mov	DWORD PTR tv199[rbp], eax
	mov	edx, DWORD PTR tv201[rbp]
	mov	ecx, DWORD PTR tv199[rbp]
	call	?eq_int_type@?$_Narrow_char_traits@DH@std@@SA_NHH@Z ; std::_Narrow_char_traits<char,int>::eq_int_type
	movzx	eax, al
	test	eax, eax
	je	SHORT $LN12@operator

; 783  :                     _State |= ios_base::badbit; // insertion failed, quit

	mov	eax, DWORD PTR _State$[rbp]
	or	eax, 4
	mov	DWORD PTR _State$[rbp], eax

; 784  :                     break;

	jmp	SHORT $LN11@operator
$LN12@operator:

; 785  :                 }
; 786  :             }

	jmp	$LN2@operator
$LN11@operator:

; 787  :         }
; 788  : 
; 789  :         if (_State == ios_base::goodbit && _Ostr.rdbuf()->sputn(_Val, _Count) != _Count) {

	cmp	DWORD PTR _State$[rbp], 0
	jne	SHORT $LN13@operator
	mov	rax, QWORD PTR _Ostr$[rbp]
	mov	rax, QWORD PTR [rax]
	movsxd	rax, DWORD PTR [rax+4]
	mov	rcx, QWORD PTR _Ostr$[rbp]
	add	rcx, rax
	mov	rax, rcx
	mov	rcx, rax
	call	QWORD PTR __imp_?rdbuf@?$basic_ios@DU?$char_traits@D@std@@@std@@QEBAPEAV?$basic_streambuf@DU?$char_traits@D@std@@@2@XZ
	mov	QWORD PTR tv223[rbp], rax
	mov	r8, QWORD PTR _Count$[rbp]
	mov	rdx, QWORD PTR _Val$[rbp]
	mov	rcx, QWORD PTR tv223[rbp]
	call	QWORD PTR __imp_?sputn@?$basic_streambuf@DU?$char_traits@D@std@@@std@@QEAA_JPEBD_J@Z
	mov	QWORD PTR tv319[rbp], rax
	mov	rax, QWORD PTR _Count$[rbp]
	cmp	QWORD PTR tv319[rbp], rax
	je	SHORT $LN13@operator

; 790  :             _State |= ios_base::badbit;

	mov	eax, DWORD PTR _State$[rbp]
	or	eax, 4
	mov	DWORD PTR _State$[rbp], eax
$LN13@operator:

; 791  :         }
; 792  : 
; 793  :         if (_State == ios_base::goodbit) {

	cmp	DWORD PTR _State$[rbp], 0
	jne	$LN14@operator

; 794  :             for (; 0 < _Pad; --_Pad) { // pad on right

	jmp	SHORT $LN7@operator
$LN5@operator:
	mov	rax, QWORD PTR _Pad$[rbp]
	dec	rax
	mov	QWORD PTR _Pad$[rbp], rax
$LN7@operator:
	cmp	QWORD PTR _Pad$[rbp], 0
	jle	$LN14@operator

; 795  :                 if (_Traits::eq_int_type(_Traits::eof(), _Ostr.rdbuf()->sputc(_Ostr.fill()))) {

	mov	rax, QWORD PTR _Ostr$[rbp]
	mov	rax, QWORD PTR [rax]
	movsxd	rax, DWORD PTR [rax+4]
	mov	rcx, QWORD PTR _Ostr$[rbp]
	add	rcx, rax
	mov	rax, rcx
	mov	rcx, rax
	call	QWORD PTR __imp_?rdbuf@?$basic_ios@DU?$char_traits@D@std@@@std@@QEBAPEAV?$basic_streambuf@DU?$char_traits@D@std@@@2@XZ
	mov	QWORD PTR tv260[rbp], rax
	mov	rax, QWORD PTR _Ostr$[rbp]
	mov	rax, QWORD PTR [rax]
	movsxd	rax, DWORD PTR [rax+4]
	mov	rcx, QWORD PTR _Ostr$[rbp]
	add	rcx, rax
	mov	rax, rcx
	mov	rcx, rax
	call	QWORD PTR __imp_?fill@?$basic_ios@DU?$char_traits@D@std@@@std@@QEBADXZ
	mov	BYTE PTR tv258[rbp], al
	movzx	edx, BYTE PTR tv258[rbp]
	mov	rcx, QWORD PTR tv260[rbp]
	call	QWORD PTR __imp_?sputc@?$basic_streambuf@DU?$char_traits@D@std@@@std@@QEAAHD@Z
	mov	DWORD PTR tv320[rbp], eax
	mov	eax, DWORD PTR tv320[rbp]
	mov	DWORD PTR tv267[rbp], eax
	call	?eof@?$_Narrow_char_traits@DH@std@@SAHXZ ; std::_Narrow_char_traits<char,int>::eof
	mov	DWORD PTR tv265[rbp], eax
	mov	edx, DWORD PTR tv267[rbp]
	mov	ecx, DWORD PTR tv265[rbp]
	call	?eq_int_type@?$_Narrow_char_traits@DH@std@@SA_NHH@Z ; std::_Narrow_char_traits<char,int>::eq_int_type
	movzx	eax, al
	test	eax, eax
	je	SHORT $LN15@operator

; 796  :                     _State |= ios_base::badbit; // insertion failed, quit

	mov	eax, DWORD PTR _State$[rbp]
	or	eax, 4
	mov	DWORD PTR _State$[rbp], eax

; 797  :                     break;

	jmp	SHORT $LN14@operator
$LN15@operator:

; 798  :                 }
; 799  :             }

	jmp	$LN5@operator
$LN14@operator:

; 800  :         }
; 801  : 
; 802  :         _Ostr.width(0);

	mov	rax, QWORD PTR _Ostr$[rbp]
	mov	rax, QWORD PTR [rax]
	movsxd	rax, DWORD PTR [rax+4]
	mov	rcx, QWORD PTR _Ostr$[rbp]
	add	rcx, rax
	mov	rax, rcx
	mov	QWORD PTR tv285[rbp], rax
	xor	edx, edx
	mov	rcx, QWORD PTR tv285[rbp]
	call	QWORD PTR __imp_?width@ios_base@std@@QEAA_J_J@Z
	npad	1
	jmp	SHORT $LN9@operator
$LN23@operator:
$LN9@operator:

; 803  :         _CATCH_IO_(ios_base, _Ostr)
; 804  :     }
; 805  : 
; 806  :     _Ostr.setstate(_State);

	mov	rax, QWORD PTR _Ostr$[rbp]
	mov	rax, QWORD PTR [rax]
	movsxd	rax, DWORD PTR [rax+4]
	mov	rcx, QWORD PTR _Ostr$[rbp]
	add	rcx, rax
	mov	rax, rcx
	mov	QWORD PTR tv314[rbp], rax
	xor	r8d, r8d
	mov	edx, DWORD PTR _State$[rbp]
	mov	rcx, QWORD PTR tv314[rbp]
	call	QWORD PTR __imp_?setstate@?$basic_ios@DU?$char_traits@D@std@@@std@@QEAAXH_N@Z

; 807  :     return _Ostr;

	mov	rax, QWORD PTR _Ostr$[rbp]
	mov	QWORD PTR $T4[rbp], rax
	lea	rcx, QWORD PTR _Ok$[rbp]
	call	??1sentry@?$basic_ostream@DU?$char_traits@D@std@@@std@@QEAA@XZ ; std::basic_ostream<char,std::char_traits<char> >::sentry::~sentry
	mov	rax, QWORD PTR $T4[rbp]

; 808  : }

	mov	rdi, rax
	lea	rcx, QWORD PTR [rbp-32]
	lea	rdx, OFFSET FLAT:??$?6U?$char_traits@D@std@@@std@@YAAEAV?$basic_ostream@DU?$char_traits@D@std@@@0@AEAV10@PEBD@Z$rtcFrameData
	call	_RTC_CheckStackVars
	mov	rax, rdi
	mov	rcx, QWORD PTR __$ArrayPad$[rbp]
	xor	rcx, rbp
	call	__security_check_cookie
	lea	rsp, QWORD PTR [rbp+408]
	pop	rdi
	pop	rbp
	ret	0
??$?6U?$char_traits@D@std@@@std@@YAAEAV?$basic_ostream@DU?$char_traits@D@std@@@0@AEAV10@PEBD@Z ENDP ; std::operator<<<std::char_traits<char> >
_TEXT	ENDS
; Function compile flags: /Odtp /RTCsu /ZI
;	COMDAT text$x
text$x	SEGMENT
_State$ = 4
_Count$ = 40
_Pad$ = 72
_Ok$ = 104
$T4 = 344
tv314 = 360
tv299 = 360
tv285 = 360
tv260 = 360
tv223 = 360
tv194 = 360
tv137 = 360
tv319 = 368
tv258 = 368
tv192 = 368
tv320 = 372
tv139 = 372
tv267 = 376
tv201 = 376
tv265 = 380
tv199 = 380
__$ArrayPad$ = 384
_Ostr$ = 432
_Val$ = 440
?dtor$0@?0???$?6U?$char_traits@D@std@@@std@@YAAEAV?$basic_ostream@DU?$char_traits@D@std@@@0@AEAV10@PEBD@Z@4HA PROC ; `std::operator<<<std::char_traits<char> >'::`1'::dtor$0
	mov	QWORD PTR [rsp+8], rcx
	mov	QWORD PTR [rsp+16], rdx
	push	rbp
	push	rdi
	sub	rsp, 40					; 00000028H
	lea	rbp, QWORD PTR [rdx+32]
	lea	rcx, QWORD PTR _Ok$[rbp]
	call	??1sentry@?$basic_ostream@DU?$char_traits@D@std@@@std@@QEAA@XZ ; std::basic_ostream<char,std::char_traits<char> >::sentry::~sentry
	add	rsp, 40					; 00000028H
	pop	rdi
	pop	rbp
	ret	0
?dtor$0@?0???$?6U?$char_traits@D@std@@@std@@YAAEAV?$basic_ostream@DU?$char_traits@D@std@@@0@AEAV10@PEBD@Z@4HA ENDP ; `std::operator<<<std::char_traits<char> >'::`1'::dtor$0
text$x	ENDS
; Function compile flags: /Odtp /RTCsu /ZI
;	COMDAT text$x
text$x	SEGMENT
_State$ = 4
_Count$ = 40
_Pad$ = 72
_Ok$ = 104
$T4 = 344
tv314 = 360
tv299 = 360
tv285 = 360
tv260 = 360
tv223 = 360
tv194 = 360
tv137 = 360
tv319 = 368
tv258 = 368
tv192 = 368
tv320 = 372
tv139 = 372
tv267 = 376
tv201 = 376
tv265 = 380
tv199 = 380
__$ArrayPad$ = 384
_Ostr$ = 432
_Val$ = 440
?catch$1@?0???$?6U?$char_traits@D@std@@@std@@YAAEAV?$basic_ostream@DU?$char_traits@D@std@@@0@AEAV10@PEBD@Z@4HA PROC ; `std::operator<<<std::char_traits<char> >'::`1'::catch$1

; 803  :         _CATCH_IO_(ios_base, _Ostr)

	mov	QWORD PTR [rsp+8], rcx
	mov	QWORD PTR [rsp+16], rdx
	push	rbp
	push	rdi
	sub	rsp, 40					; 00000028H
	lea	rbp, QWORD PTR [rdx+32]
__catch$??$?6U?$char_traits@D@std@@@std@@YAAEAV?$basic_ostream@DU?$char_traits@D@std@@@0@AEAV10@PEBD@Z$0:
	mov	rax, QWORD PTR _Ostr$[rbp]
	mov	rax, QWORD PTR [rax]
	movsxd	rax, DWORD PTR [rax+4]
	mov	rcx, QWORD PTR _Ostr$[rbp]
	add	rcx, rax
	mov	rax, rcx
	mov	QWORD PTR tv299[rbp], rax
	mov	r8b, 1
	mov	edx, 4
	mov	rcx, QWORD PTR tv299[rbp]
	call	QWORD PTR __imp_?setstate@?$basic_ios@DU?$char_traits@D@std@@@std@@QEAAXH_N@Z
	npad	1
	lea	rax, $LN23@catch$1
	add	rsp, 40					; 00000028H
	pop	rdi
	pop	rbp
	ret	0
	int	3
?catch$1@?0???$?6U?$char_traits@D@std@@@std@@YAAEAV?$basic_ostream@DU?$char_traits@D@std@@@0@AEAV10@PEBD@Z@4HA ENDP ; `std::operator<<<std::char_traits<char> >'::`1'::catch$1
text$x	ENDS
; Function compile flags: /Odtp /RTCsu /ZI
; File C:\Users\c32\source\repos\PB\PB\main.cpp
;	COMDAT main
_TEXT	SEGMENT
dir$ = 8
target$ = 72
threads$ = 132
fm$ = 176
start$ = 328
end$ = 360
elapsed$ = 392
elapsed_minutes$ = 424
$T10 = 840
$T11 = 904
$T12 = 936
$T13 = 1000
$T14 = 1032
tv208 = 1048
tv185 = 1048
tv171 = 1048
tv156 = 1048
tv69 = 1048
tv218 = 1056
tv214 = 1056
tv183 = 1056
tv169 = 1056
tv154 = 1056
tv133 = 1064
tv220 = 1072
tv141 = 1080
__$ArrayPad$ = 1088
main	PROC						; COMDAT

; 5    : {

$LN8:
	push	rbp
	push	rdi
	sub	rsp, 1144				; 00000478H
	lea	rbp, QWORD PTR [rsp+32]
	lea	rdi, QWORD PTR [rsp+32]
	mov	ecx, 182				; 000000b6H
	mov	eax, -858993460				; ccccccccH
	rep stosd
	mov	rax, QWORD PTR __security_cookie
	xor	rax, rbp
	mov	QWORD PTR __$ArrayPad$[rbp], rax
	lea	rcx, OFFSET FLAT:__6CEEF113_main@cpp
	call	__CheckForDebuggerJustMyCode

; 6    : 	std::string dir = "";

	lea	rdx, OFFSET FLAT:??_C@_00CNPNBAHC@@
	lea	rcx, QWORD PTR dir$[rbp]
	call	??0?$basic_string@DU?$char_traits@D@std@@V?$allocator@D@2@@std@@QEAA@QEBD@Z ; std::basic_string<char,std::char_traits<char>,std::allocator<char> >::basic_string<char,std::char_traits<char>,std::allocator<char> >
	npad	1

; 7    : 	std::string target = "";

	lea	rdx, OFFSET FLAT:??_C@_00CNPNBAHC@@
	lea	rcx, QWORD PTR target$[rbp]
	call	??0?$basic_string@DU?$char_traits@D@std@@V?$allocator@D@2@@std@@QEAA@QEBD@Z ; std::basic_string<char,std::char_traits<char>,std::allocator<char> >::basic_string<char,std::char_traits<char>,std::allocator<char> >
	npad	1

; 8    : 	int threads = 0;

	mov	DWORD PTR threads$[rbp], 0

; 9    : 
; 10   : 	std::cout << "Select directory with .txt password dictionaries\n->";

	lea	rdx, OFFSET FLAT:??_C@_0DE@FJKPEFHF@Select?5directory?5with?5?4txt?5pass@
	mov	rcx, QWORD PTR __imp_?cout@std@@3V?$basic_ostream@DU?$char_traits@D@std@@@1@A
	call	??$?6U?$char_traits@D@std@@@std@@YAAEAV?$basic_ostream@DU?$char_traits@D@std@@@0@AEAV10@PEBD@Z ; std::operator<<<std::char_traits<char> >

; 11   : 	std::cin >> dir;

	lea	rdx, QWORD PTR dir$[rbp]
	mov	rcx, QWORD PTR __imp_?cin@std@@3V?$basic_istream@DU?$char_traits@D@std@@@1@A
	call	??$?5DU?$char_traits@D@std@@V?$allocator@D@1@@std@@YAAEAV?$basic_istream@DU?$char_traits@D@std@@@0@AEAV10@AEAV?$basic_string@DU?$char_traits@D@std@@V?$allocator@D@2@@0@@Z ; std::operator>><char,std::char_traits<char>,std::allocator<char> >

; 12   : 
; 13   : 	std::cout << "Type target line\n->";

	lea	rdx, OFFSET FLAT:??_C@_0BE@DHIDOINI@Type?5target?5line?6?9?$DO@
	mov	rcx, QWORD PTR __imp_?cout@std@@3V?$basic_ostream@DU?$char_traits@D@std@@@1@A
	call	??$?6U?$char_traits@D@std@@@std@@YAAEAV?$basic_ostream@DU?$char_traits@D@std@@@0@AEAV10@PEBD@Z ; std::operator<<<std::char_traits<char> >

; 14   : 	std::cin >> target;

	lea	rdx, QWORD PTR target$[rbp]
	mov	rcx, QWORD PTR __imp_?cin@std@@3V?$basic_istream@DU?$char_traits@D@std@@@1@A
	call	??$?5DU?$char_traits@D@std@@V?$allocator@D@1@@std@@YAAEAV?$basic_istream@DU?$char_traits@D@std@@@0@AEAV10@AEAV?$basic_string@DU?$char_traits@D@std@@V?$allocator@D@2@@0@@Z ; std::operator>><char,std::char_traits<char>,std::allocator<char> >

; 15   : 
; 16   : 	std::cout << "Type count of threads\n->";

	lea	rdx, OFFSET FLAT:??_C@_0BJ@OOIMIEOI@Type?5count?5of?5threads?6?9?$DO@
	mov	rcx, QWORD PTR __imp_?cout@std@@3V?$basic_ostream@DU?$char_traits@D@std@@@1@A
	call	??$?6U?$char_traits@D@std@@@std@@YAAEAV?$basic_ostream@DU?$char_traits@D@std@@@0@AEAV10@PEBD@Z ; std::operator<<<std::char_traits<char> >

; 17   : 	std::cin >> threads;

	lea	rdx, QWORD PTR threads$[rbp]
	mov	rcx, QWORD PTR __imp_?cin@std@@3V?$basic_istream@DU?$char_traits@D@std@@@1@A
	call	QWORD PTR __imp_??5?$basic_istream@DU?$char_traits@D@std@@@std@@QEAAAEAV01@AEAH@Z

; 18   : 
; 19   : 	filemanip fm(dir, target);

	mov	edx, 128				; 00000080H
	lea	rcx, QWORD PTR fm$[rbp]
	call	?__autoclassinit2@filemanip@@QEAAX_K@Z
	lea	rax, QWORD PTR $T10[rbp]
	mov	QWORD PTR $T11[rbp], rax
	lea	rdx, QWORD PTR target$[rbp]
	mov	rcx, QWORD PTR $T11[rbp]
	call	??0?$basic_string@DU?$char_traits@D@std@@V?$allocator@D@2@@std@@QEAA@AEBV01@@Z ; std::basic_string<char,std::char_traits<char>,std::allocator<char> >::basic_string<char,std::char_traits<char>,std::allocator<char> >
	mov	QWORD PTR tv69[rbp], rax
	mov	rax, QWORD PTR tv69[rbp]
	mov	QWORD PTR tv218[rbp], rax
	mov	rax, QWORD PTR tv218[rbp]
	mov	QWORD PTR tv133[rbp], rax
	lea	rax, QWORD PTR $T12[rbp]
	mov	QWORD PTR $T13[rbp], rax
	lea	rdx, QWORD PTR dir$[rbp]
	mov	rcx, QWORD PTR $T13[rbp]
	call	??0?$basic_string@DU?$char_traits@D@std@@V?$allocator@D@2@@std@@QEAA@AEBV01@@Z ; std::basic_string<char,std::char_traits<char>,std::allocator<char> >::basic_string<char,std::char_traits<char>,std::allocator<char> >
	mov	QWORD PTR tv220[rbp], rax
	mov	rax, QWORD PTR tv220[rbp]
	mov	QWORD PTR tv141[rbp], rax
	mov	r8, QWORD PTR tv133[rbp]
	mov	rdx, QWORD PTR tv141[rbp]
	lea	rcx, QWORD PTR fm$[rbp]
	call	??0filemanip@@QEAA@V?$basic_string@DU?$char_traits@D@std@@V?$allocator@D@2@@std@@0@Z ; filemanip::filemanip
	npad	1

; 20   : 
; 21   : 	fm.dir_traversal();

	lea	rcx, QWORD PTR fm$[rbp]
	call	?dir_traversal@filemanip@@QEAAXXZ	; filemanip::dir_traversal

; 22   : 	std::cout << "Brutforcing now... using " << threads << " threads\n";

	lea	rdx, OFFSET FLAT:??_C@_0BK@BEABPPAF@Brutforcing?5now?4?4?4?5using?5@
	mov	rcx, QWORD PTR __imp_?cout@std@@3V?$basic_ostream@DU?$char_traits@D@std@@@1@A
	call	??$?6U?$char_traits@D@std@@@std@@YAAEAV?$basic_ostream@DU?$char_traits@D@std@@@0@AEAV10@PEBD@Z ; std::operator<<<std::char_traits<char> >
	mov	QWORD PTR tv156[rbp], rax
	mov	eax, DWORD PTR threads$[rbp]
	mov	DWORD PTR tv154[rbp], eax
	mov	edx, DWORD PTR tv154[rbp]
	mov	rcx, QWORD PTR tv156[rbp]
	call	QWORD PTR __imp_??6?$basic_ostream@DU?$char_traits@D@std@@@std@@QEAAAEAV01@H@Z
	lea	rdx, OFFSET FLAT:??_C@_09GCOJOCEP@?5threads?6@
	mov	rcx, rax
	call	??$?6U?$char_traits@D@std@@@std@@YAAEAV?$basic_ostream@DU?$char_traits@D@std@@@0@AEAV10@PEBD@Z ; std::operator<<<std::char_traits<char> >

; 23   : 	std::cout << "Total directory size: " << fm.get_total_dir_size() / (1024 * 1024) << " mb\n";

	lea	rdx, OFFSET FLAT:??_C@_0BH@CNNLBLI@Total?5directory?5size?3?5@
	mov	rcx, QWORD PTR __imp_?cout@std@@3V?$basic_ostream@DU?$char_traits@D@std@@@1@A
	call	??$?6U?$char_traits@D@std@@@std@@YAAEAV?$basic_ostream@DU?$char_traits@D@std@@@0@AEAV10@PEBD@Z ; std::operator<<<std::char_traits<char> >
	mov	QWORD PTR tv171[rbp], rax
	lea	rcx, QWORD PTR fm$[rbp]
	call	?get_total_dir_size@filemanip@@QEBANXZ	; filemanip::get_total_dir_size
	divsd	xmm0, QWORD PTR __real@4130000000000000
	movsd	QWORD PTR tv169[rbp], xmm0
	movsd	xmm1, QWORD PTR tv169[rbp]
	mov	rcx, QWORD PTR tv171[rbp]
	call	QWORD PTR __imp_??6?$basic_ostream@DU?$char_traits@D@std@@@std@@QEAAAEAV01@N@Z
	lea	rdx, OFFSET FLAT:??_C@_04IAOMPPPM@?5mb?6@
	mov	rcx, rax
	call	??$?6U?$char_traits@D@std@@@std@@YAAEAV?$basic_ostream@DU?$char_traits@D@std@@@0@AEAV10@PEBD@Z ; std::operator<<<std::char_traits<char> >

; 24   : 	std::cout << "Count of files: " << fm.get_count_of_files() << "\n";

	lea	rdx, OFFSET FLAT:??_C@_0BB@OBBOOBAB@Count?5of?5files?3?5@
	mov	rcx, QWORD PTR __imp_?cout@std@@3V?$basic_ostream@DU?$char_traits@D@std@@@1@A
	call	??$?6U?$char_traits@D@std@@@std@@YAAEAV?$basic_ostream@DU?$char_traits@D@std@@@0@AEAV10@PEBD@Z ; std::operator<<<std::char_traits<char> >
	mov	QWORD PTR tv185[rbp], rax
	lea	rcx, QWORD PTR fm$[rbp]
	call	?get_count_of_files@filemanip@@QEBAHXZ	; filemanip::get_count_of_files
	mov	DWORD PTR tv183[rbp], eax
	mov	edx, DWORD PTR tv183[rbp]
	mov	rcx, QWORD PTR tv185[rbp]
	call	QWORD PTR __imp_??6?$basic_ostream@DU?$char_traits@D@std@@@std@@QEAAAEAV01@H@Z
	lea	rdx, OFFSET FLAT:??_C@_01EEMJAFIK@?6@
	mov	rcx, rax
	call	??$?6U?$char_traits@D@std@@@std@@YAAEAV?$basic_ostream@DU?$char_traits@D@std@@@0@AEAV10@PEBD@Z ; std::operator<<<std::char_traits<char> >

; 25   : 
; 26   : 	auto start = std::chrono::high_resolution_clock::now();

	lea	rcx, QWORD PTR start$[rbp]
	call	?now@steady_clock@chrono@std@@SA?AV?$time_point@Usteady_clock@chrono@std@@V?$duration@_JU?$ratio@$00$0DLJKMKAA@@std@@@23@@23@XZ ; std::chrono::steady_clock::now

; 27   : 	fm.bruteforce(threads);

	mov	edx, DWORD PTR threads$[rbp]
	lea	rcx, QWORD PTR fm$[rbp]
	call	?bruteforce@filemanip@@QEAAXH@Z		; filemanip::bruteforce

; 28   : 	auto end = std::chrono::high_resolution_clock::now();

	lea	rcx, QWORD PTR end$[rbp]
	call	?now@steady_clock@chrono@std@@SA?AV?$time_point@Usteady_clock@chrono@std@@V?$duration@_JU?$ratio@$00$0DLJKMKAA@@std@@@23@@23@XZ ; std::chrono::steady_clock::now

; 29   : 
; 30   : 	std::chrono::duration<double> elapsed = end - start;

	lea	r8, QWORD PTR start$[rbp]
	lea	rdx, QWORD PTR end$[rbp]
	lea	rcx, QWORD PTR $T14[rbp]
	call	??$?GUsteady_clock@chrono@std@@V?$duration@_JU?$ratio@$00$0DLJKMKAA@@std@@@12@V312@@chrono@std@@YA?AV?$duration@_JU?$ratio@$00$0DLJKMKAA@@std@@@01@AEBV?$time_point@Usteady_clock@chrono@std@@V?$duration@_JU?$ratio@$00$0DLJKMKAA@@std@@@23@@01@0@Z ; std::chrono::operator-<std::chrono::steady_clock,std::chrono::duration<__int64,std::ratio<1,1000000000> >,std::chrono::duration<__int64,std::ratio<1,1000000000> > >
	mov	rdx, rax
	lea	rcx, QWORD PTR elapsed$[rbp]
	call	??$?0_JU?$ratio@$00$0DLJKMKAA@@std@@$0A@@?$duration@NU?$ratio@$00$00@std@@@chrono@std@@QEAA@AEBV?$duration@_JU?$ratio@$00$0DLJKMKAA@@std@@@12@@Z ; std::chrono::duration<double,std::ratio<1,1> >::duration<double,std::ratio<1,1> ><__int64,std::ratio<1,1000000000>,0>

; 31   : 	double elapsed_minutes = elapsed.count() / 60.0;

	lea	rcx, QWORD PTR elapsed$[rbp]
	call	?count@?$duration@NU?$ratio@$00$00@std@@@chrono@std@@QEBANXZ ; std::chrono::duration<double,std::ratio<1,1> >::count
	divsd	xmm0, QWORD PTR __real@404e000000000000
	movsd	QWORD PTR elapsed_minutes$[rbp], xmm0

; 32   : 
; 33   : 	//  
; 34   : 	std::cout << "Execution time: " << elapsed_minutes << " minutes" << std::endl;

	lea	rdx, OFFSET FLAT:??_C@_0BB@LCEDBKEJ@Execution?5time?3?5@
	mov	rcx, QWORD PTR __imp_?cout@std@@3V?$basic_ostream@DU?$char_traits@D@std@@@1@A
	call	??$?6U?$char_traits@D@std@@@std@@YAAEAV?$basic_ostream@DU?$char_traits@D@std@@@0@AEAV10@PEBD@Z ; std::operator<<<std::char_traits<char> >
	mov	QWORD PTR tv208[rbp], rax
	movsd	xmm1, QWORD PTR elapsed_minutes$[rbp]
	mov	rcx, QWORD PTR tv208[rbp]
	call	QWORD PTR __imp_??6?$basic_ostream@DU?$char_traits@D@std@@@std@@QEAAAEAV01@N@Z
	lea	rdx, OFFSET FLAT:??_C@_08GDFIMAAO@?5minutes@
	mov	rcx, rax
	call	??$?6U?$char_traits@D@std@@@std@@YAAEAV?$basic_ostream@DU?$char_traits@D@std@@@0@AEAV10@PEBD@Z ; std::operator<<<std::char_traits<char> >
	mov	QWORD PTR tv214[rbp], rax
	lea	rdx, OFFSET FLAT:??$endl@DU?$char_traits@D@std@@@std@@YAAEAV?$basic_ostream@DU?$char_traits@D@std@@@0@AEAV10@@Z ; std::endl<char,std::char_traits<char> >
	mov	rcx, QWORD PTR tv214[rbp]
	call	QWORD PTR __imp_??6?$basic_ostream@DU?$char_traits@D@std@@@std@@QEAAAEAV01@P6AAEAV01@AEAV01@@Z@Z
	npad	1

; 35   : 
; 36   : }

	lea	rcx, QWORD PTR fm$[rbp]
	call	??1filemanip@@QEAA@XZ
	npad	1
	lea	rcx, QWORD PTR target$[rbp]
	call	??1?$basic_string@DU?$char_traits@D@std@@V?$allocator@D@2@@std@@QEAA@XZ ; std::basic_string<char,std::char_traits<char>,std::allocator<char> >::~basic_string<char,std::char_traits<char>,std::allocator<char> >
	npad	1
	lea	rcx, QWORD PTR dir$[rbp]
	call	??1?$basic_string@DU?$char_traits@D@std@@V?$allocator@D@2@@std@@QEAA@XZ ; std::basic_string<char,std::char_traits<char>,std::allocator<char> >::~basic_string<char,std::char_traits<char>,std::allocator<char> >
	xor	eax, eax
	mov	edi, eax
	lea	rcx, QWORD PTR [rbp-32]
	lea	rdx, OFFSET FLAT:main$rtcFrameData
	call	_RTC_CheckStackVars
	mov	eax, edi
	mov	rcx, QWORD PTR __$ArrayPad$[rbp]
	xor	rcx, rbp
	call	__security_check_cookie
	lea	rsp, QWORD PTR [rbp+1112]
	pop	rdi
	pop	rbp
	ret	0
main	ENDP
_TEXT	ENDS
; Function compile flags: /Odtp /RTCsu /ZI
;	COMDAT text$x
text$x	SEGMENT
dir$ = 8
target$ = 72
threads$ = 132
fm$ = 176
start$ = 328
end$ = 360
elapsed$ = 392
elapsed_minutes$ = 424
$T10 = 840
$T11 = 904
$T12 = 936
$T13 = 1000
$T14 = 1032
tv208 = 1048
tv185 = 1048
tv171 = 1048
tv156 = 1048
tv69 = 1048
tv218 = 1056
tv214 = 1056
tv183 = 1056
tv169 = 1056
tv154 = 1056
tv133 = 1064
tv220 = 1072
tv141 = 1080
__$ArrayPad$ = 1088
main$dtor$0 PROC
	mov	QWORD PTR [rsp+8], rcx
	mov	QWORD PTR [rsp+16], rdx
	push	rbp
	push	rdi
	sub	rsp, 40					; 00000028H
	lea	rbp, QWORD PTR [rdx+32]
	lea	rcx, QWORD PTR dir$[rbp]
	call	??1?$basic_string@DU?$char_traits@D@std@@V?$allocator@D@2@@std@@QEAA@XZ ; std::basic_string<char,std::char_traits<char>,std::allocator<char> >::~basic_string<char,std::char_traits<char>,std::allocator<char> >
	add	rsp, 40					; 00000028H
	pop	rdi
	pop	rbp
	ret	0
main$dtor$0 ENDP
text$x	ENDS
; Function compile flags: /Odtp /RTCsu /ZI
;	COMDAT text$x
text$x	SEGMENT
dir$ = 8
target$ = 72
threads$ = 132
fm$ = 176
start$ = 328
end$ = 360
elapsed$ = 392
elapsed_minutes$ = 424
$T10 = 840
$T11 = 904
$T12 = 936
$T13 = 1000
$T14 = 1032
tv208 = 1048
tv185 = 1048
tv171 = 1048
tv156 = 1048
tv69 = 1048
tv218 = 1056
tv214 = 1056
tv183 = 1056
tv169 = 1056
tv154 = 1056
tv133 = 1064
tv220 = 1072
tv141 = 1080
__$ArrayPad$ = 1088
main$dtor$1 PROC
	mov	QWORD PTR [rsp+8], rcx
	mov	QWORD PTR [rsp+16], rdx
	push	rbp
	push	rdi
	sub	rsp, 40					; 00000028H
	lea	rbp, QWORD PTR [rdx+32]
	lea	rcx, QWORD PTR target$[rbp]
	call	??1?$basic_string@DU?$char_traits@D@std@@V?$allocator@D@2@@std@@QEAA@XZ ; std::basic_string<char,std::char_traits<char>,std::allocator<char> >::~basic_string<char,std::char_traits<char>,std::allocator<char> >
	add	rsp, 40					; 00000028H
	pop	rdi
	pop	rbp
	ret	0
main$dtor$1 ENDP
text$x	ENDS
; Function compile flags: /Odtp /RTCsu /ZI
;	COMDAT text$x
text$x	SEGMENT
dir$ = 8
target$ = 72
threads$ = 132
fm$ = 176
start$ = 328
end$ = 360
elapsed$ = 392
elapsed_minutes$ = 424
$T10 = 840
$T11 = 904
$T12 = 936
$T13 = 1000
$T14 = 1032
tv208 = 1048
tv185 = 1048
tv171 = 1048
tv156 = 1048
tv69 = 1048
tv218 = 1056
tv214 = 1056
tv183 = 1056
tv169 = 1056
tv154 = 1056
tv133 = 1064
tv220 = 1072
tv141 = 1080
__$ArrayPad$ = 1088
main$dtor$2 PROC
	mov	QWORD PTR [rsp+8], rcx
	mov	QWORD PTR [rsp+16], rdx
	push	rbp
	push	rdi
	sub	rsp, 40					; 00000028H
	lea	rbp, QWORD PTR [rdx+32]
	mov	rcx, QWORD PTR $T11[rbp]
	call	??1?$basic_string@DU?$char_traits@D@std@@V?$allocator@D@2@@std@@QEAA@XZ ; std::basic_string<char,std::char_traits<char>,std::allocator<char> >::~basic_string<char,std::char_traits<char>,std::allocator<char> >
	add	rsp, 40					; 00000028H
	pop	rdi
	pop	rbp
	ret	0
main$dtor$2 ENDP
text$x	ENDS
; Function compile flags: /Odtp /RTCsu /ZI
;	COMDAT text$x
text$x	SEGMENT
dir$ = 8
target$ = 72
threads$ = 132
fm$ = 176
start$ = 328
end$ = 360
elapsed$ = 392
elapsed_minutes$ = 424
$T10 = 840
$T11 = 904
$T12 = 936
$T13 = 1000
$T14 = 1032
tv208 = 1048
tv185 = 1048
tv171 = 1048
tv156 = 1048
tv69 = 1048
tv218 = 1056
tv214 = 1056
tv183 = 1056
tv169 = 1056
tv154 = 1056
tv133 = 1064
tv220 = 1072
tv141 = 1080
__$ArrayPad$ = 1088
main$dtor$4 PROC
	mov	QWORD PTR [rsp+8], rcx
	mov	QWORD PTR [rsp+16], rdx
	push	rbp
	push	rdi
	sub	rsp, 40					; 00000028H
	lea	rbp, QWORD PTR [rdx+32]
	lea	rcx, QWORD PTR fm$[rbp]
	call	??1filemanip@@QEAA@XZ
	add	rsp, 40					; 00000028H
	pop	rdi
	pop	rbp
	ret	0
main$dtor$4 ENDP
text$x	ENDS
; Function compile flags: /Odtp /RTCsu /ZI
;	COMDAT ?__autoclassinit2@filemanip@@QEAAX_K@Z
_TEXT	SEGMENT
this$ = 224
classSize$ = 232
?__autoclassinit2@filemanip@@QEAAX_K@Z PROC		; filemanip::__autoclassinit2, COMDAT
$LN3:
	mov	QWORD PTR [rsp+16], rdx
	mov	QWORD PTR [rsp+8], rcx
	push	rbp
	push	rdi
	sub	rsp, 200				; 000000c8H
	mov	rbp, rsp
	mov	rdi, QWORD PTR this$[rbp]
	xor	eax, eax
	mov	rcx, QWORD PTR classSize$[rbp]
	rep stosb
	lea	rsp, QWORD PTR [rbp+200]
	pop	rdi
	pop	rbp
	ret	0
?__autoclassinit2@filemanip@@QEAAX_K@Z ENDP		; filemanip::__autoclassinit2
_TEXT	ENDS
; Function compile flags: /Odtp /RTCsu /ZI
;	COMDAT ??1filemanip@@QEAA@XZ
_TEXT	SEGMENT
this$ = 224
??1filemanip@@QEAA@XZ PROC				; filemanip::~filemanip, COMDAT
$LN3:
	mov	QWORD PTR [rsp+8], rcx
	push	rbp
	push	rdi
	sub	rsp, 232				; 000000e8H
	lea	rbp, QWORD PTR [rsp+32]
	mov	rax, QWORD PTR this$[rbp]
	add	rax, 72					; 00000048H
	mov	rcx, rax
	call	??1?$basic_string@DU?$char_traits@D@std@@V?$allocator@D@2@@std@@QEAA@XZ ; std::basic_string<char,std::char_traits<char>,std::allocator<char> >::~basic_string<char,std::char_traits<char>,std::allocator<char> >
	mov	rax, QWORD PTR this$[rbp]
	add	rax, 32					; 00000020H
	mov	rcx, rax
	call	??1?$basic_string@DU?$char_traits@D@std@@V?$allocator@D@2@@std@@QEAA@XZ ; std::basic_string<char,std::char_traits<char>,std::allocator<char> >::~basic_string<char,std::char_traits<char>,std::allocator<char> >
	mov	rax, QWORD PTR this$[rbp]
	mov	rcx, rax
	call	??1?$vector@Ufile_task@@V?$allocator@Ufile_task@@@std@@@std@@QEAA@XZ ; std::vector<file_task,std::allocator<file_task> >::~vector<file_task,std::allocator<file_task> >
	lea	rsp, QWORD PTR [rbp+200]
	pop	rdi
	pop	rbp
	ret	0
??1filemanip@@QEAA@XZ ENDP				; filemanip::~filemanip
_TEXT	ENDS
; Function compile flags: /Odtp /RTCsu /ZI
; File C:\Program Files\Microsoft Visual Studio\2022\Community\VC\Tools\MSVC\14.38.33130\include\xmemory
;	COMDAT ?_Get_first@?$_Compressed_pair@V?$allocator@Ufile_task@@@std@@V?$_Vector_val@U?$_Simple_types@Ufile_task@@@std@@@2@$00@std@@QEAAAEAV?$allocator@Ufile_task@@@2@XZ
_TEXT	SEGMENT
this$ = 224
?_Get_first@?$_Compressed_pair@V?$allocator@Ufile_task@@@std@@V?$_Vector_val@U?$_Simple_types@Ufile_task@@@std@@@2@$00@std@@QEAAAEAV?$allocator@Ufile_task@@@2@XZ PROC ; std::_Compressed_pair<std::allocator<file_task>,std::_Vector_val<std::_Simple_types<file_task> >,1>::_Get_first, COMDAT

; 1526 :     constexpr _Ty1& _Get_first() noexcept {

$LN3:
	mov	QWORD PTR [rsp+8], rcx
	push	rbp
	push	rdi
	sub	rsp, 232				; 000000e8H
	lea	rbp, QWORD PTR [rsp+32]
	lea	rcx, OFFSET FLAT:__53DEE440_xmemory
	call	__CheckForDebuggerJustMyCode

; 1527 :         return *this;

	mov	rax, QWORD PTR this$[rbp]

; 1528 :     }

	lea	rsp, QWORD PTR [rbp+200]
	pop	rdi
	pop	rbp
	ret	0
?_Get_first@?$_Compressed_pair@V?$allocator@Ufile_task@@@std@@V?$_Vector_val@U?$_Simple_types@Ufile_task@@@std@@@2@$00@std@@QEAAAEAV?$allocator@Ufile_task@@@2@XZ ENDP ; std::_Compressed_pair<std::allocator<file_task>,std::_Vector_val<std::_Simple_types<file_task> >,1>::_Get_first
_TEXT	ENDS
; Function compile flags: /Odtp /RTCsu /ZI
; File C:\Program Files\Microsoft Visual Studio\2022\Community\VC\Tools\MSVC\14.38.33130\include\vector
;	COMDAT ?_Getal@?$vector@Ufile_task@@V?$allocator@Ufile_task@@@std@@@std@@AEAAAEAV?$allocator@Ufile_task@@@2@XZ
_TEXT	SEGMENT
this$ = 224
?_Getal@?$vector@Ufile_task@@V?$allocator@Ufile_task@@@std@@@std@@AEAAAEAV?$allocator@Ufile_task@@@2@XZ PROC ; std::vector<file_task,std::allocator<file_task> >::_Getal, COMDAT

; 2188 :     _NODISCARD _CONSTEXPR20 _Alty& _Getal() noexcept {

$LN3:
	mov	QWORD PTR [rsp+8], rcx
	push	rbp
	push	rdi
	sub	rsp, 232				; 000000e8H
	lea	rbp, QWORD PTR [rsp+32]
	lea	rcx, OFFSET FLAT:__51919D19_vector
	call	__CheckForDebuggerJustMyCode

; 2189 :         return _Mypair._Get_first();

	mov	rax, QWORD PTR this$[rbp]
	mov	rcx, rax
	call	?_Get_first@?$_Compressed_pair@V?$allocator@Ufile_task@@@std@@V?$_Vector_val@U?$_Simple_types@Ufile_task@@@std@@@2@$00@std@@QEAAAEAV?$allocator@Ufile_task@@@2@XZ ; std::_Compressed_pair<std::allocator<file_task>,std::_Vector_val<std::_Simple_types<file_task> >,1>::_Get_first

; 2190 :     }

	lea	rsp, QWORD PTR [rbp+200]
	pop	rdi
	pop	rbp
	ret	0
?_Getal@?$vector@Ufile_task@@V?$allocator@Ufile_task@@@std@@@std@@AEAAAEAV?$allocator@Ufile_task@@@2@XZ ENDP ; std::vector<file_task,std::allocator<file_task> >::_Getal
_TEXT	ENDS
; Function compile flags: /Odtp /RTCsu /ZI
; File C:\Program Files\Microsoft Visual Studio\2022\Community\VC\Tools\MSVC\14.38.33130\include\vector
;	COMDAT ?_Tidy@?$vector@Ufile_task@@V?$allocator@Ufile_task@@@std@@@std@@AEAAXXZ
_TEXT	SEGMENT
_Al$ = 8
_My_data$ = 40
_Myfirst$ = 72
_Mylast$ = 104
_Myend$ = 136
this$ = 384
?_Tidy@?$vector@Ufile_task@@V?$allocator@Ufile_task@@@std@@@std@@AEAAXXZ PROC ; std::vector<file_task,std::allocator<file_task> >::_Tidy, COMDAT

; 2043 :     _CONSTEXPR20 void _Tidy() noexcept { // free all storage

$LN4:
	mov	QWORD PTR [rsp+8], rcx
	push	rbp
	push	rdi
	sub	rsp, 392				; 00000188H
	lea	rbp, QWORD PTR [rsp+32]
	lea	rcx, OFFSET FLAT:__51919D19_vector
	call	__CheckForDebuggerJustMyCode

; 2044 :         auto& _Al         = _Getal();

	mov	rcx, QWORD PTR this$[rbp]
	call	?_Getal@?$vector@Ufile_task@@V?$allocator@Ufile_task@@@std@@@std@@AEAAAEAV?$allocator@Ufile_task@@@2@XZ ; std::vector<file_task,std::allocator<file_task> >::_Getal
	mov	QWORD PTR _Al$[rbp], rax

; 2045 :         auto& _My_data    = _Mypair._Myval2;

	mov	rax, QWORD PTR this$[rbp]
	mov	QWORD PTR _My_data$[rbp], rax

; 2046 :         pointer& _Myfirst = _My_data._Myfirst;

	mov	rax, QWORD PTR _My_data$[rbp]
	add	rax, 8
	mov	QWORD PTR _Myfirst$[rbp], rax

; 2047 :         pointer& _Mylast  = _My_data._Mylast;

	mov	rax, QWORD PTR _My_data$[rbp]
	add	rax, 16
	mov	QWORD PTR _Mylast$[rbp], rax

; 2048 :         pointer& _Myend   = _My_data._Myend;

	mov	rax, QWORD PTR _My_data$[rbp]
	add	rax, 24
	mov	QWORD PTR _Myend$[rbp], rax

; 2049 : 
; 2050 :         _My_data._Orphan_all();

	mov	rcx, QWORD PTR _My_data$[rbp]
	call	?_Orphan_all@_Container_base12@std@@QEAAXXZ ; std::_Container_base12::_Orphan_all

; 2051 : 
; 2052 :         if (_Myfirst) { // destroy and deallocate old array

	mov	rax, QWORD PTR _Myfirst$[rbp]
	cmp	QWORD PTR [rax], 0
	je	SHORT $LN2@Tidy

; 2053 :             _Destroy_range(_Myfirst, _Mylast, _Al);

	mov	r8, QWORD PTR _Al$[rbp]
	mov	rax, QWORD PTR _Mylast$[rbp]
	mov	rdx, QWORD PTR [rax]
	mov	rax, QWORD PTR _Myfirst$[rbp]
	mov	rcx, QWORD PTR [rax]
	call	??$_Destroy_range@V?$allocator@Ufile_task@@@std@@@std@@YAXPEAUfile_task@@QEAU1@AEAV?$allocator@Ufile_task@@@0@@Z ; std::_Destroy_range<std::allocator<file_task> >

; 2054 :             _ASAN_VECTOR_REMOVE;
; 2055 :             _Al.deallocate(_Myfirst, static_cast<size_type>(_Myend - _Myfirst));

	mov	rax, QWORD PTR _Myend$[rbp]
	mov	rcx, QWORD PTR _Myfirst$[rbp]
	mov	rcx, QWORD PTR [rcx]
	mov	rax, QWORD PTR [rax]
	sub	rax, rcx
	sar	rax, 5
	mov	r8, rax
	mov	rax, QWORD PTR _Myfirst$[rbp]
	mov	rdx, QWORD PTR [rax]
	mov	rcx, QWORD PTR _Al$[rbp]
	call	?deallocate@?$allocator@Ufile_task@@@std@@QEAAXQEAUfile_task@@_K@Z ; std::allocator<file_task>::deallocate

; 2056 : 
; 2057 :             _Myfirst = nullptr;

	mov	rax, QWORD PTR _Myfirst$[rbp]
	mov	QWORD PTR [rax], 0

; 2058 :             _Mylast  = nullptr;

	mov	rax, QWORD PTR _Mylast$[rbp]
	mov	QWORD PTR [rax], 0

; 2059 :             _Myend   = nullptr;

	mov	rax, QWORD PTR _Myend$[rbp]
	mov	QWORD PTR [rax], 0
$LN2@Tidy:

; 2060 :         }
; 2061 :     }

	lea	rsp, QWORD PTR [rbp+360]
	pop	rdi
	pop	rbp
	ret	0
?_Tidy@?$vector@Ufile_task@@V?$allocator@Ufile_task@@@std@@@std@@AEAAXXZ ENDP ; std::vector<file_task,std::allocator<file_task> >::_Tidy
_TEXT	ENDS
; Function compile flags: /Odtp /RTCsu /ZI
; File C:\Program Files\Microsoft Visual Studio\2022\Community\VC\Tools\MSVC\14.38.33130\include\vector
;	COMDAT ??1?$vector@Ufile_task@@V?$allocator@Ufile_task@@@std@@@std@@QEAA@XZ
_TEXT	SEGMENT
_Alproxy$ = 8
$S8$ = 36
$T4 = 260
__$ArrayPad$ = 280
this$ = 320
??1?$vector@Ufile_task@@V?$allocator@Ufile_task@@@std@@@std@@QEAA@XZ PROC ; std::vector<file_task,std::allocator<file_task> >::~vector<file_task,std::allocator<file_task> >, COMDAT

; 764  :     _CONSTEXPR20 ~vector() noexcept {

$LN3:
	mov	QWORD PTR [rsp+8], rcx
	push	rbp
	push	rdi
	sub	rsp, 328				; 00000148H
	lea	rbp, QWORD PTR [rsp+32]
	lea	rdi, QWORD PTR [rsp+32]
	mov	ecx, 26
	mov	eax, -858993460				; ccccccccH
	rep stosd
	mov	rcx, QWORD PTR [rsp+360]
	mov	rax, QWORD PTR __security_cookie
	xor	rax, rbp
	mov	QWORD PTR __$ArrayPad$[rbp], rax
	lea	rcx, OFFSET FLAT:__51919D19_vector
	call	__CheckForDebuggerJustMyCode

; 765  :         _Tidy();

	mov	rcx, QWORD PTR this$[rbp]
	call	?_Tidy@?$vector@Ufile_task@@V?$allocator@Ufile_task@@@std@@@std@@AEAAXXZ ; std::vector<file_task,std::allocator<file_task> >::_Tidy

; 766  : #if _ITERATOR_DEBUG_LEVEL != 0
; 767  :         auto&& _Alproxy = _GET_PROXY_ALLOCATOR(_Alty, _Getal());

	mov	rcx, QWORD PTR this$[rbp]
	call	?_Getal@?$vector@Ufile_task@@V?$allocator@Ufile_task@@@std@@@std@@AEAAAEAV?$allocator@Ufile_task@@@2@XZ ; std::vector<file_task,std::allocator<file_task> >::_Getal
	mov	rdx, rax
	lea	rcx, QWORD PTR $S8$[rbp]
	call	??$?0Ufile_task@@@?$allocator@U_Container_proxy@std@@@std@@QEAA@AEBV?$allocator@Ufile_task@@@1@@Z ; std::allocator<std::_Container_proxy>::allocator<std::_Container_proxy><file_task>
	lea	rax, QWORD PTR $S8$[rbp]
	mov	QWORD PTR _Alproxy$[rbp], rax

; 768  :         _Delete_plain_internal(_Alproxy, _STD exchange(_Mypair._Myval2._Myproxy, nullptr));

	mov	QWORD PTR $T4[rbp], 0
	mov	rax, QWORD PTR this$[rbp]
	lea	rdx, QWORD PTR $T4[rbp]
	mov	rcx, rax
	call	??$exchange@PEAU_Container_proxy@std@@$$T@std@@YAPEAU_Container_proxy@0@AEAPEAU10@$$QEA$$T@Z ; std::exchange<std::_Container_proxy *,std::nullptr_t>
	mov	rdx, rax
	mov	rcx, QWORD PTR _Alproxy$[rbp]
	call	??$_Delete_plain_internal@V?$allocator@U_Container_proxy@std@@@std@@@std@@YAXAEAV?$allocator@U_Container_proxy@std@@@0@QEAU_Container_proxy@0@@Z ; std::_Delete_plain_internal<std::allocator<std::_Container_proxy> >

; 769  : #endif // _ITERATOR_DEBUG_LEVEL != 0
; 770  :     }

	lea	rcx, QWORD PTR [rbp-32]
	lea	rdx, OFFSET FLAT:??1?$vector@Ufile_task@@V?$allocator@Ufile_task@@@std@@@std@@QEAA@XZ$rtcFrameData
	call	_RTC_CheckStackVars
	mov	rcx, QWORD PTR __$ArrayPad$[rbp]
	xor	rcx, rbp
	call	__security_check_cookie
	lea	rsp, QWORD PTR [rbp+296]
	pop	rdi
	pop	rbp
	ret	0
??1?$vector@Ufile_task@@V?$allocator@Ufile_task@@@std@@@std@@QEAA@XZ ENDP ; std::vector<file_task,std::allocator<file_task> >::~vector<file_task,std::allocator<file_task> >
_TEXT	ENDS
; Function compile flags: /Odtp /RTCsu /ZI
; File C:\Program Files\Microsoft Visual Studio\2022\Community\VC\Tools\MSVC\14.38.33130\include\xmemory
;	COMDAT ?deallocate@?$allocator@Ufile_task@@@std@@QEAAXQEAUfile_task@@_K@Z
_TEXT	SEGMENT
this$ = 224
_Ptr$ = 232
_Count$ = 240
?deallocate@?$allocator@Ufile_task@@@std@@QEAAXQEAUfile_task@@_K@Z PROC ; std::allocator<file_task>::deallocate, COMDAT

; 970  :     _CONSTEXPR20 void deallocate(_Ty* const _Ptr, const size_t _Count) {

$LN13:
	mov	QWORD PTR [rsp+24], r8
	mov	QWORD PTR [rsp+16], rdx
	mov	QWORD PTR [rsp+8], rcx
	push	rbp
	push	rdi
	sub	rsp, 248				; 000000f8H
	lea	rbp, QWORD PTR [rsp+48]
	lea	rcx, OFFSET FLAT:__53DEE440_xmemory
	call	__CheckForDebuggerJustMyCode
$LN4@deallocate:

; 971  :         _STL_ASSERT(_Ptr != nullptr || _Count == 0, "null pointer cannot point to a block of non-zero size");

	cmp	QWORD PTR _Ptr$[rbp], 0
	jne	SHORT $LN10@deallocate
	cmp	QWORD PTR _Count$[rbp], 0
	jne	SHORT $LN8@deallocate
$LN10@deallocate:
	jmp	SHORT $LN9@deallocate
$LN8@deallocate:
$LN7@deallocate:
	lea	rax, OFFSET FLAT:??_C@_0DG@KGHKKGBC@null?5pointer?5cannot?5point?5to?5a?5@
	mov	QWORD PTR [rsp+40], rax
	lea	rax, OFFSET FLAT:??_C@_02DKCKIIND@?$CFs@
	mov	QWORD PTR [rsp+32], rax
	xor	r9d, r9d
	mov	r8d, 971				; 000003cbH
	lea	rdx, OFFSET FLAT:??_C@_0GC@MFPFMMDA@C?3?2Program?5Files?2Microsoft?5Visu@
	mov	ecx, 2
	call	QWORD PTR __imp__CrtDbgReport
	cmp	eax, 1
	jne	SHORT $LN12@deallocate
	int	3
	xor	eax, eax
$LN12@deallocate:
	mov	QWORD PTR [rsp+32], 0
	mov	r9d, 971				; 000003cbH
	lea	r8, OFFSET FLAT:??_C@_1ME@HBHJKKLJ@?$AAC?$AA?3?$AA?2?$AAP?$AAr?$AAo?$AAg?$AAr?$AAa?$AAm?$AA?5?$AAF?$AAi?$AAl?$AAe@
	lea	rdx, OFFSET FLAT:??_C@_11LOCGONAA@@
	lea	rcx, OFFSET FLAT:??_C@_1HA@FACCKGGH@?$AA?$CC?$AAn?$AAu?$AAl?$AAl?$AA?5?$AAp?$AAo?$AAi?$AAn?$AAt?$AAe?$AAr?$AA?5?$AAc@
	call	QWORD PTR __imp__invalid_parameter
	xor	eax, eax
	test	eax, eax
	jne	SHORT $LN7@deallocate
$LN9@deallocate:
	xor	eax, eax
	test	eax, eax
	jne	$LN4@deallocate

; 972  :         // no overflow check on the following multiply; we assume _Allocate did that check
; 973  :         _Deallocate<_New_alignof<_Ty>>(_Ptr, sizeof(_Ty) * _Count);

	imul	rax, QWORD PTR _Count$[rbp], 32		; 00000020H
	mov	rdx, rax
	mov	rcx, QWORD PTR _Ptr$[rbp]
	call	??$_Deallocate@$0BA@$0A@@std@@YAXPEAX_K@Z ; std::_Deallocate<16,0>

; 974  :     }

	lea	rsp, QWORD PTR [rbp+200]
	pop	rdi
	pop	rbp
	ret	0
?deallocate@?$allocator@Ufile_task@@@std@@QEAAXQEAUfile_task@@_K@Z ENDP ; std::allocator<file_task>::deallocate
_TEXT	ENDS
; Function compile flags: /Odtp /RTCsu /ZI
;	COMDAT ??_Gfile_task@@QEAAPEAXI@Z
_TEXT	SEGMENT
this$ = 224
__flags$ = 232
??_Gfile_task@@QEAAPEAXI@Z PROC				; file_task::`scalar deleting destructor', COMDAT
$LN4:
	mov	DWORD PTR [rsp+16], edx
	mov	QWORD PTR [rsp+8], rcx
	push	rbp
	push	rdi
	sub	rsp, 232				; 000000e8H
	lea	rbp, QWORD PTR [rsp+32]
	mov	rcx, QWORD PTR this$[rbp]
	call	??1file_task@@QEAA@XZ
	mov	eax, DWORD PTR __flags$[rbp]
	and	eax, 1
	test	eax, eax
	je	SHORT $LN2@scalar
	mov	edx, 32					; 00000020H
	mov	rcx, QWORD PTR this$[rbp]
	call	??3@YAXPEAX_K@Z				; operator delete
$LN2@scalar:
	mov	rax, QWORD PTR this$[rbp]
	lea	rsp, QWORD PTR [rbp+200]
	pop	rdi
	pop	rbp
	ret	0
??_Gfile_task@@QEAAPEAXI@Z ENDP				; file_task::`scalar deleting destructor'
_TEXT	ENDS
; Function compile flags: /Odtp /RTCsu /ZI
;	COMDAT ??1file_task@@QEAA@XZ
_TEXT	SEGMENT
this$ = 224
??1file_task@@QEAA@XZ PROC				; file_task::~file_task, COMDAT
$LN3:
	mov	QWORD PTR [rsp+8], rcx
	push	rbp
	push	rdi
	sub	rsp, 232				; 000000e8H
	lea	rbp, QWORD PTR [rsp+32]
	mov	rax, QWORD PTR this$[rbp]
	mov	rcx, rax
	call	??1?$shared_ptr@V?$basic_ifstream@DU?$char_traits@D@std@@@std@@@std@@QEAA@XZ ; std::shared_ptr<std::basic_ifstream<char,std::char_traits<char> > >::~shared_ptr<std::basic_ifstream<char,std::char_traits<char> > >
	lea	rsp, QWORD PTR [rbp+200]
	pop	rdi
	pop	rbp
	ret	0
??1file_task@@QEAA@XZ ENDP				; file_task::~file_task
_TEXT	ENDS
; Function compile flags: /Odtp /RTCsu /ZI
; File C:\Program Files\Microsoft Visual Studio\2022\Community\VC\Tools\MSVC\14.38.33130\include\memory
;	COMDAT ??1?$shared_ptr@V?$basic_ifstream@DU?$char_traits@D@std@@@std@@@std@@QEAA@XZ
_TEXT	SEGMENT
this$ = 224
??1?$shared_ptr@V?$basic_ifstream@DU?$char_traits@D@std@@@std@@@std@@QEAA@XZ PROC ; std::shared_ptr<std::basic_ifstream<char,std::char_traits<char> > >::~shared_ptr<std::basic_ifstream<char,std::char_traits<char> > >, COMDAT

; 1681 :     ~shared_ptr() noexcept { // release resource

$LN3:
	mov	QWORD PTR [rsp+8], rcx
	push	rbp
	push	rdi
	sub	rsp, 232				; 000000e8H
	lea	rbp, QWORD PTR [rsp+32]
	lea	rcx, OFFSET FLAT:__A092E177_memory
	call	__CheckForDebuggerJustMyCode

; 1682 :         this->_Decref();

	mov	rcx, QWORD PTR this$[rbp]
	call	?_Decref@?$_Ptr_base@V?$basic_ifstream@DU?$char_traits@D@std@@@std@@@std@@IEAAXXZ ; std::_Ptr_base<std::basic_ifstream<char,std::char_traits<char> > >::_Decref

; 1683 :     }

	lea	rsp, QWORD PTR [rbp+200]
	pop	rdi
	pop	rbp
	ret	0
??1?$shared_ptr@V?$basic_ifstream@DU?$char_traits@D@std@@@std@@@std@@QEAA@XZ ENDP ; std::shared_ptr<std::basic_ifstream<char,std::char_traits<char> > >::~shared_ptr<std::basic_ifstream<char,std::char_traits<char> > >
_TEXT	ENDS
; Function compile flags: /Odtp /RTCsu /ZI
; File C:\Program Files\Microsoft Visual Studio\2022\Community\VC\Tools\MSVC\14.38.33130\include\memory
;	COMDAT ?_Decref@?$_Ptr_base@V?$basic_ifstream@DU?$char_traits@D@std@@@std@@@std@@IEAAXXZ
_TEXT	SEGMENT
this$ = 224
?_Decref@?$_Ptr_base@V?$basic_ifstream@DU?$char_traits@D@std@@@std@@@std@@IEAAXXZ PROC ; std::_Ptr_base<std::basic_ifstream<char,std::char_traits<char> > >::_Decref, COMDAT

; 1396 :     void _Decref() noexcept { // decrement reference count

$LN4:
	mov	QWORD PTR [rsp+8], rcx
	push	rbp
	push	rdi
	sub	rsp, 232				; 000000e8H
	lea	rbp, QWORD PTR [rsp+32]
	lea	rcx, OFFSET FLAT:__A092E177_memory
	call	__CheckForDebuggerJustMyCode

; 1397 :         if (_Rep) {

	mov	rax, QWORD PTR this$[rbp]
	cmp	QWORD PTR [rax+8], 0
	je	SHORT $LN2@Decref

; 1398 :             _Rep->_Decref();

	mov	rax, QWORD PTR this$[rbp]
	mov	rcx, QWORD PTR [rax+8]
	call	?_Decref@_Ref_count_base@std@@QEAAXXZ	; std::_Ref_count_base::_Decref
$LN2@Decref:

; 1399 :         }
; 1400 :     }

	lea	rsp, QWORD PTR [rbp+200]
	pop	rdi
	pop	rbp
	ret	0
?_Decref@?$_Ptr_base@V?$basic_ifstream@DU?$char_traits@D@std@@@std@@@std@@IEAAXXZ ENDP ; std::_Ptr_base<std::basic_ifstream<char,std::char_traits<char> > >::_Decref
_TEXT	ENDS
; Function compile flags: /Odtp /RTCsu /ZI
; File C:\Program Files\Microsoft Visual Studio\2022\Community\VC\Tools\MSVC\14.38.33130\include\utility
;	COMDAT ??$max@_K@std@@YAAEB_KAEB_K0@Z
_TEXT	SEGMENT
$T1 = 200
tv65 = 216
_Left$ = 256
_Right$ = 264
??$max@_K@std@@YAAEB_KAEB_K0@Z PROC			; std::max<unsigned __int64>, COMDAT

; 75   :     (max) (const _Ty& _Left, const _Ty& _Right) noexcept(noexcept(_Left < _Right)) /* strengthened */ {

$LN5:
	mov	QWORD PTR [rsp+16], rdx
	mov	QWORD PTR [rsp+8], rcx
	push	rbp
	push	rdi
	sub	rsp, 264				; 00000108H
	lea	rbp, QWORD PTR [rsp+32]
	lea	rcx, OFFSET FLAT:__394B8783_utility
	call	__CheckForDebuggerJustMyCode

; 76   :     // return larger of _Left and _Right
; 77   :     return _Left < _Right ? _Right : _Left;

	mov	rax, QWORD PTR _Left$[rbp]
	mov	rcx, QWORD PTR _Right$[rbp]
	mov	rcx, QWORD PTR [rcx]
	cmp	QWORD PTR [rax], rcx
	jae	SHORT $LN3@max
	mov	rax, QWORD PTR _Right$[rbp]
	mov	QWORD PTR tv65[rbp], rax
	jmp	SHORT $LN4@max
$LN3@max:
	mov	rax, QWORD PTR _Left$[rbp]
	mov	QWORD PTR tv65[rbp], rax
$LN4@max:
	mov	rax, QWORD PTR tv65[rbp]
	mov	QWORD PTR $T1[rbp], rax
	mov	rax, QWORD PTR $T1[rbp]

; 78   : }

	lea	rsp, QWORD PTR [rbp+232]
	pop	rdi
	pop	rbp
	ret	0
??$max@_K@std@@YAAEB_KAEB_K0@Z ENDP			; std::max<unsigned __int64>
_TEXT	ENDS
; Function compile flags: /Odtp /RTCsu /ZI
; File C:\Program Files\Microsoft Visual Studio\2022\Community\VC\Tools\MSVC\14.38.33130\include\xloctime
;	COMDAT ??$_Getvals@_W@?$time_get@_WV?$istreambuf_iterator@_WU?$char_traits@_W@std@@@std@@@std@@IEAAX_WAEBV_Locinfo@1@@Z
_TEXT	SEGMENT
$T1 = 200
tv93 = 264
tv85 = 264
this$ = 304
__formal$ = 312
_Lobj$ = 320
??$_Getvals@_W@?$time_get@_WV?$istreambuf_iterator@_WU?$char_traits@_W@std@@@std@@@std@@IEAAX_WAEBV_Locinfo@1@@Z PROC ; std::time_get<wchar_t,std::istreambuf_iterator<wchar_t,std::char_traits<wchar_t> > >::_Getvals<wchar_t>, COMDAT

; 238  :     void __CLR_OR_THIS_CALL _Getvals(_Elem2, const _Locinfo& _Lobj) { // get values

$LN5:
	mov	QWORD PTR [rsp+24], r8
	mov	WORD PTR [rsp+16], dx
	mov	QWORD PTR [rsp+8], rcx
	push	rbp
	push	rsi
	push	rdi
	sub	rsp, 304				; 00000130H
	lea	rbp, QWORD PTR [rsp+32]
	lea	rcx, OFFSET FLAT:__4A4ED74A_xloctime
	call	__CheckForDebuggerJustMyCode

; 239  :         _Cvt = _Lobj._Getcvt();

	lea	rdx, QWORD PTR $T1[rbp]
	mov	rcx, QWORD PTR _Lobj$[rbp]
	call	QWORD PTR __imp_?_Getcvt@_Locinfo@std@@QEBA?AU_Cvtvec@@XZ
	mov	rcx, QWORD PTR this$[rbp]
	lea	rdi, QWORD PTR [rcx+44]
	mov	rsi, rax
	mov	ecx, 44					; 0000002cH
	rep movsb

; 240  : 
; 241  :         if (is_same_v<_Elem2, wchar_t>) {

	xor	eax, eax
	cmp	eax, 1
	je	SHORT $LN2@Getvals

; 242  :             _Days = reinterpret_cast<const _Elem*>(_Maklocwcs(reinterpret_cast<const wchar_t*>(_Lobj._W_Getdays())));

	mov	rcx, QWORD PTR _Lobj$[rbp]
	call	QWORD PTR __imp_?_W_Getdays@_Locinfo@std@@QEBAPEBGXZ
	mov	rcx, rax
	call	?_Maklocwcs@std@@YAPEA_WPEB_W@Z		; std::_Maklocwcs
	mov	rcx, QWORD PTR this$[rbp]
	mov	QWORD PTR [rcx+16], rax

; 243  :             _Months =

	mov	rcx, QWORD PTR _Lobj$[rbp]
	call	QWORD PTR __imp_?_W_Getmonths@_Locinfo@std@@QEBAPEBGXZ
	mov	rcx, rax
	call	?_Maklocwcs@std@@YAPEA_WPEB_W@Z		; std::_Maklocwcs
	mov	rcx, QWORD PTR this$[rbp]
	mov	QWORD PTR [rcx+24], rax

; 244  :                 reinterpret_cast<const _Elem*>(_Maklocwcs(reinterpret_cast<const wchar_t*>(_Lobj._W_Getmonths())));
; 245  :             _Ampm = reinterpret_cast<const _Elem*>(_Maklocwcs(L":AM:am:PM:pm"));

	lea	rcx, OFFSET FLAT:??_C@_1BK@MHIKGOKE@?$AA?3?$AAA?$AAM?$AA?3?$AAa?$AAm?$AA?3?$AAP?$AAM?$AA?3?$AAp?$AAm@
	call	?_Maklocwcs@std@@YAPEA_WPEB_W@Z		; std::_Maklocwcs
	mov	rcx, QWORD PTR this$[rbp]
	mov	QWORD PTR [rcx+32], rax

; 246  :         } else {

	jmp	$LN3@Getvals
$LN2@Getvals:

; 247  :             _Days   = _Maklocstr(_Lobj._Getdays(), static_cast<_Elem*>(nullptr), _Cvt);

	mov	rax, QWORD PTR this$[rbp]
	add	rax, 44					; 0000002cH
	mov	QWORD PTR tv85[rbp], rax
	mov	rcx, QWORD PTR _Lobj$[rbp]
	call	QWORD PTR __imp_?_Getdays@_Locinfo@std@@QEBAPEBDXZ
	mov	rcx, QWORD PTR tv85[rbp]
	mov	r8, rcx
	xor	edx, edx
	mov	rcx, rax
	call	??$_Maklocstr@_W@std@@YAPEA_WPEBDPEA_WAEBU_Cvtvec@@@Z ; std::_Maklocstr<wchar_t>
	mov	rcx, QWORD PTR this$[rbp]
	mov	QWORD PTR [rcx+16], rax

; 248  :             _Months = _Maklocstr(_Lobj._Getmonths(), static_cast<_Elem*>(nullptr), _Cvt);

	mov	rax, QWORD PTR this$[rbp]
	add	rax, 44					; 0000002cH
	mov	QWORD PTR tv93[rbp], rax
	mov	rcx, QWORD PTR _Lobj$[rbp]
	call	QWORD PTR __imp_?_Getmonths@_Locinfo@std@@QEBAPEBDXZ
	mov	rcx, QWORD PTR tv93[rbp]
	mov	r8, rcx
	xor	edx, edx
	mov	rcx, rax
	call	??$_Maklocstr@_W@std@@YAPEA_WPEBDPEA_WAEBU_Cvtvec@@@Z ; std::_Maklocstr<wchar_t>
	mov	rcx, QWORD PTR this$[rbp]
	mov	QWORD PTR [rcx+24], rax

; 249  :             _Ampm   = _Maklocstr(":AM:am:PM:pm", static_cast<_Elem*>(nullptr), _Cvt);

	mov	rax, QWORD PTR this$[rbp]
	add	rax, 44					; 0000002cH
	mov	r8, rax
	xor	edx, edx
	lea	rcx, OFFSET FLAT:??_C@_0N@LPFKKEBD@?3AM?3am?3PM?3pm@
	call	??$_Maklocstr@_W@std@@YAPEA_WPEBDPEA_WAEBU_Cvtvec@@@Z ; std::_Maklocstr<wchar_t>
	mov	rcx, QWORD PTR this$[rbp]
	mov	QWORD PTR [rcx+32], rax
$LN3@Getvals:

; 250  :         }
; 251  :     }

	lea	rsp, QWORD PTR [rbp+272]
	pop	rdi
	pop	rsi
	pop	rbp
	ret	0
??$_Getvals@_W@?$time_get@_WV?$istreambuf_iterator@_WU?$char_traits@_W@std@@@std@@@std@@IEAAX_WAEBV_Locinfo@1@@Z ENDP ; std::time_get<wchar_t,std::istreambuf_iterator<wchar_t,std::char_traits<wchar_t> > >::_Getvals<wchar_t>
_TEXT	ENDS
; Function compile flags: /Odtp /RTCsu /ZI
; File C:\Program Files\Microsoft Visual Studio\2022\Community\VC\Tools\MSVC\14.38.33130\include\xloctime
;	COMDAT ??$_Getvals@_W@?$time_get@DV?$istreambuf_iterator@DU?$char_traits@D@std@@@std@@@std@@IEAAX_WAEBV_Locinfo@1@@Z
_TEXT	SEGMENT
$T1 = 200
tv93 = 264
tv85 = 264
this$ = 304
__formal$ = 312
_Lobj$ = 320
??$_Getvals@_W@?$time_get@DV?$istreambuf_iterator@DU?$char_traits@D@std@@@std@@@std@@IEAAX_WAEBV_Locinfo@1@@Z PROC ; std::time_get<char,std::istreambuf_iterator<char,std::char_traits<char> > >::_Getvals<wchar_t>, COMDAT

; 238  :     void __CLR_OR_THIS_CALL _Getvals(_Elem2, const _Locinfo& _Lobj) { // get values

$LN5:
	mov	QWORD PTR [rsp+24], r8
	mov	WORD PTR [rsp+16], dx
	mov	QWORD PTR [rsp+8], rcx
	push	rbp
	push	rsi
	push	rdi
	sub	rsp, 304				; 00000130H
	lea	rbp, QWORD PTR [rsp+32]
	lea	rcx, OFFSET FLAT:__4A4ED74A_xloctime
	call	__CheckForDebuggerJustMyCode

; 239  :         _Cvt = _Lobj._Getcvt();

	lea	rdx, QWORD PTR $T1[rbp]
	mov	rcx, QWORD PTR _Lobj$[rbp]
	call	QWORD PTR __imp_?_Getcvt@_Locinfo@std@@QEBA?AU_Cvtvec@@XZ
	mov	rcx, QWORD PTR this$[rbp]
	lea	rdi, QWORD PTR [rcx+44]
	mov	rsi, rax
	mov	ecx, 44					; 0000002cH
	rep movsb

; 240  : 
; 241  :         if (is_same_v<_Elem2, wchar_t>) {

	xor	eax, eax
	cmp	eax, 1
	je	SHORT $LN2@Getvals

; 242  :             _Days = reinterpret_cast<const _Elem*>(_Maklocwcs(reinterpret_cast<const wchar_t*>(_Lobj._W_Getdays())));

	mov	rcx, QWORD PTR _Lobj$[rbp]
	call	QWORD PTR __imp_?_W_Getdays@_Locinfo@std@@QEBAPEBGXZ
	mov	rcx, rax
	call	?_Maklocwcs@std@@YAPEA_WPEB_W@Z		; std::_Maklocwcs
	mov	rcx, QWORD PTR this$[rbp]
	mov	QWORD PTR [rcx+16], rax

; 243  :             _Months =

	mov	rcx, QWORD PTR _Lobj$[rbp]
	call	QWORD PTR __imp_?_W_Getmonths@_Locinfo@std@@QEBAPEBGXZ
	mov	rcx, rax
	call	?_Maklocwcs@std@@YAPEA_WPEB_W@Z		; std::_Maklocwcs
	mov	rcx, QWORD PTR this$[rbp]
	mov	QWORD PTR [rcx+24], rax

; 244  :                 reinterpret_cast<const _Elem*>(_Maklocwcs(reinterpret_cast<const wchar_t*>(_Lobj._W_Getmonths())));
; 245  :             _Ampm = reinterpret_cast<const _Elem*>(_Maklocwcs(L":AM:am:PM:pm"));

	lea	rcx, OFFSET FLAT:??_C@_1BK@MHIKGOKE@?$AA?3?$AAA?$AAM?$AA?3?$AAa?$AAm?$AA?3?$AAP?$AAM?$AA?3?$AAp?$AAm@
	call	?_Maklocwcs@std@@YAPEA_WPEB_W@Z		; std::_Maklocwcs
	mov	rcx, QWORD PTR this$[rbp]
	mov	QWORD PTR [rcx+32], rax

; 246  :         } else {

	jmp	$LN3@Getvals
$LN2@Getvals:

; 247  :             _Days   = _Maklocstr(_Lobj._Getdays(), static_cast<_Elem*>(nullptr), _Cvt);

	mov	rax, QWORD PTR this$[rbp]
	add	rax, 44					; 0000002cH
	mov	QWORD PTR tv85[rbp], rax
	mov	rcx, QWORD PTR _Lobj$[rbp]
	call	QWORD PTR __imp_?_Getdays@_Locinfo@std@@QEBAPEBDXZ
	mov	rcx, QWORD PTR tv85[rbp]
	mov	r8, rcx
	xor	edx, edx
	mov	rcx, rax
	call	??$_Maklocstr@D@std@@YAPEADPEBDPEADAEBU_Cvtvec@@@Z ; std::_Maklocstr<char>
	mov	rcx, QWORD PTR this$[rbp]
	mov	QWORD PTR [rcx+16], rax

; 248  :             _Months = _Maklocstr(_Lobj._Getmonths(), static_cast<_Elem*>(nullptr), _Cvt);

	mov	rax, QWORD PTR this$[rbp]
	add	rax, 44					; 0000002cH
	mov	QWORD PTR tv93[rbp], rax
	mov	rcx, QWORD PTR _Lobj$[rbp]
	call	QWORD PTR __imp_?_Getmonths@_Locinfo@std@@QEBAPEBDXZ
	mov	rcx, QWORD PTR tv93[rbp]
	mov	r8, rcx
	xor	edx, edx
	mov	rcx, rax
	call	??$_Maklocstr@D@std@@YAPEADPEBDPEADAEBU_Cvtvec@@@Z ; std::_Maklocstr<char>
	mov	rcx, QWORD PTR this$[rbp]
	mov	QWORD PTR [rcx+24], rax

; 249  :             _Ampm   = _Maklocstr(":AM:am:PM:pm", static_cast<_Elem*>(nullptr), _Cvt);

	mov	rax, QWORD PTR this$[rbp]
	add	rax, 44					; 0000002cH
	mov	r8, rax
	xor	edx, edx
	lea	rcx, OFFSET FLAT:??_C@_0N@LPFKKEBD@?3AM?3am?3PM?3pm@
	call	??$_Maklocstr@D@std@@YAPEADPEBDPEADAEBU_Cvtvec@@@Z ; std::_Maklocstr<char>
	mov	rcx, QWORD PTR this$[rbp]
	mov	QWORD PTR [rcx+32], rax
$LN3@Getvals:

; 250  :         }
; 251  :     }

	lea	rsp, QWORD PTR [rbp+272]
	pop	rdi
	pop	rsi
	pop	rbp
	ret	0
??$_Getvals@_W@?$time_get@DV?$istreambuf_iterator@DU?$char_traits@D@std@@@std@@@std@@IEAAX_WAEBV_Locinfo@1@@Z ENDP ; std::time_get<char,std::istreambuf_iterator<char,std::char_traits<char> > >::_Getvals<wchar_t>
_TEXT	ENDS
; Function compile flags: /Odtp /RTCsu /ZI
; File C:\Program Files\Microsoft Visual Studio\2022\Community\VC\Tools\MSVC\14.38.33130\include\__msvc_chrono.hpp
;	COMDAT ??$?0N$0A@@?$duration@NU?$ratio@$00$00@std@@@chrono@std@@QEAA@AEBN@Z
_TEXT	SEGMENT
this$ = 224
_Val$ = 232
??$?0N$0A@@?$duration@NU?$ratio@$00$00@std@@@chrono@std@@QEAA@AEBN@Z PROC ; std::chrono::duration<double,std::ratio<1,1> >::duration<double,std::ratio<1,1> ><double,0>, COMDAT

; 98   :             : _MyRep(static_cast<_Rep>(_Val)) {}

$LN3:
	mov	QWORD PTR [rsp+16], rdx
	mov	QWORD PTR [rsp+8], rcx
	push	rbp
	push	rdi
	sub	rsp, 232				; 000000e8H
	lea	rbp, QWORD PTR [rsp+32]
	lea	rcx, OFFSET FLAT:__368A71EB___msvc_chrono@hpp
	call	__CheckForDebuggerJustMyCode
	mov	rax, QWORD PTR this$[rbp]
	mov	rcx, QWORD PTR _Val$[rbp]
	movsd	xmm0, QWORD PTR [rcx]
	movsd	QWORD PTR [rax], xmm0
	mov	rax, QWORD PTR this$[rbp]
	lea	rsp, QWORD PTR [rbp+200]
	pop	rdi
	pop	rbp
	ret	0
??$?0N$0A@@?$duration@NU?$ratio@$00$00@std@@@chrono@std@@QEAA@AEBN@Z ENDP ; std::chrono::duration<double,std::ratio<1,1> >::duration<double,std::ratio<1,1> ><double,0>
_TEXT	ENDS
; Function compile flags: /Odtp /RTCsu /ZI
; File C:\Program Files\Microsoft Visual Studio\2022\Community\VC\Tools\MSVC\14.38.33130\include\__msvc_chrono.hpp
;	COMDAT ??$duration_cast@V?$duration@NU?$ratio@$00$00@std@@@chrono@std@@_JU?$ratio@$00$0DLJKMKAA@@3@$0A@@chrono@std@@YA?AV?$duration@NU?$ratio@$00$00@std@@@01@AEBV?$duration@_JU?$ratio@$00$0DLJKMKAA@@std@@@01@@Z
_TEXT	SEGMENT
_Num_is_one$ = 4
_Den_is_one$ = 36
$T1 = 264
__$ReturnUdt$ = 320
_Dur$ = 328
??$duration_cast@V?$duration@NU?$ratio@$00$00@std@@@chrono@std@@_JU?$ratio@$00$0DLJKMKAA@@3@$0A@@chrono@std@@YA?AV?$duration@NU?$ratio@$00$00@std@@@01@AEBV?$duration@_JU?$ratio@$00$0DLJKMKAA@@std@@@01@@Z PROC ; std::chrono::duration_cast<std::chrono::duration<double,std::ratio<1,1> >,__int64,std::ratio<1,1000000000>,0>, COMDAT

; 421  :         is_arithmetic_v<_Rep>&& is_arithmetic_v<typename _To::rep>) /* strengthened */ {

$LN3:
	mov	QWORD PTR [rsp+16], rdx
	mov	QWORD PTR [rsp+8], rcx
	push	rbp
	push	rdi
	sub	rsp, 328				; 00000148H
	lea	rbp, QWORD PTR [rsp+32]
	lea	rcx, OFFSET FLAT:__368A71EB___msvc_chrono@hpp
	call	__CheckForDebuggerJustMyCode

; 422  :         // convert duration to another duration; truncate
; 423  :         using _CF = ratio_divide<_Period, typename _To::period>;
; 424  : 
; 425  :         using _ToRep = typename _To::rep;
; 426  :         using _CR    = common_type_t<_ToRep, _Rep, intmax_t>;
; 427  : 
; 428  :         constexpr bool _Num_is_one = _CF::num == 1;

	mov	BYTE PTR _Num_is_one$[rbp], 1

; 429  :         constexpr bool _Den_is_one = _CF::den == 1;

	mov	BYTE PTR _Den_is_one$[rbp], 0

; 430  : 
; 431  :         if constexpr (_Den_is_one) {
; 432  :             if constexpr (_Num_is_one) {
; 433  :                 return static_cast<_To>(static_cast<_ToRep>(_Dur.count()));
; 434  :             } else {
; 435  :                 return static_cast<_To>(
; 436  :                     static_cast<_ToRep>(static_cast<_CR>(_Dur.count()) * static_cast<_CR>(_CF::num)));
; 437  :             }
; 438  :         } else {
; 439  :             if constexpr (_Num_is_one) {
; 440  :                 return static_cast<_To>(

	mov	rcx, QWORD PTR _Dur$[rbp]
	call	?count@?$duration@_JU?$ratio@$00$0DLJKMKAA@@std@@@chrono@std@@QEBA_JXZ ; std::chrono::duration<__int64,std::ratio<1,1000000000> >::count
	cvtsi2sd xmm0, rax
	divsd	xmm0, QWORD PTR __real@41cdcd6500000000
	movsd	QWORD PTR $T1[rbp], xmm0
	lea	rdx, QWORD PTR $T1[rbp]
	mov	rcx, QWORD PTR __$ReturnUdt$[rbp]
	call	??$?0N$0A@@?$duration@NU?$ratio@$00$00@std@@@chrono@std@@QEAA@AEBN@Z ; std::chrono::duration<double,std::ratio<1,1> >::duration<double,std::ratio<1,1> ><double,0>
	mov	rax, QWORD PTR __$ReturnUdt$[rbp]

; 441  :                     static_cast<_ToRep>(static_cast<_CR>(_Dur.count()) / static_cast<_CR>(_CF::den)));
; 442  :             } else {
; 443  :                 return static_cast<_To>(static_cast<_ToRep>(
; 444  :                     static_cast<_CR>(_Dur.count()) * static_cast<_CR>(_CF::num) / static_cast<_CR>(_CF::den)));
; 445  :             }
; 446  :         }
; 447  :     }

	lea	rsp, QWORD PTR [rbp+296]
	pop	rdi
	pop	rbp
	ret	0
??$duration_cast@V?$duration@NU?$ratio@$00$00@std@@@chrono@std@@_JU?$ratio@$00$0DLJKMKAA@@3@$0A@@chrono@std@@YA?AV?$duration@NU?$ratio@$00$00@std@@@01@AEBV?$duration@_JU?$ratio@$00$0DLJKMKAA@@std@@@01@@Z ENDP ; std::chrono::duration_cast<std::chrono::duration<double,std::ratio<1,1> >,__int64,std::ratio<1,1000000000>,0>
_TEXT	ENDS
; Function compile flags: /Odtp /RTCsu /ZI
; File C:\Program Files\Microsoft Visual Studio\2022\Community\VC\Tools\MSVC\14.38.33130\include\__msvc_chrono.hpp
;	COMDAT ??$?0_JU?$ratio@$00$0DLJKMKAA@@std@@$0A@@?$duration@NU?$ratio@$00$00@std@@@chrono@std@@QEAA@AEBV?$duration@_JU?$ratio@$00$0DLJKMKAA@@std@@@12@@Z
_TEXT	SEGMENT
$T1 = 200
this$ = 256
_Dur$ = 264
??$?0_JU?$ratio@$00$0DLJKMKAA@@std@@$0A@@?$duration@NU?$ratio@$00$00@std@@@chrono@std@@QEAA@AEBV?$duration@_JU?$ratio@$00$0DLJKMKAA@@std@@@12@@Z PROC ; std::chrono::duration<double,std::ratio<1,1> >::duration<double,std::ratio<1,1> ><__int64,std::ratio<1,1000000000>,0>, COMDAT

; 106  :             : _MyRep(_CHRONO duration_cast<duration>(_Dur).count()) {}

$LN3:
	mov	QWORD PTR [rsp+16], rdx
	mov	QWORD PTR [rsp+8], rcx
	push	rbp
	push	rdi
	sub	rsp, 264				; 00000108H
	lea	rbp, QWORD PTR [rsp+32]
	lea	rcx, OFFSET FLAT:__368A71EB___msvc_chrono@hpp
	call	__CheckForDebuggerJustMyCode
	mov	rdx, QWORD PTR _Dur$[rbp]
	lea	rcx, QWORD PTR $T1[rbp]
	call	??$duration_cast@V?$duration@NU?$ratio@$00$00@std@@@chrono@std@@_JU?$ratio@$00$0DLJKMKAA@@3@$0A@@chrono@std@@YA?AV?$duration@NU?$ratio@$00$00@std@@@01@AEBV?$duration@_JU?$ratio@$00$0DLJKMKAA@@std@@@01@@Z ; std::chrono::duration_cast<std::chrono::duration<double,std::ratio<1,1> >,__int64,std::ratio<1,1000000000>,0>
	mov	rcx, rax
	call	?count@?$duration@NU?$ratio@$00$00@std@@@chrono@std@@QEBANXZ ; std::chrono::duration<double,std::ratio<1,1> >::count
	mov	rax, QWORD PTR this$[rbp]
	movsd	QWORD PTR [rax], xmm0
	mov	rax, QWORD PTR this$[rbp]
	lea	rsp, QWORD PTR [rbp+232]
	pop	rdi
	pop	rbp
	ret	0
??$?0_JU?$ratio@$00$0DLJKMKAA@@std@@$0A@@?$duration@NU?$ratio@$00$00@std@@@chrono@std@@QEAA@AEBV?$duration@_JU?$ratio@$00$0DLJKMKAA@@std@@@12@@Z ENDP ; std::chrono::duration<double,std::ratio<1,1> >::duration<double,std::ratio<1,1> ><__int64,std::ratio<1,1000000000>,0>
_TEXT	ENDS
; Function compile flags: /Odtp /RTCsu /ZI
; File C:\Program Files\Microsoft Visual Studio\2022\Community\VC\Tools\MSVC\14.38.33130\include\__msvc_chrono.hpp
;	COMDAT ?count@?$duration@NU?$ratio@$00$00@std@@@chrono@std@@QEBANXZ
_TEXT	SEGMENT
this$ = 224
?count@?$duration@NU?$ratio@$00$00@std@@@chrono@std@@QEBANXZ PROC ; std::chrono::duration<double,std::ratio<1,1> >::count, COMDAT

; 108  :         _NODISCARD constexpr _Rep count() const noexcept(is_arithmetic_v<_Rep>) /* strengthened */ {

$LN3:
	mov	QWORD PTR [rsp+8], rcx
	push	rbp
	push	rdi
	sub	rsp, 248				; 000000f8H
	lea	rbp, QWORD PTR [rsp+48]
	lea	rcx, OFFSET FLAT:__368A71EB___msvc_chrono@hpp
	call	__CheckForDebuggerJustMyCode

; 109  :             return _MyRep;

	mov	rax, QWORD PTR this$[rbp]
	movsd	xmm0, QWORD PTR [rax]

; 110  :         }

	lea	rsp, QWORD PTR [rbp+200]
	pop	rdi
	pop	rbp
	ret	0
?count@?$duration@NU?$ratio@$00$00@std@@@chrono@std@@QEBANXZ ENDP ; std::chrono::duration<double,std::ratio<1,1> >::count
_TEXT	ENDS
; Function compile flags: /Odtp /RTCsu /ZI
; File C:\Program Files\Microsoft Visual Studio\2022\Community\VC\Tools\MSVC\14.38.33130\include\__msvc_chrono.hpp
;	COMDAT ??$?0_J$0A@@?$duration@_JU?$ratio@$00$0DLJKMKAA@@std@@@chrono@std@@QEAA@AEB_J@Z
_TEXT	SEGMENT
this$ = 224
_Val$ = 232
??$?0_J$0A@@?$duration@_JU?$ratio@$00$0DLJKMKAA@@std@@@chrono@std@@QEAA@AEB_J@Z PROC ; std::chrono::duration<__int64,std::ratio<1,1000000000> >::duration<__int64,std::ratio<1,1000000000> ><__int64,0>, COMDAT

; 98   :             : _MyRep(static_cast<_Rep>(_Val)) {}

$LN3:
	mov	QWORD PTR [rsp+16], rdx
	mov	QWORD PTR [rsp+8], rcx
	push	rbp
	push	rdi
	sub	rsp, 232				; 000000e8H
	lea	rbp, QWORD PTR [rsp+32]
	lea	rcx, OFFSET FLAT:__368A71EB___msvc_chrono@hpp
	call	__CheckForDebuggerJustMyCode
	mov	rax, QWORD PTR this$[rbp]
	mov	rcx, QWORD PTR _Val$[rbp]
	mov	rcx, QWORD PTR [rcx]
	mov	QWORD PTR [rax], rcx
	mov	rax, QWORD PTR this$[rbp]
	lea	rsp, QWORD PTR [rbp+200]
	pop	rdi
	pop	rbp
	ret	0
??$?0_J$0A@@?$duration@_JU?$ratio@$00$0DLJKMKAA@@std@@@chrono@std@@QEAA@AEB_J@Z ENDP ; std::chrono::duration<__int64,std::ratio<1,1000000000> >::duration<__int64,std::ratio<1,1000000000> ><__int64,0>
_TEXT	ENDS
; Function compile flags: /Odtp /RTCsu /ZI
; File C:\Program Files\Microsoft Visual Studio\2022\Community\VC\Tools\MSVC\14.38.33130\include\__msvc_chrono.hpp
;	COMDAT ?time_since_epoch@?$time_point@Usteady_clock@chrono@std@@V?$duration@_JU?$ratio@$00$0DLJKMKAA@@std@@@23@@chrono@std@@QEBA?AV?$duration@_JU?$ratio@$00$0DLJKMKAA@@std@@@23@XZ
_TEXT	SEGMENT
this$ = 224
__$ReturnUdt$ = 232
?time_since_epoch@?$time_point@Usteady_clock@chrono@std@@V?$duration@_JU?$ratio@$00$0DLJKMKAA@@std@@@23@@chrono@std@@QEBA?AV?$duration@_JU?$ratio@$00$0DLJKMKAA@@std@@@23@XZ PROC ; std::chrono::time_point<std::chrono::steady_clock,std::chrono::duration<__int64,std::ratio<1,1000000000> > >::time_since_epoch, COMDAT

; 210  :         _NODISCARD constexpr _Duration time_since_epoch() const noexcept(is_arithmetic_v<rep>) /* strengthened */ {

$LN3:
	mov	QWORD PTR [rsp+16], rdx
	mov	QWORD PTR [rsp+8], rcx
	push	rbp
	push	rdi
	sub	rsp, 232				; 000000e8H
	lea	rbp, QWORD PTR [rsp+32]
	lea	rcx, OFFSET FLAT:__368A71EB___msvc_chrono@hpp
	call	__CheckForDebuggerJustMyCode

; 211  :             return _MyDur;

	mov	rax, QWORD PTR this$[rbp]
	mov	rax, QWORD PTR [rax]
	mov	rcx, QWORD PTR __$ReturnUdt$[rbp]
	mov	QWORD PTR [rcx], rax
	mov	rax, QWORD PTR __$ReturnUdt$[rbp]

; 212  :         }

	lea	rsp, QWORD PTR [rbp+200]
	pop	rdi
	pop	rbp
	ret	0
?time_since_epoch@?$time_point@Usteady_clock@chrono@std@@V?$duration@_JU?$ratio@$00$0DLJKMKAA@@std@@@23@@chrono@std@@QEBA?AV?$duration@_JU?$ratio@$00$0DLJKMKAA@@std@@@23@XZ ENDP ; std::chrono::time_point<std::chrono::steady_clock,std::chrono::duration<__int64,std::ratio<1,1000000000> > >::time_since_epoch
_TEXT	ENDS
; Function compile flags: /Odtp /RTCsu /ZI
; File C:\Program Files\Microsoft Visual Studio\2022\Community\VC\Tools\MSVC\14.38.33130\include\__msvc_chrono.hpp
;	COMDAT ??0?$time_point@Usteady_clock@chrono@std@@V?$duration@_JU?$ratio@$00$0DLJKMKAA@@std@@@23@@chrono@std@@QEAA@AEBV?$duration@_JU?$ratio@$00$0DLJKMKAA@@std@@@12@@Z
_TEXT	SEGMENT
this$ = 224
_Other$ = 232
??0?$time_point@Usteady_clock@chrono@std@@V?$duration@_JU?$ratio@$00$0DLJKMKAA@@std@@@23@@chrono@std@@QEAA@AEBV?$duration@_JU?$ratio@$00$0DLJKMKAA@@std@@@12@@Z PROC ; std::chrono::time_point<std::chrono::steady_clock,std::chrono::duration<__int64,std::ratio<1,1000000000> > >::time_point<std::chrono::steady_clock,std::chrono::duration<__int64,std::ratio<1,1000000000> > >, COMDAT

; 202  :         constexpr explicit time_point(const _Duration& _Other) noexcept(is_arithmetic_v<rep>) // strengthened

$LN3:
	mov	QWORD PTR [rsp+16], rdx
	mov	QWORD PTR [rsp+8], rcx
	push	rbp
	push	rdi
	sub	rsp, 232				; 000000e8H
	lea	rbp, QWORD PTR [rsp+32]
	lea	rcx, OFFSET FLAT:__368A71EB___msvc_chrono@hpp
	call	__CheckForDebuggerJustMyCode

; 203  :             : _MyDur(_Other) {}

	mov	rax, QWORD PTR _Other$[rbp]
	mov	rax, QWORD PTR [rax]
	mov	rcx, QWORD PTR this$[rbp]
	mov	QWORD PTR [rcx], rax
	mov	rax, QWORD PTR this$[rbp]
	lea	rsp, QWORD PTR [rbp+200]
	pop	rdi
	pop	rbp
	ret	0
??0?$time_point@Usteady_clock@chrono@std@@V?$duration@_JU?$ratio@$00$0DLJKMKAA@@std@@@23@@chrono@std@@QEAA@AEBV?$duration@_JU?$ratio@$00$0DLJKMKAA@@std@@@12@@Z ENDP ; std::chrono::time_point<std::chrono::steady_clock,std::chrono::duration<__int64,std::ratio<1,1000000000> > >::time_point<std::chrono::steady_clock,std::chrono::duration<__int64,std::ratio<1,1000000000> > >
_TEXT	ENDS
; Function compile flags: /Odtp /RTCsu /ZI
; File C:\Program Files\Microsoft Visual Studio\2022\Community\VC\Tools\MSVC\14.38.33130\include\__msvc_chrono.hpp
;	COMDAT ?count@?$duration@_JU?$ratio@$00$0DLJKMKAA@@std@@@chrono@std@@QEBA_JXZ
_TEXT	SEGMENT
this$ = 224
?count@?$duration@_JU?$ratio@$00$0DLJKMKAA@@std@@@chrono@std@@QEBA_JXZ PROC ; std::chrono::duration<__int64,std::ratio<1,1000000000> >::count, COMDAT

; 108  :         _NODISCARD constexpr _Rep count() const noexcept(is_arithmetic_v<_Rep>) /* strengthened */ {

$LN3:
	mov	QWORD PTR [rsp+8], rcx
	push	rbp
	push	rdi
	sub	rsp, 232				; 000000e8H
	lea	rbp, QWORD PTR [rsp+32]
	lea	rcx, OFFSET FLAT:__368A71EB___msvc_chrono@hpp
	call	__CheckForDebuggerJustMyCode

; 109  :             return _MyRep;

	mov	rax, QWORD PTR this$[rbp]
	mov	rax, QWORD PTR [rax]

; 110  :         }

	lea	rsp, QWORD PTR [rbp+200]
	pop	rdi
	pop	rbp
	ret	0
?count@?$duration@_JU?$ratio@$00$0DLJKMKAA@@std@@@chrono@std@@QEBA_JXZ ENDP ; std::chrono::duration<__int64,std::ratio<1,1000000000> >::count
_TEXT	ENDS
; Function compile flags: /Odtp /RTCsu /ZI
; File C:\Program Files\Microsoft Visual Studio\2022\Community\VC\Tools\MSVC\14.38.33130\include\__msvc_chrono.hpp
;	COMDAT ?now@steady_clock@chrono@std@@SA?AV?$time_point@Usteady_clock@chrono@std@@V?$duration@_JU?$ratio@$00$0DLJKMKAA@@std@@@23@@23@XZ
_TEXT	SEGMENT
_Freq$ = 8
_Ctr$ = 40
_TenMHz$ = 72
_TwentyFourMHz$ = 104
_Multiplier$1 = 136
_Whole$2 = 168
_Part$3 = 200
_Whole$4 = 232
_Part$5 = 264
$T6 = 488
$T7 = 520
$T8 = 552
$T9 = 584
$T10 = 616
$T11 = 648
__$ReturnUdt$ = 704
?now@steady_clock@chrono@std@@SA?AV?$time_point@Usteady_clock@chrono@std@@V?$duration@_JU?$ratio@$00$0DLJKMKAA@@std@@@23@@23@XZ PROC ; std::chrono::steady_clock::now, COMDAT

; 678  :         _NODISCARD static time_point now() noexcept { // get current time

$LN7:
	mov	QWORD PTR [rsp+8], rcx
	push	rbp
	push	rdi
	sub	rsp, 712				; 000002c8H
	lea	rbp, QWORD PTR [rsp+32]
	lea	rcx, OFFSET FLAT:__368A71EB___msvc_chrono@hpp
	call	__CheckForDebuggerJustMyCode

; 679  :             const long long _Freq = _Query_perf_frequency(); // doesn't change after system boot

	call	_Query_perf_frequency
	mov	QWORD PTR _Freq$[rbp], rax

; 680  :             const long long _Ctr  = _Query_perf_counter();

	call	_Query_perf_counter
	mov	QWORD PTR _Ctr$[rbp], rax

; 681  :             static_assert(period::num == 1, "This assumes period::num == 1.");
; 682  :             // The compiler recognizes the constants for frequency and time period and uses shifts and
; 683  :             // multiplies instead of divides to calculate the nanosecond value.
; 684  :             constexpr long long _TenMHz        = 10'000'000;

	mov	QWORD PTR _TenMHz$[rbp], 10000000	; 00989680H

; 685  :             constexpr long long _TwentyFourMHz = 24'000'000;

	mov	QWORD PTR _TwentyFourMHz$[rbp], 24000000 ; 016e3600H

; 686  :             // clang-format off
; 687  :             if (_Freq == _TenMHz) _LIKELY_X86_X64 {

	cmp	QWORD PTR _Freq$[rbp], 10000000		; 00989680H
	jne	SHORT $LN2@now

; 688  :                 // 10 MHz is a very common QPC frequency on modern x86/x64 PCs. Optimizing for
; 689  :                 // this specific frequency can double the performance of this function by
; 690  :                 // avoiding the expensive frequency conversion path.
; 691  :                 static_assert(period::den % _TenMHz == 0, "It should never fail.");
; 692  :                 constexpr long long _Multiplier = period::den / _TenMHz;

	mov	QWORD PTR _Multiplier$1[rbp], 100	; 00000064H

; 693  :                 return time_point(duration(_Ctr * _Multiplier));

	imul	rax, QWORD PTR _Ctr$[rbp], 100		; 00000064H
	mov	QWORD PTR $T7[rbp], rax
	lea	rdx, QWORD PTR $T7[rbp]
	lea	rcx, QWORD PTR $T6[rbp]
	call	??$?0_J$0A@@?$duration@_JU?$ratio@$00$0DLJKMKAA@@std@@@chrono@std@@QEAA@AEB_J@Z ; std::chrono::duration<__int64,std::ratio<1,1000000000> >::duration<__int64,std::ratio<1,1000000000> ><__int64,0>
	mov	rdx, rax
	mov	rcx, QWORD PTR __$ReturnUdt$[rbp]
	call	??0?$time_point@Usteady_clock@chrono@std@@V?$duration@_JU?$ratio@$00$0DLJKMKAA@@std@@@23@@chrono@std@@QEAA@AEBV?$duration@_JU?$ratio@$00$0DLJKMKAA@@std@@@12@@Z ; std::chrono::time_point<std::chrono::steady_clock,std::chrono::duration<__int64,std::ratio<1,1000000000> > >::time_point<std::chrono::steady_clock,std::chrono::duration<__int64,std::ratio<1,1000000000> > >
	mov	rax, QWORD PTR __$ReturnUdt$[rbp]
	jmp	$LN1@now
	jmp	$LN1@now
$LN2@now:

; 694  :             } else if (_Freq == _TwentyFourMHz) _LIKELY_ARM_ARM64 {

	cmp	QWORD PTR _Freq$[rbp], 24000000		; 016e3600H
	jne	$LN4@now

; 695  :                 // 24 MHz is a common frequency on ARM/ARM64, including cases where it emulates x86/x64.
; 696  :                 const long long _Whole = (_Ctr / _TwentyFourMHz) * period::den;

	mov	rax, QWORD PTR _Ctr$[rbp]
	cdq
	mov	ecx, 24000000				; 016e3600H
	idiv	rcx
	imul	rax, rax, 1000000000			; 3b9aca00H
	mov	QWORD PTR _Whole$2[rbp], rax

; 697  :                 const long long _Part  = (_Ctr % _TwentyFourMHz) * period::den / _TwentyFourMHz;

	mov	rax, QWORD PTR _Ctr$[rbp]
	cdq
	mov	ecx, 24000000				; 016e3600H
	idiv	rcx
	mov	rax, rdx
	imul	rax, rax, 1000000000			; 3b9aca00H
	cdq
	mov	ecx, 24000000				; 016e3600H
	idiv	rcx
	mov	QWORD PTR _Part$3[rbp], rax

; 698  :                 return time_point(duration(_Whole + _Part));

	mov	rax, QWORD PTR _Part$3[rbp]
	mov	rcx, QWORD PTR _Whole$2[rbp]
	add	rcx, rax
	mov	rax, rcx
	mov	QWORD PTR $T9[rbp], rax
	lea	rdx, QWORD PTR $T9[rbp]
	lea	rcx, QWORD PTR $T8[rbp]
	call	??$?0_J$0A@@?$duration@_JU?$ratio@$00$0DLJKMKAA@@std@@@chrono@std@@QEAA@AEB_J@Z ; std::chrono::duration<__int64,std::ratio<1,1000000000> >::duration<__int64,std::ratio<1,1000000000> ><__int64,0>
	mov	rdx, rax
	mov	rcx, QWORD PTR __$ReturnUdt$[rbp]
	call	??0?$time_point@Usteady_clock@chrono@std@@V?$duration@_JU?$ratio@$00$0DLJKMKAA@@std@@@23@@chrono@std@@QEAA@AEBV?$duration@_JU?$ratio@$00$0DLJKMKAA@@std@@@12@@Z ; std::chrono::time_point<std::chrono::steady_clock,std::chrono::duration<__int64,std::ratio<1,1000000000> > >::time_point<std::chrono::steady_clock,std::chrono::duration<__int64,std::ratio<1,1000000000> > >
	mov	rax, QWORD PTR __$ReturnUdt$[rbp]
	jmp	SHORT $LN1@now

; 699  :             } else {

	jmp	SHORT $LN1@now
$LN4@now:

; 700  :                 // Instead of just having "(_Ctr * period::den) / _Freq",
; 701  :                 // the algorithm below prevents overflow when _Ctr is sufficiently large.
; 702  :                 // It assumes that _Freq * period::den does not overflow, which is currently true for nano period.
; 703  :                 // It is not realistic for _Ctr to accumulate to large values from zero with this assumption,
; 704  :                 // but the initial value of _Ctr could be large.
; 705  :                 const long long _Whole = (_Ctr / _Freq) * period::den;

	mov	rax, QWORD PTR _Ctr$[rbp]
	cdq
	idiv	QWORD PTR _Freq$[rbp]
	imul	rax, rax, 1000000000			; 3b9aca00H
	mov	QWORD PTR _Whole$4[rbp], rax

; 706  :                 const long long _Part  = (_Ctr % _Freq) * period::den / _Freq;

	mov	rax, QWORD PTR _Ctr$[rbp]
	cdq
	idiv	QWORD PTR _Freq$[rbp]
	mov	rax, rdx
	imul	rax, rax, 1000000000			; 3b9aca00H
	cdq
	idiv	QWORD PTR _Freq$[rbp]
	mov	QWORD PTR _Part$5[rbp], rax

; 707  :                 return time_point(duration(_Whole + _Part));

	mov	rax, QWORD PTR _Part$5[rbp]
	mov	rcx, QWORD PTR _Whole$4[rbp]
	add	rcx, rax
	mov	rax, rcx
	mov	QWORD PTR $T11[rbp], rax
	lea	rdx, QWORD PTR $T11[rbp]
	lea	rcx, QWORD PTR $T10[rbp]
	call	??$?0_J$0A@@?$duration@_JU?$ratio@$00$0DLJKMKAA@@std@@@chrono@std@@QEAA@AEB_J@Z ; std::chrono::duration<__int64,std::ratio<1,1000000000> >::duration<__int64,std::ratio<1,1000000000> ><__int64,0>
	mov	rdx, rax
	mov	rcx, QWORD PTR __$ReturnUdt$[rbp]
	call	??0?$time_point@Usteady_clock@chrono@std@@V?$duration@_JU?$ratio@$00$0DLJKMKAA@@std@@@23@@chrono@std@@QEAA@AEBV?$duration@_JU?$ratio@$00$0DLJKMKAA@@std@@@12@@Z ; std::chrono::time_point<std::chrono::steady_clock,std::chrono::duration<__int64,std::ratio<1,1000000000> > >::time_point<std::chrono::steady_clock,std::chrono::duration<__int64,std::ratio<1,1000000000> > >
	mov	rax, QWORD PTR __$ReturnUdt$[rbp]
$LN1@now:

; 708  :             }
; 709  :             // clang-format on
; 710  :         }

	lea	rsp, QWORD PTR [rbp+680]
	pop	rdi
	pop	rbp
	ret	0
?now@steady_clock@chrono@std@@SA?AV?$time_point@Usteady_clock@chrono@std@@V?$duration@_JU?$ratio@$00$0DLJKMKAA@@std@@@23@@23@XZ ENDP ; std::chrono::steady_clock::now
_TEXT	ENDS
; Function compile flags: /Odtp /RTCsu /ZI
; File C:\Program Files\Microsoft Visual Studio\2022\Community\VC\Tools\MSVC\14.38.33130\include\xlocale
;	COMDAT ??$_Maklocstr@D@std@@YAPEADPEBDPEADAEBU_Cvtvec@@@Z
_TEXT	SEGMENT
_Count$ = 8
_Ptrdest$ = 40
_Ptrnext$1 = 72
_Ptr$ = 320
__formal$ = 328
__formal$ = 336
??$_Maklocstr@D@std@@YAPEADPEBDPEADAEBU_Cvtvec@@@Z PROC	; std::_Maklocstr<char>, COMDAT

; 525  : _Elem* __CRTDECL _Maklocstr(const char* _Ptr, _Elem*, const _Locinfo::_Cvtvec&) {

$LN7:
	mov	QWORD PTR [rsp+24], r8
	mov	QWORD PTR [rsp+16], rdx
	mov	QWORD PTR [rsp+8], rcx
	push	rbp
	push	rdi
	sub	rsp, 344				; 00000158H
	lea	rbp, QWORD PTR [rsp+48]
	lea	rcx, OFFSET FLAT:__F83316ED_xlocale
	call	__CheckForDebuggerJustMyCode

; 526  :     // convert C string to _Elem sequence using _Cvtvec
; 527  :     size_t _Count = _CSTD strlen(_Ptr) + 1;

	mov	rcx, QWORD PTR _Ptr$[rbp]
	call	strlen
	inc	rax
	mov	QWORD PTR _Count$[rbp], rax

; 528  : 
; 529  :     _Elem* _Ptrdest = static_cast<_Elem*>(_calloc_dbg(_Count, sizeof(_Elem), _CRT_BLOCK, __FILE__, __LINE__));

	mov	DWORD PTR [rsp+32], 529			; 00000211H
	lea	r9, OFFSET FLAT:??_C@_0GC@GNDJPOJH@C?3?2Program?5Files?2Microsoft?5Visu@
	mov	r8d, 2
	mov	edx, 1
	mov	rcx, QWORD PTR _Count$[rbp]
	call	QWORD PTR __imp__calloc_dbg
	mov	QWORD PTR _Ptrdest$[rbp], rax

; 530  : 
; 531  :     if (!_Ptrdest) {

	cmp	QWORD PTR _Ptrdest$[rbp], 0
	jne	SHORT $LN5@Maklocstr

; 532  :         _Xbad_alloc();

	call	?_Xbad_alloc@std@@YAXXZ			; std::_Xbad_alloc
$LN5@Maklocstr:

; 533  :     }
; 534  : 
; 535  :     for (_Elem* _Ptrnext = _Ptrdest; 0 < _Count; --_Count, ++_Ptrnext, ++_Ptr) {

	mov	rax, QWORD PTR _Ptrdest$[rbp]
	mov	QWORD PTR _Ptrnext$1[rbp], rax
	jmp	SHORT $LN4@Maklocstr
$LN2@Maklocstr:
	mov	rax, QWORD PTR _Count$[rbp]
	dec	rax
	mov	QWORD PTR _Count$[rbp], rax
	mov	rax, QWORD PTR _Ptrnext$1[rbp]
	inc	rax
	mov	QWORD PTR _Ptrnext$1[rbp], rax
	mov	rax, QWORD PTR _Ptr$[rbp]
	inc	rax
	mov	QWORD PTR _Ptr$[rbp], rax
$LN4@Maklocstr:
	cmp	QWORD PTR _Count$[rbp], 0
	jbe	SHORT $LN3@Maklocstr

; 536  :         *_Ptrnext = static_cast<_Elem>(static_cast<unsigned char>(*_Ptr));

	mov	rax, QWORD PTR _Ptrnext$1[rbp]
	mov	rcx, QWORD PTR _Ptr$[rbp]
	movzx	ecx, BYTE PTR [rcx]
	mov	BYTE PTR [rax], cl

; 537  :     }

	jmp	SHORT $LN2@Maklocstr
$LN3@Maklocstr:

; 538  : 
; 539  :     return _Ptrdest;

	mov	rax, QWORD PTR _Ptrdest$[rbp]
$LN6@Maklocstr:

; 540  : }

	lea	rsp, QWORD PTR [rbp+296]
	pop	rdi
	pop	rbp
	ret	0
??$_Maklocstr@D@std@@YAPEADPEBDPEADAEBU_Cvtvec@@@Z ENDP	; std::_Maklocstr<char>
_TEXT	ENDS
; Function compile flags: /Odtp /RTCsu /ZI
; File C:\Program Files\Microsoft Visual Studio\2022\Community\VC\Tools\MSVC\14.38.33130\include\xlocnum
;	COMDAT ?_Maklocwcs@std@@YAPEA_WPEB_W@Z
_TEXT	SEGMENT
_Count$ = 8
_Ptrdest$ = 40
_Ptr$ = 288
?_Maklocwcs@std@@YAPEA_WPEB_W@Z PROC			; std::_Maklocwcs, COMDAT

; 71   : inline wchar_t* _Maklocwcs(const wchar_t* _Ptr) { // copy NTWCS to allocated storage

$LN4:
	mov	QWORD PTR [rsp+8], rcx
	push	rbp
	push	rdi
	sub	rsp, 312				; 00000138H
	lea	rbp, QWORD PTR [rsp+48]
	lea	rcx, OFFSET FLAT:__66B470FA_xlocnum
	call	__CheckForDebuggerJustMyCode

; 72   :     const size_t _Count = _CSTD wcslen(_Ptr) + 1;

	mov	rcx, QWORD PTR _Ptr$[rbp]
	call	QWORD PTR __imp_wcslen
	inc	rax
	mov	QWORD PTR _Count$[rbp], rax

; 73   : 
; 74   :     wchar_t* _Ptrdest = static_cast<wchar_t*>(_calloc_dbg(_Count, sizeof(wchar_t), _CRT_BLOCK, __FILE__, __LINE__));

	mov	eax, DWORD PTR ?__LINE__Var@?0??_Maklocwcs@std@@YAPEA_WPEB_W@Z@4JA
	add	eax, 3
	mov	DWORD PTR [rsp+32], eax
	lea	r9, OFFSET FLAT:??_C@_0GC@OOHEPMDG@C?3?2Program?5Files?2Microsoft?5Visu@
	mov	r8d, 2
	mov	edx, 2
	mov	rcx, QWORD PTR _Count$[rbp]
	call	QWORD PTR __imp__calloc_dbg
	mov	QWORD PTR _Ptrdest$[rbp], rax

; 75   : 
; 76   :     if (!_Ptrdest) {

	cmp	QWORD PTR _Ptrdest$[rbp], 0
	jne	SHORT $LN2@Maklocwcs

; 77   :         _Xbad_alloc();

	call	?_Xbad_alloc@std@@YAXXZ			; std::_Xbad_alloc
$LN2@Maklocwcs:

; 78   :     }
; 79   : 
; 80   :     _CSTD wmemcpy(_Ptrdest, _Ptr, _Count);

	mov	r8, QWORD PTR _Count$[rbp]
	mov	rdx, QWORD PTR _Ptr$[rbp]
	mov	rcx, QWORD PTR _Ptrdest$[rbp]
	call	wmemcpy

; 81   :     return _Ptrdest;

	mov	rax, QWORD PTR _Ptrdest$[rbp]
$LN3@Maklocwcs:

; 82   : }

	lea	rsp, QWORD PTR [rbp+264]
	pop	rdi
	pop	rbp
	ret	0
?_Maklocwcs@std@@YAPEA_WPEB_W@Z ENDP			; std::_Maklocwcs
_TEXT	ENDS
; Function compile flags: /Odtp /RTCsu /ZI
; File C:\Program Files\Microsoft Visual Studio\2022\Community\VC\Tools\MSVC\14.38.33130\include\xlocale
;	COMDAT ??$use_facet@V?$ctype@D@std@@@std@@YAAEBV?$ctype@D@0@AEBVlocale@0@@Z
_TEXT	SEGMENT
_Lock$6 = 4
_Psave$7 = 40
_Id$8 = 72
_Pf$9 = 104
_Pfmod$10 = 136
_Psave_guard$11 = 168
$T12 = 392
__$ArrayPad$ = 408
_Loc$ = 448
??$use_facet@V?$ctype@D@std@@@std@@YAAEBV?$ctype@D@0@AEBVlocale@0@@Z PROC ; std::use_facet<std::ctype<char> >, COMDAT

; 434  : const _Facet& __CRTDECL use_facet(const locale& _Loc) { // get facet reference from locale

$LN11:
	mov	QWORD PTR [rsp+8], rcx
	push	rbp
	push	rdi
	sub	rsp, 456				; 000001c8H
	lea	rbp, QWORD PTR [rsp+32]
	lea	rdi, QWORD PTR [rsp+32]
	mov	ecx, 58					; 0000003aH
	mov	eax, -858993460				; ccccccccH
	rep stosd
	mov	rcx, QWORD PTR [rsp+488]
	mov	rax, QWORD PTR __security_cookie
	xor	rax, rbp
	mov	QWORD PTR __$ArrayPad$[rbp], rax
	lea	rcx, OFFSET FLAT:__F83316ED_xlocale
	call	__CheckForDebuggerJustMyCode

; 435  :     _BEGIN_LOCK(_LOCK_LOCALE) // the thread lock, make get atomic

	xor	edx, edx
	lea	rcx, QWORD PTR _Lock$6[rbp]
	call	QWORD PTR __imp_??0_Lockit@std@@QEAA@H@Z
	npad	1

; 436  :     const locale::facet* _Psave = _Facetptr<_Facet>::_Psave; // static pointer to lazy facet

	mov	rax, QWORD PTR ?_Psave@?$_Facetptr@V?$ctype@D@std@@@std@@2PEBVfacet@locale@2@EB ; std::_Facetptr<std::ctype<char> >::_Psave
	mov	QWORD PTR _Psave$7[rbp], rax

; 437  : 
; 438  :     const size_t _Id         = _Facet::id;

	mov	rcx, QWORD PTR __imp_?id@?$ctype@D@std@@2V0locale@2@A
	call	QWORD PTR __imp_??Bid@locale@std@@QEAA_KXZ
	mov	QWORD PTR _Id$8[rbp], rax

; 439  :     const locale::facet* _Pf = _Loc._Getfacet(_Id);

	mov	rdx, QWORD PTR _Id$8[rbp]
	mov	rcx, QWORD PTR _Loc$[rbp]
	call	?_Getfacet@locale@std@@QEBAPEBVfacet@12@_K@Z ; std::locale::_Getfacet
	mov	QWORD PTR _Pf$9[rbp], rax

; 440  : 
; 441  :     if (!_Pf) {

	cmp	QWORD PTR _Pf$9[rbp], 0
	jne	$LN2@use_facet

; 442  :         if (_Psave) {

	cmp	QWORD PTR _Psave$7[rbp], 0
	je	SHORT $LN3@use_facet

; 443  :             _Pf = _Psave; // lazy facet already allocated

	mov	rax, QWORD PTR _Psave$7[rbp]
	mov	QWORD PTR _Pf$9[rbp], rax
	jmp	$LN2@use_facet
$LN3@use_facet:

; 444  :         } else if (_Facet::_Getcat(&_Psave, &_Loc) == static_cast<size_t>(-1)) {

	mov	rdx, QWORD PTR _Loc$[rbp]
	lea	rcx, QWORD PTR _Psave$7[rbp]
	call	QWORD PTR __imp_?_Getcat@?$ctype@D@std@@SA_KPEAPEBVfacet@locale@2@PEBV42@@Z
	cmp	rax, -1
	jne	SHORT $LN5@use_facet

; 445  : #if _HAS_EXCEPTIONS
; 446  :             _Throw_bad_cast(); // lazy disallowed

	call	?_Throw_bad_cast@std@@YAXXZ		; std::_Throw_bad_cast
	npad	1

; 447  : #else
; 448  :             _CSTD abort(); // lazy disallowed
; 449  : #endif
; 450  :         } else { // queue up lazy facet for destruction

	jmp	SHORT $LN2@use_facet
$LN5@use_facet:

; 451  :             auto _Pfmod = const_cast<locale::facet*>(_Psave);

	mov	rax, QWORD PTR _Psave$7[rbp]
	mov	QWORD PTR _Pfmod$10[rbp], rax

; 452  :             unique_ptr<_Facet_base> _Psave_guard(static_cast<_Facet_base*>(_Pfmod));

	mov	edx, 8
	lea	rcx, QWORD PTR _Psave_guard$11[rbp]
	call	?__autoclassinit2@?$unique_ptr@V_Facet_base@std@@U?$default_delete@V_Facet_base@std@@@2@@std@@QEAAX_K@Z
	mov	rdx, QWORD PTR _Pfmod$10[rbp]
	lea	rcx, QWORD PTR _Psave_guard$11[rbp]
	call	??$?0U?$default_delete@V_Facet_base@std@@@std@@$0A@@?$unique_ptr@V_Facet_base@std@@U?$default_delete@V_Facet_base@std@@@2@@std@@QEAA@PEAV_Facet_base@1@@Z ; std::unique_ptr<std::_Facet_base,std::default_delete<std::_Facet_base> >::unique_ptr<std::_Facet_base,std::default_delete<std::_Facet_base> ><std::default_delete<std::_Facet_base>,0>
	npad	1

; 453  : 
; 454  : #if defined(_M_CEE)
; 455  :             _Facet_Register_m(_Pfmod);
; 456  : #else // ^^^ defined(_M_CEE) / !defined(_M_CEE) vvv
; 457  :             _Facet_Register(_Pfmod);

	mov	rcx, QWORD PTR _Pfmod$10[rbp]
	call	?_Facet_Register@std@@YAXPEAV_Facet_base@1@@Z ; std::_Facet_Register

; 458  : #endif // ^^^ !defined(_M_CEE) ^^^
; 459  : 
; 460  :             _Pfmod->_Incref();

	mov	rax, QWORD PTR _Pfmod$10[rbp]
	mov	rax, QWORD PTR [rax]
	mov	rcx, QWORD PTR _Pfmod$10[rbp]
	call	QWORD PTR [rax+8]

; 461  :             _Facetptr<_Facet>::_Psave = _Psave;

	mov	rax, QWORD PTR _Psave$7[rbp]
	mov	QWORD PTR ?_Psave@?$_Facetptr@V?$ctype@D@std@@@std@@2PEBVfacet@locale@2@EB, rax ; std::_Facetptr<std::ctype<char> >::_Psave

; 462  :             _Pf                       = _Psave;

	mov	rax, QWORD PTR _Psave$7[rbp]
	mov	QWORD PTR _Pf$9[rbp], rax

; 463  : 
; 464  :             (void) _Psave_guard.release();

	lea	rcx, QWORD PTR _Psave_guard$11[rbp]
	call	?release@?$unique_ptr@V_Facet_base@std@@U?$default_delete@V_Facet_base@std@@@2@@std@@QEAAPEAV_Facet_base@2@XZ ; std::unique_ptr<std::_Facet_base,std::default_delete<std::_Facet_base> >::release
	npad	1

; 465  :         }

	lea	rcx, QWORD PTR _Psave_guard$11[rbp]
	call	??1?$unique_ptr@V_Facet_base@std@@U?$default_delete@V_Facet_base@std@@@2@@std@@QEAA@XZ ; std::unique_ptr<std::_Facet_base,std::default_delete<std::_Facet_base> >::~unique_ptr<std::_Facet_base,std::default_delete<std::_Facet_base> >
$LN2@use_facet:

; 466  :     }
; 467  : 
; 468  :     return static_cast<const _Facet&>(*_Pf); // should be dynamic_cast

	mov	rax, QWORD PTR _Pf$9[rbp]
	mov	QWORD PTR $T12[rbp], rax
	lea	rcx, QWORD PTR _Lock$6[rbp]
	call	QWORD PTR __imp_??1_Lockit@std@@QEAA@XZ
	mov	rax, QWORD PTR $T12[rbp]

; 469  :     _END_LOCK()
; 470  : } // end of use_facet body

	mov	rdi, rax
	lea	rcx, QWORD PTR [rbp-32]
	lea	rdx, OFFSET FLAT:??$use_facet@V?$ctype@D@std@@@std@@YAAEBV?$ctype@D@0@AEBVlocale@0@@Z$rtcFrameData
	call	_RTC_CheckStackVars
	mov	rax, rdi
	mov	rcx, QWORD PTR __$ArrayPad$[rbp]
	xor	rcx, rbp
	call	__security_check_cookie
	lea	rsp, QWORD PTR [rbp+424]
	pop	rdi
	pop	rbp
	ret	0
$LN10@use_facet:
??$use_facet@V?$ctype@D@std@@@std@@YAAEBV?$ctype@D@0@AEBVlocale@0@@Z ENDP ; std::use_facet<std::ctype<char> >
_TEXT	ENDS
; Function compile flags: /Odtp /RTCsu /ZI
;	COMDAT text$x
text$x	SEGMENT
_Lock$6 = 4
_Psave$7 = 40
_Id$8 = 72
_Pf$9 = 104
_Pfmod$10 = 136
_Psave_guard$11 = 168
$T12 = 392
__$ArrayPad$ = 408
_Loc$ = 448
?dtor$0@?0???$use_facet@V?$ctype@D@std@@@std@@YAAEBV?$ctype@D@0@AEBVlocale@0@@Z@4HA PROC ; `std::use_facet<std::ctype<char> >'::`1'::dtor$0
	mov	QWORD PTR [rsp+8], rcx
	mov	QWORD PTR [rsp+16], rdx
	push	rbp
	push	rdi
	sub	rsp, 40					; 00000028H
	lea	rbp, QWORD PTR [rdx+32]
	lea	rcx, QWORD PTR _Lock$6[rbp]
	call	QWORD PTR __imp_??1_Lockit@std@@QEAA@XZ
	add	rsp, 40					; 00000028H
	pop	rdi
	pop	rbp
	ret	0
?dtor$0@?0???$use_facet@V?$ctype@D@std@@@std@@YAAEBV?$ctype@D@0@AEBVlocale@0@@Z@4HA ENDP ; `std::use_facet<std::ctype<char> >'::`1'::dtor$0
text$x	ENDS
; Function compile flags: /Odtp /RTCsu /ZI
;	COMDAT text$x
text$x	SEGMENT
_Lock$6 = 4
_Psave$7 = 40
_Id$8 = 72
_Pf$9 = 104
_Pfmod$10 = 136
_Psave_guard$11 = 168
$T12 = 392
__$ArrayPad$ = 408
_Loc$ = 448
?dtor$1@?0???$use_facet@V?$ctype@D@std@@@std@@YAAEBV?$ctype@D@0@AEBVlocale@0@@Z@4HA PROC ; `std::use_facet<std::ctype<char> >'::`1'::dtor$1
	mov	QWORD PTR [rsp+8], rcx
	mov	QWORD PTR [rsp+16], rdx
	push	rbp
	push	rdi
	sub	rsp, 40					; 00000028H
	lea	rbp, QWORD PTR [rdx+32]
	lea	rcx, QWORD PTR _Psave_guard$11[rbp]
	call	??1?$unique_ptr@V_Facet_base@std@@U?$default_delete@V_Facet_base@std@@@2@@std@@QEAA@XZ ; std::unique_ptr<std::_Facet_base,std::default_delete<std::_Facet_base> >::~unique_ptr<std::_Facet_base,std::default_delete<std::_Facet_base> >
	add	rsp, 40					; 00000028H
	pop	rdi
	pop	rbp
	ret	0
?dtor$1@?0???$use_facet@V?$ctype@D@std@@@std@@YAAEBV?$ctype@D@0@AEBVlocale@0@@Z@4HA ENDP ; `std::use_facet<std::ctype<char> >'::`1'::dtor$1
text$x	ENDS
; Function compile flags: /Odtp /RTCsu /ZI
; File C:\Program Files\Microsoft Visual Studio\2022\Community\VC\Tools\MSVC\14.38.33130\include\xlocale
;	COMDAT ??$_Maklocstr@_W@std@@YAPEA_WPEBDPEA_WAEBU_Cvtvec@@@Z
_TEXT	SEGMENT
_Count$ = 8
_Count1$ = 40
_Wchars$ = 72
_Ptr1$ = 104
_Bytes$ = 132
_Wc$ = 164
_Mbst1$ = 200
_Ptrdest$ = 232
_Ptrnext$ = 264
_Mbst2$ = 296
__$ArrayPad$ = 504
_Ptr$ = 544
__formal$ = 552
_Cvt$ = 560
??$_Maklocstr@_W@std@@YAPEA_WPEBDPEA_WAEBU_Cvtvec@@@Z PROC ; std::_Maklocstr<wchar_t>, COMDAT

; 543  : inline wchar_t* __CRTDECL _Maklocstr(const char* _Ptr, wchar_t*, const _Locinfo::_Cvtvec& _Cvt) {

$LN12:
	mov	QWORD PTR [rsp+24], r8
	mov	QWORD PTR [rsp+16], rdx
	mov	QWORD PTR [rsp+8], rcx
	push	rbp
	push	rdi
	sub	rsp, 568				; 00000238H
	lea	rbp, QWORD PTR [rsp+48]
	lea	rdi, QWORD PTR [rsp+48]
	mov	ecx, 82					; 00000052H
	mov	eax, -858993460				; ccccccccH
	rep stosd
	mov	rcx, QWORD PTR [rsp+600]
	mov	rax, QWORD PTR __security_cookie
	xor	rax, rbp
	mov	QWORD PTR __$ArrayPad$[rbp], rax
	lea	rcx, OFFSET FLAT:__F83316ED_xlocale
	call	__CheckForDebuggerJustMyCode

; 544  :     // convert C string to wchar_t sequence using _Cvtvec
; 545  :     size_t _Count;
; 546  :     size_t _Count1;
; 547  :     size_t _Wchars;
; 548  :     const char* _Ptr1;
; 549  :     int _Bytes;
; 550  :     wchar_t _Wc;
; 551  :     mbstate_t _Mbst1 = {};

	lea	rax, QWORD PTR _Mbst1$[rbp]
	mov	rdi, rax
	xor	eax, eax
	mov	ecx, 8
	rep stosb

; 552  : 
; 553  :     _Count1 = _CSTD strlen(_Ptr) + 1;

	mov	rcx, QWORD PTR _Ptr$[rbp]
	call	strlen
	inc	rax
	mov	QWORD PTR _Count1$[rbp], rax

; 554  :     for (_Count = _Count1, _Wchars = 0, _Ptr1 = _Ptr; 0 < _Count; _Count -= _Bytes, _Ptr1 += _Bytes, ++_Wchars) {

	mov	rax, QWORD PTR _Count1$[rbp]
	mov	QWORD PTR _Count$[rbp], rax
	mov	QWORD PTR _Wchars$[rbp], 0
	mov	rax, QWORD PTR _Ptr$[rbp]
	mov	QWORD PTR _Ptr1$[rbp], rax
	jmp	SHORT $LN4@Maklocstr
$LN2@Maklocstr:
	movsxd	rax, DWORD PTR _Bytes$[rbp]
	mov	rcx, QWORD PTR _Count$[rbp]
	sub	rcx, rax
	mov	rax, rcx
	mov	QWORD PTR _Count$[rbp], rax
	movsxd	rax, DWORD PTR _Bytes$[rbp]
	mov	rcx, QWORD PTR _Ptr1$[rbp]
	add	rcx, rax
	mov	rax, rcx
	mov	QWORD PTR _Ptr1$[rbp], rax
	mov	rax, QWORD PTR _Wchars$[rbp]
	inc	rax
	mov	QWORD PTR _Wchars$[rbp], rax
$LN4@Maklocstr:
	cmp	QWORD PTR _Count$[rbp], 0
	jbe	SHORT $LN3@Maklocstr

; 555  :         if ((_Bytes = _Mbrtowc(&_Wc, _Ptr1, _Count, &_Mbst1, &_Cvt)) <= 0) {

	mov	rax, QWORD PTR _Cvt$[rbp]
	mov	QWORD PTR [rsp+32], rax
	lea	r9, QWORD PTR _Mbst1$[rbp]
	mov	r8, QWORD PTR _Count$[rbp]
	mov	rdx, QWORD PTR _Ptr1$[rbp]
	lea	rcx, QWORD PTR _Wc$[rbp]
	call	_Mbrtowc
	mov	DWORD PTR _Bytes$[rbp], eax
	cmp	DWORD PTR _Bytes$[rbp], 0
	jg	SHORT $LN8@Maklocstr

; 556  :             break;

	jmp	SHORT $LN3@Maklocstr
$LN8@Maklocstr:

; 557  :         }
; 558  :     }

	jmp	SHORT $LN2@Maklocstr
$LN3@Maklocstr:

; 559  : 
; 560  :     ++_Wchars; // count terminating nul

	mov	rax, QWORD PTR _Wchars$[rbp]
	inc	rax
	mov	QWORD PTR _Wchars$[rbp], rax

; 561  : 
; 562  :     wchar_t* _Ptrdest = static_cast<wchar_t*>(_calloc_dbg(_Wchars, sizeof(wchar_t), _CRT_BLOCK, __FILE__, __LINE__));

	mov	DWORD PTR [rsp+32], 562			; 00000232H
	lea	r9, OFFSET FLAT:??_C@_0GC@GNDJPOJH@C?3?2Program?5Files?2Microsoft?5Visu@
	mov	r8d, 2
	mov	edx, 2
	mov	rcx, QWORD PTR _Wchars$[rbp]
	call	QWORD PTR __imp__calloc_dbg
	mov	QWORD PTR _Ptrdest$[rbp], rax

; 563  : 
; 564  :     if (!_Ptrdest) {

	cmp	QWORD PTR _Ptrdest$[rbp], 0
	jne	SHORT $LN9@Maklocstr

; 565  :         _Xbad_alloc();

	call	?_Xbad_alloc@std@@YAXXZ			; std::_Xbad_alloc
$LN9@Maklocstr:

; 566  :     }
; 567  : 
; 568  :     wchar_t* _Ptrnext = _Ptrdest;

	mov	rax, QWORD PTR _Ptrdest$[rbp]
	mov	QWORD PTR _Ptrnext$[rbp], rax

; 569  :     mbstate_t _Mbst2  = {};

	lea	rax, QWORD PTR _Mbst2$[rbp]
	mov	rdi, rax
	xor	eax, eax
	mov	ecx, 8
	rep stosb

; 570  : 
; 571  :     for (; 0 < _Wchars; _Count -= _Bytes, _Ptr += _Bytes, --_Wchars, ++_Ptrnext) {

	jmp	SHORT $LN7@Maklocstr
$LN5@Maklocstr:
	movsxd	rax, DWORD PTR _Bytes$[rbp]
	mov	rcx, QWORD PTR _Count$[rbp]
	sub	rcx, rax
	mov	rax, rcx
	mov	QWORD PTR _Count$[rbp], rax
	movsxd	rax, DWORD PTR _Bytes$[rbp]
	mov	rcx, QWORD PTR _Ptr$[rbp]
	add	rcx, rax
	mov	rax, rcx
	mov	QWORD PTR _Ptr$[rbp], rax
	mov	rax, QWORD PTR _Wchars$[rbp]
	dec	rax
	mov	QWORD PTR _Wchars$[rbp], rax
	mov	rax, QWORD PTR _Ptrnext$[rbp]
	add	rax, 2
	mov	QWORD PTR _Ptrnext$[rbp], rax
$LN7@Maklocstr:
	cmp	QWORD PTR _Wchars$[rbp], 0
	jbe	SHORT $LN6@Maklocstr

; 572  :         if ((_Bytes = _Mbrtowc(_Ptrnext, _Ptr, _Count1, &_Mbst2, &_Cvt)) <= 0) {

	mov	rax, QWORD PTR _Cvt$[rbp]
	mov	QWORD PTR [rsp+32], rax
	lea	r9, QWORD PTR _Mbst2$[rbp]
	mov	r8, QWORD PTR _Count1$[rbp]
	mov	rdx, QWORD PTR _Ptr$[rbp]
	mov	rcx, QWORD PTR _Ptrnext$[rbp]
	call	_Mbrtowc
	mov	DWORD PTR _Bytes$[rbp], eax
	cmp	DWORD PTR _Bytes$[rbp], 0
	jg	SHORT $LN10@Maklocstr

; 573  :             break;

	jmp	SHORT $LN6@Maklocstr
$LN10@Maklocstr:

; 574  :         }
; 575  :     }

	jmp	$LN5@Maklocstr
$LN6@Maklocstr:

; 576  : 
; 577  :     *_Ptrnext = L'\0';

	xor	eax, eax
	mov	rcx, QWORD PTR _Ptrnext$[rbp]
	mov	WORD PTR [rcx], ax

; 578  : 
; 579  :     return _Ptrdest;

	mov	rax, QWORD PTR _Ptrdest$[rbp]
$LN11@Maklocstr:

; 580  : }

	mov	rdi, rax
	lea	rcx, QWORD PTR [rbp-48]
	lea	rdx, OFFSET FLAT:??$_Maklocstr@_W@std@@YAPEA_WPEBDPEA_WAEBU_Cvtvec@@@Z$rtcFrameData
	call	_RTC_CheckStackVars
	mov	rax, rdi
	mov	rcx, QWORD PTR __$ArrayPad$[rbp]
	xor	rcx, rbp
	call	__security_check_cookie
	lea	rsp, QWORD PTR [rbp+520]
	pop	rdi
	pop	rbp
	ret	0
??$_Maklocstr@_W@std@@YAPEA_WPEBDPEA_WAEBU_Cvtvec@@@Z ENDP ; std::_Maklocstr<wchar_t>
_TEXT	ENDS
; Function compile flags: /Odtp /RTCsu /ZI
; File C:\Program Files\Microsoft Visual Studio\2022\Community\VC\Tools\MSVC\14.38.33130\include\xlocale
;	COMDAT ?_Getfacet@locale@std@@QEBAPEBVfacet@12@_K@Z
_TEXT	SEGMENT
_Facptr$ = 8
_Ptr0$ = 40
tv71 = 248
this$ = 288
_Id$ = 296
?_Getfacet@locale@std@@QEBAPEBVfacet@12@_K@Z PROC	; std::locale::_Getfacet, COMDAT

; 380  :     const facet* _Getfacet(size_t _Id) const { // look up a facet in locale object

$LN8:
	mov	QWORD PTR [rsp+16], rdx
	mov	QWORD PTR [rsp+8], rcx
	push	rbp
	push	rdi
	sub	rsp, 296				; 00000128H
	lea	rbp, QWORD PTR [rsp+32]
	lea	rcx, OFFSET FLAT:__F83316ED_xlocale
	call	__CheckForDebuggerJustMyCode

; 381  :         const facet* _Facptr = _Id < _Ptr->_Facetcount ? _Ptr->_Facetvec[_Id] : nullptr; // null if id off end

	mov	rax, QWORD PTR this$[rbp]
	mov	rax, QWORD PTR [rax+8]
	mov	rax, QWORD PTR [rax+24]
	cmp	QWORD PTR _Id$[rbp], rax
	jae	SHORT $LN6@Getfacet
	mov	rax, QWORD PTR this$[rbp]
	mov	rax, QWORD PTR [rax+8]
	mov	rax, QWORD PTR [rax+16]
	mov	rcx, QWORD PTR _Id$[rbp]
	mov	rax, QWORD PTR [rax+rcx*8]
	mov	QWORD PTR tv71[rbp], rax
	jmp	SHORT $LN7@Getfacet
$LN6@Getfacet:
	mov	QWORD PTR tv71[rbp], 0
$LN7@Getfacet:
	mov	rax, QWORD PTR tv71[rbp]
	mov	QWORD PTR _Facptr$[rbp], rax

; 382  :         if (_Facptr || !_Ptr->_Xparent) {

	cmp	QWORD PTR _Facptr$[rbp], 0
	jne	SHORT $LN3@Getfacet
	mov	rax, QWORD PTR this$[rbp]
	mov	rax, QWORD PTR [rax+8]
	movzx	eax, BYTE PTR [rax+36]
	test	eax, eax
	jne	SHORT $LN2@Getfacet
$LN3@Getfacet:

; 383  :             return _Facptr; // found facet or not transparent

	mov	rax, QWORD PTR _Facptr$[rbp]
	jmp	SHORT $LN1@Getfacet
$LN2@Getfacet:

; 384  :         }
; 385  : 
; 386  :         // look in current locale
; 387  :         locale::_Locimp* _Ptr0 = _Getgloballocale();

	call	?_Getgloballocale@locale@std@@CAPEAV_Locimp@12@XZ ; std::locale::_Getgloballocale
	mov	QWORD PTR _Ptr0$[rbp], rax

; 388  :         if (_Id < _Ptr0->_Facetcount) {

	mov	rax, QWORD PTR _Ptr0$[rbp]
	mov	rax, QWORD PTR [rax+24]
	cmp	QWORD PTR _Id$[rbp], rax
	jae	SHORT $LN4@Getfacet

; 389  :             return _Ptr0->_Facetvec[_Id]; // get from current locale

	mov	rax, QWORD PTR _Ptr0$[rbp]
	mov	rax, QWORD PTR [rax+16]
	mov	rcx, QWORD PTR _Id$[rbp]
	mov	rax, QWORD PTR [rax+rcx*8]
	jmp	SHORT $LN1@Getfacet
$LN4@Getfacet:

; 390  :         }
; 391  : 
; 392  :         return nullptr; // no entry in current locale

	xor	eax, eax
$LN1@Getfacet:

; 393  :     }

	lea	rsp, QWORD PTR [rbp+264]
	pop	rdi
	pop	rbp
	ret	0
?_Getfacet@locale@std@@QEBAPEBVfacet@12@_K@Z ENDP	; std::locale::_Getfacet
_TEXT	ENDS
; Function compile flags: /Odtp /RTCsu /ZI
; File C:\Program Files\Microsoft Visual Studio\2022\Community\VC\Tools\MSVC\14.38.33130\include\xlocale
;	COMDAT ??1locale@std@@QEAA@XZ
_TEXT	SEGMENT
$T1 = 200
tv85 = 216
tv86 = 224
this$ = 272
??1locale@std@@QEAA@XZ PROC				; std::locale::~locale, COMDAT

; 357  :     ~locale() noexcept {

$LN6:
	mov	QWORD PTR [rsp+8], rcx
	push	rbp
	push	rdi
	sub	rsp, 280				; 00000118H
	lea	rbp, QWORD PTR [rsp+32]
	lea	rcx, OFFSET FLAT:__F83316ED_xlocale
	call	__CheckForDebuggerJustMyCode

; 358  :         if (_Ptr) {

	mov	rax, QWORD PTR this$[rbp]
	cmp	QWORD PTR [rax+8], 0
	je	SHORT $LN2@locale

; 359  :             delete _Ptr->_Decref();

	mov	rax, QWORD PTR this$[rbp]
	mov	rax, QWORD PTR [rax+8]
	mov	rcx, QWORD PTR this$[rbp]
	mov	rcx, QWORD PTR [rcx+8]
	mov	rax, QWORD PTR [rax]
	call	QWORD PTR [rax+16]
	mov	QWORD PTR $T1[rbp], rax
	cmp	QWORD PTR $T1[rbp], 0
	je	SHORT $LN4@locale
	mov	rax, QWORD PTR $T1[rbp]
	mov	rax, QWORD PTR [rax]
	mov	rax, QWORD PTR [rax]
	mov	QWORD PTR tv85[rbp], rax
	mov	edx, 1
	mov	rcx, QWORD PTR $T1[rbp]
	call	QWORD PTR tv85[rbp]
	mov	QWORD PTR tv86[rbp], rax
	jmp	SHORT $LN2@locale
$LN4@locale:
	mov	QWORD PTR tv86[rbp], 0
$LN2@locale:

; 360  :         }
; 361  :     }

	lea	rsp, QWORD PTR [rbp+248]
	pop	rdi
	pop	rbp
	ret	0
??1locale@std@@QEAA@XZ ENDP				; std::locale::~locale
_TEXT	ENDS
; Function compile flags: /Odtp /RTCsu /ZI
; File C:\Program Files\Microsoft Visual Studio\2022\Community\VC\Tools\MSVC\14.38.33130\include\memory
;	COMDAT ?_Decwref@_Ref_count_base@std@@QEAAXXZ
_TEXT	SEGMENT
this$ = 224
?_Decwref@_Ref_count_base@std@@QEAAXXZ PROC		; std::_Ref_count_base::_Decwref, COMDAT

; 1186 :     void _Decwref() noexcept { // decrement weak reference count

$LN4:
	mov	QWORD PTR [rsp+8], rcx
	push	rbp
	push	rdi
	sub	rsp, 232				; 000000e8H
	lea	rbp, QWORD PTR [rsp+32]
	lea	rcx, OFFSET FLAT:__A092E177_memory
	call	__CheckForDebuggerJustMyCode

; 1187 :         if (_MT_DECR(_Weaks) == 0) {

	mov	rax, QWORD PTR this$[rbp]
	add	rax, 12
	mov	ecx, -1
	lock xadd DWORD PTR [rax], ecx
	dec	ecx
	mov	eax, ecx
	test	eax, eax
	jne	SHORT $LN2@Decwref

; 1188 :             _Delete_this();

	mov	rax, QWORD PTR this$[rbp]
	mov	rax, QWORD PTR [rax]
	mov	rcx, QWORD PTR this$[rbp]
	call	QWORD PTR [rax+8]
$LN2@Decwref:

; 1189 :         }
; 1190 :     }

	lea	rsp, QWORD PTR [rbp+200]
	pop	rdi
	pop	rbp
	ret	0
?_Decwref@_Ref_count_base@std@@QEAAXXZ ENDP		; std::_Ref_count_base::_Decwref
_TEXT	ENDS
; Function compile flags: /Odtp /RTCsu /ZI
; File C:\Program Files\Microsoft Visual Studio\2022\Community\VC\Tools\MSVC\14.38.33130\include\memory
;	COMDAT ?_Decref@_Ref_count_base@std@@QEAAXXZ
_TEXT	SEGMENT
this$ = 224
?_Decref@_Ref_count_base@std@@QEAAXXZ PROC		; std::_Ref_count_base::_Decref, COMDAT

; 1179 :     void _Decref() noexcept { // decrement use count

$LN4:
	mov	QWORD PTR [rsp+8], rcx
	push	rbp
	push	rdi
	sub	rsp, 232				; 000000e8H
	lea	rbp, QWORD PTR [rsp+32]
	lea	rcx, OFFSET FLAT:__A092E177_memory
	call	__CheckForDebuggerJustMyCode

; 1180 :         if (_MT_DECR(_Uses) == 0) {

	mov	rax, QWORD PTR this$[rbp]
	add	rax, 8
	mov	ecx, -1
	lock xadd DWORD PTR [rax], ecx
	dec	ecx
	mov	eax, ecx
	test	eax, eax
	jne	SHORT $LN2@Decref

; 1181 :             _Destroy();

	mov	rax, QWORD PTR this$[rbp]
	mov	rax, QWORD PTR [rax]
	mov	rcx, QWORD PTR this$[rbp]
	call	QWORD PTR [rax]

; 1182 :             _Decwref();

	mov	rcx, QWORD PTR this$[rbp]
	call	?_Decwref@_Ref_count_base@std@@QEAAXXZ	; std::_Ref_count_base::_Decwref
$LN2@Decref:

; 1183 :         }
; 1184 :     }

	lea	rsp, QWORD PTR [rbp+200]
	pop	rdi
	pop	rbp
	ret	0
?_Decref@_Ref_count_base@std@@QEAAXXZ ENDP		; std::_Ref_count_base::_Decref
_TEXT	ENDS
; Function compile flags: /Odtp /RTCsu /ZI
; File C:\Program Files\Microsoft Visual Studio\2022\Community\VC\Tools\MSVC\14.38.33130\include\typeinfo
;	COMDAT ?_Throw_bad_cast@std@@YAXXZ
_TEXT	SEGMENT
$T1 = 200
?_Throw_bad_cast@std@@YAXXZ PROC			; std::_Throw_bad_cast, COMDAT

; 66   : [[noreturn]] inline void _Throw_bad_cast() {

$LN3:
	push	rbp
	push	rdi
	sub	rsp, 280				; 00000118H
	lea	rbp, QWORD PTR [rsp+32]
	lea	rcx, OFFSET FLAT:__F1DA9D90_typeinfo
	call	__CheckForDebuggerJustMyCode

; 67   :     _THROW(bad_cast{});

	lea	rcx, QWORD PTR $T1[rbp]
	call	??0bad_cast@std@@QEAA@XZ		; std::bad_cast::bad_cast
	lea	rdx, OFFSET FLAT:_TI2?AVbad_cast@std@@
	lea	rcx, QWORD PTR $T1[rbp]
	call	_CxxThrowException
$LN2@Throw_bad_:

; 68   : }

	lea	rsp, QWORD PTR [rbp+248]
	pop	rdi
	pop	rbp
	ret	0
?_Throw_bad_cast@std@@YAXXZ ENDP			; std::_Throw_bad_cast
_TEXT	ENDS
; Function compile flags: /Odtp /RTCsu /ZI
;	COMDAT ??_Gbad_cast@std@@UEAAPEAXI@Z
_TEXT	SEGMENT
this$ = 224
__flags$ = 232
??_Gbad_cast@std@@UEAAPEAXI@Z PROC			; std::bad_cast::`scalar deleting destructor', COMDAT
$LN4:
	mov	DWORD PTR [rsp+16], edx
	mov	QWORD PTR [rsp+8], rcx
	push	rbp
	push	rdi
	sub	rsp, 232				; 000000e8H
	lea	rbp, QWORD PTR [rsp+32]
	mov	rcx, QWORD PTR this$[rbp]
	call	??1bad_cast@std@@UEAA@XZ
	mov	eax, DWORD PTR __flags$[rbp]
	and	eax, 1
	test	eax, eax
	je	SHORT $LN2@scalar
	mov	edx, 24
	mov	rcx, QWORD PTR this$[rbp]
	call	??3@YAXPEAX_K@Z				; operator delete
$LN2@scalar:
	mov	rax, QWORD PTR this$[rbp]
	lea	rsp, QWORD PTR [rbp+200]
	pop	rdi
	pop	rbp
	ret	0
??_Gbad_cast@std@@UEAAPEAXI@Z ENDP			; std::bad_cast::`scalar deleting destructor'
_TEXT	ENDS
; Function compile flags: /Odtp /RTCsu /ZI
;	COMDAT ??0bad_cast@std@@QEAA@AEBV01@@Z
_TEXT	SEGMENT
this$ = 224
__that$ = 232
??0bad_cast@std@@QEAA@AEBV01@@Z PROC			; std::bad_cast::bad_cast, COMDAT
$LN3:
	mov	QWORD PTR [rsp+16], rdx
	mov	QWORD PTR [rsp+8], rcx
	push	rbp
	push	rdi
	sub	rsp, 232				; 000000e8H
	lea	rbp, QWORD PTR [rsp+32]
	mov	rdx, QWORD PTR __that$[rbp]
	mov	rcx, QWORD PTR this$[rbp]
	call	??0exception@std@@QEAA@AEBV01@@Z	; std::exception::exception
	mov	rax, QWORD PTR this$[rbp]
	lea	rcx, OFFSET FLAT:??_7bad_cast@std@@6B@
	mov	QWORD PTR [rax], rcx
	mov	rax, QWORD PTR this$[rbp]
	lea	rsp, QWORD PTR [rbp+200]
	pop	rdi
	pop	rbp
	ret	0
??0bad_cast@std@@QEAA@AEBV01@@Z ENDP			; std::bad_cast::bad_cast
_TEXT	ENDS
; Function compile flags: /Odtp /RTCsu /ZI
;	COMDAT ??1bad_cast@std@@UEAA@XZ
_TEXT	SEGMENT
this$ = 224
??1bad_cast@std@@UEAA@XZ PROC				; std::bad_cast::~bad_cast, COMDAT
$LN3:
	mov	QWORD PTR [rsp+8], rcx
	push	rbp
	push	rdi
	sub	rsp, 232				; 000000e8H
	lea	rbp, QWORD PTR [rsp+32]
	mov	rcx, QWORD PTR this$[rbp]
	call	??1exception@std@@UEAA@XZ		; std::exception::~exception
	lea	rsp, QWORD PTR [rbp+200]
	pop	rdi
	pop	rbp
	ret	0
??1bad_cast@std@@UEAA@XZ ENDP				; std::bad_cast::~bad_cast
_TEXT	ENDS
; Function compile flags: /Odtp /RTCsu /ZI
; File C:\Program Files\Microsoft Visual Studio\2022\Community\VC\Tools\MSVC\14.38.33130\include\vcruntime_typeinfo.h
;	COMDAT ??0bad_cast@std@@QEAA@XZ
_TEXT	SEGMENT
this$ = 224
??0bad_cast@std@@QEAA@XZ PROC				; std::bad_cast::bad_cast, COMDAT

; 153  :     {

$LN3:
	mov	QWORD PTR [rsp+8], rcx
	push	rbp
	push	rdi
	sub	rsp, 232				; 000000e8H
	lea	rbp, QWORD PTR [rsp+32]
	lea	rcx, OFFSET FLAT:__78388AF5_vcruntime_typeinfo@h
	call	__CheckForDebuggerJustMyCode

; 152  :         : exception("bad cast", 1)

	mov	r8d, 1
	lea	rdx, OFFSET FLAT:??_C@_08EPJLHIJG@bad?5cast@
	mov	rcx, QWORD PTR this$[rbp]
	call	??0exception@std@@QEAA@QEBDH@Z		; std::exception::exception

; 153  :     {

	mov	rax, QWORD PTR this$[rbp]
	lea	rcx, OFFSET FLAT:??_7bad_cast@std@@6B@
	mov	QWORD PTR [rax], rcx

; 154  :     }

	mov	rax, QWORD PTR this$[rbp]
	lea	rsp, QWORD PTR [rbp+200]
	pop	rdi
	pop	rbp
	ret	0
??0bad_cast@std@@QEAA@XZ ENDP				; std::bad_cast::bad_cast
_TEXT	ENDS
; Function compile flags: /Odtp /RTCsu /ZI
;	COMDAT ??1?$_Compressed_pair@V?$allocator@D@std@@V?$_String_val@U?$_Simple_types@D@std@@@2@$00@std@@QEAA@XZ
_TEXT	SEGMENT
this$ = 224
??1?$_Compressed_pair@V?$allocator@D@std@@V?$_String_val@U?$_Simple_types@D@std@@@2@$00@std@@QEAA@XZ PROC ; std::_Compressed_pair<std::allocator<char>,std::_String_val<std::_Simple_types<char> >,1>::~_Compressed_pair<std::allocator<char>,std::_String_val<std::_Simple_types<char> >,1>, COMDAT
$LN3:
	mov	QWORD PTR [rsp+8], rcx
	push	rbp
	push	rdi
	sub	rsp, 232				; 000000e8H
	lea	rbp, QWORD PTR [rsp+32]
	mov	rax, QWORD PTR this$[rbp]
	mov	rcx, rax
	call	??1?$_String_val@U?$_Simple_types@D@std@@@std@@QEAA@XZ
	lea	rsp, QWORD PTR [rbp+200]
	pop	rdi
	pop	rbp
	ret	0
??1?$_Compressed_pair@V?$allocator@D@std@@V?$_String_val@U?$_Simple_types@D@std@@@2@$00@std@@QEAA@XZ ENDP ; std::_Compressed_pair<std::allocator<char>,std::_String_val<std::_Simple_types<char> >,1>::~_Compressed_pair<std::allocator<char>,std::_String_val<std::_Simple_types<char> >,1>
_TEXT	ENDS
; Function compile flags: /Odtp /RTCsu /ZI
; File C:\Program Files\Microsoft Visual Studio\2022\Community\VC\Tools\MSVC\14.38.33130\include\xmemory
;	COMDAT ?_Get_first@?$_Compressed_pair@V?$allocator@D@std@@V?$_String_val@U?$_Simple_types@D@std@@@2@$00@std@@QEBAAEBV?$allocator@D@2@XZ
_TEXT	SEGMENT
this$ = 224
?_Get_first@?$_Compressed_pair@V?$allocator@D@std@@V?$_String_val@U?$_Simple_types@D@std@@@2@$00@std@@QEBAAEBV?$allocator@D@2@XZ PROC ; std::_Compressed_pair<std::allocator<char>,std::_String_val<std::_Simple_types<char> >,1>::_Get_first, COMDAT

; 1530 :     constexpr const _Ty1& _Get_first() const noexcept {

$LN3:
	mov	QWORD PTR [rsp+8], rcx
	push	rbp
	push	rdi
	sub	rsp, 232				; 000000e8H
	lea	rbp, QWORD PTR [rsp+32]
	lea	rcx, OFFSET FLAT:__53DEE440_xmemory
	call	__CheckForDebuggerJustMyCode

; 1531 :         return *this;

	mov	rax, QWORD PTR this$[rbp]

; 1532 :     }

	lea	rsp, QWORD PTR [rbp+200]
	pop	rdi
	pop	rbp
	ret	0
?_Get_first@?$_Compressed_pair@V?$allocator@D@std@@V?$_String_val@U?$_Simple_types@D@std@@@2@$00@std@@QEBAAEBV?$allocator@D@2@XZ ENDP ; std::_Compressed_pair<std::allocator<char>,std::_String_val<std::_Simple_types<char> >,1>::_Get_first
_TEXT	ENDS
; Function compile flags: /Odtp /RTCsu /ZI
; File C:\Program Files\Microsoft Visual Studio\2022\Community\VC\Tools\MSVC\14.38.33130\include\xmemory
;	COMDAT ?_Get_first@?$_Compressed_pair@V?$allocator@D@std@@V?$_String_val@U?$_Simple_types@D@std@@@2@$00@std@@QEAAAEAV?$allocator@D@2@XZ
_TEXT	SEGMENT
this$ = 224
?_Get_first@?$_Compressed_pair@V?$allocator@D@std@@V?$_String_val@U?$_Simple_types@D@std@@@2@$00@std@@QEAAAEAV?$allocator@D@2@XZ PROC ; std::_Compressed_pair<std::allocator<char>,std::_String_val<std::_Simple_types<char> >,1>::_Get_first, COMDAT

; 1526 :     constexpr _Ty1& _Get_first() noexcept {

$LN3:
	mov	QWORD PTR [rsp+8], rcx
	push	rbp
	push	rdi
	sub	rsp, 232				; 000000e8H
	lea	rbp, QWORD PTR [rsp+32]
	lea	rcx, OFFSET FLAT:__53DEE440_xmemory
	call	__CheckForDebuggerJustMyCode

; 1527 :         return *this;

	mov	rax, QWORD PTR this$[rbp]

; 1528 :     }

	lea	rsp, QWORD PTR [rbp+200]
	pop	rdi
	pop	rbp
	ret	0
?_Get_first@?$_Compressed_pair@V?$allocator@D@std@@V?$_String_val@U?$_Simple_types@D@std@@@2@$00@std@@QEAAAEAV?$allocator@D@2@XZ ENDP ; std::_Compressed_pair<std::allocator<char>,std::_String_val<std::_Simple_types<char> >,1>::_Get_first
_TEXT	ENDS
; Function compile flags: /Odtp /RTCsu /ZI
; File C:\Program Files\Microsoft Visual Studio\2022\Community\VC\Tools\MSVC\14.38.33130\include\xstring
;	COMDAT ?_Getal@?$basic_string@DU?$char_traits@D@std@@V?$allocator@D@2@@std@@AEBAAEBV?$allocator@D@2@XZ
_TEXT	SEGMENT
this$ = 224
?_Getal@?$basic_string@DU?$char_traits@D@std@@V?$allocator@D@2@@std@@AEBAAEBV?$allocator@D@2@XZ PROC ; std::basic_string<char,std::char_traits<char>,std::allocator<char> >::_Getal, COMDAT

; 4869 :     _CONSTEXPR20 const _Alty& _Getal() const noexcept {

$LN3:
	mov	QWORD PTR [rsp+8], rcx
	push	rbp
	push	rdi
	sub	rsp, 232				; 000000e8H
	lea	rbp, QWORD PTR [rsp+32]
	lea	rcx, OFFSET FLAT:__270D62DC_xstring
	call	__CheckForDebuggerJustMyCode

; 4870 :         return _Mypair._Get_first();

	mov	rax, QWORD PTR this$[rbp]
	mov	rcx, rax
	call	?_Get_first@?$_Compressed_pair@V?$allocator@D@std@@V?$_String_val@U?$_Simple_types@D@std@@@2@$00@std@@QEBAAEBV?$allocator@D@2@XZ ; std::_Compressed_pair<std::allocator<char>,std::_String_val<std::_Simple_types<char> >,1>::_Get_first

; 4871 :     }

	lea	rsp, QWORD PTR [rbp+200]
	pop	rdi
	pop	rbp
	ret	0
?_Getal@?$basic_string@DU?$char_traits@D@std@@V?$allocator@D@2@@std@@AEBAAEBV?$allocator@D@2@XZ ENDP ; std::basic_string<char,std::char_traits<char>,std::allocator<char> >::_Getal
_TEXT	ENDS
; Function compile flags: /Odtp /RTCsu /ZI
; File C:\Program Files\Microsoft Visual Studio\2022\Community\VC\Tools\MSVC\14.38.33130\include\xstring
;	COMDAT ?_Getal@?$basic_string@DU?$char_traits@D@std@@V?$allocator@D@2@@std@@AEAAAEAV?$allocator@D@2@XZ
_TEXT	SEGMENT
this$ = 224
?_Getal@?$basic_string@DU?$char_traits@D@std@@V?$allocator@D@2@@std@@AEAAAEAV?$allocator@D@2@XZ PROC ; std::basic_string<char,std::char_traits<char>,std::allocator<char> >::_Getal, COMDAT

; 4865 :     _CONSTEXPR20 _Alty& _Getal() noexcept {

$LN3:
	mov	QWORD PTR [rsp+8], rcx
	push	rbp
	push	rdi
	sub	rsp, 232				; 000000e8H
	lea	rbp, QWORD PTR [rsp+32]
	lea	rcx, OFFSET FLAT:__270D62DC_xstring
	call	__CheckForDebuggerJustMyCode

; 4866 :         return _Mypair._Get_first();

	mov	rax, QWORD PTR this$[rbp]
	mov	rcx, rax
	call	?_Get_first@?$_Compressed_pair@V?$allocator@D@std@@V?$_String_val@U?$_Simple_types@D@std@@@2@$00@std@@QEAAAEAV?$allocator@D@2@XZ ; std::_Compressed_pair<std::allocator<char>,std::_String_val<std::_Simple_types<char> >,1>::_Get_first

; 4867 :     }

	lea	rsp, QWORD PTR [rbp+200]
	pop	rdi
	pop	rbp
	ret	0
?_Getal@?$basic_string@DU?$char_traits@D@std@@V?$allocator@D@2@@std@@AEAAAEAV?$allocator@D@2@XZ ENDP ; std::basic_string<char,std::char_traits<char>,std::allocator<char> >::_Getal
_TEXT	ENDS
; Function compile flags: /Odtp /RTCsu /ZI
; File C:\Program Files\Microsoft Visual Studio\2022\Community\VC\Tools\MSVC\14.38.33130\include\xstring
;	COMDAT ?_Tidy_deallocate@?$basic_string@DU?$char_traits@D@std@@V?$allocator@D@2@@std@@AEAAXXZ
_TEXT	SEGMENT
_My_data$ = 8
_Ptr$1 = 40
_Al$2 = 72
$T3 = 292
this$ = 352
?_Tidy_deallocate@?$basic_string@DU?$char_traits@D@std@@V?$allocator@D@2@@std@@AEAAXXZ PROC ; std::basic_string<char,std::char_traits<char>,std::allocator<char> >::_Tidy_deallocate, COMDAT

; 4837 :     _CONSTEXPR20 void _Tidy_deallocate() noexcept { // initialize buffer, deallocating any storage

$LN4:
	mov	QWORD PTR [rsp+8], rcx
	push	rbp
	push	rdi
	sub	rsp, 360				; 00000168H
	lea	rbp, QWORD PTR [rsp+32]
	lea	rcx, OFFSET FLAT:__270D62DC_xstring
	call	__CheckForDebuggerJustMyCode

; 4838 :         auto& _My_data = _Mypair._Myval2;

	mov	rax, QWORD PTR this$[rbp]
	mov	QWORD PTR _My_data$[rbp], rax

; 4839 :         _My_data._Orphan_all();

	mov	rcx, QWORD PTR _My_data$[rbp]
	call	?_Orphan_all@_Container_base12@std@@QEAAXXZ ; std::_Container_base12::_Orphan_all

; 4840 :         if (_My_data._Large_mode_engaged()) {

	mov	rcx, QWORD PTR _My_data$[rbp]
	call	?_Large_mode_engaged@?$_String_val@U?$_Simple_types@D@std@@@std@@QEBA_NXZ ; std::_String_val<std::_Simple_types<char> >::_Large_mode_engaged
	movzx	eax, al
	test	eax, eax
	je	SHORT $LN2@Tidy_deall

; 4841 :             _ASAN_STRING_REMOVE(*this);
; 4842 :             const pointer _Ptr = _My_data._Bx._Ptr;

	mov	rax, QWORD PTR _My_data$[rbp]
	mov	rax, QWORD PTR [rax+8]
	mov	QWORD PTR _Ptr$1[rbp], rax

; 4843 :             auto& _Al          = _Getal();

	mov	rcx, QWORD PTR this$[rbp]
	call	?_Getal@?$basic_string@DU?$char_traits@D@std@@V?$allocator@D@2@@std@@AEAAAEAV?$allocator@D@2@XZ ; std::basic_string<char,std::char_traits<char>,std::allocator<char> >::_Getal
	mov	QWORD PTR _Al$2[rbp], rax

; 4844 :             _Destroy_in_place(_My_data._Bx._Ptr);

	mov	rax, QWORD PTR _My_data$[rbp]
	add	rax, 8
	mov	rcx, rax
	call	??$_Destroy_in_place@PEAD@std@@YAXAEAPEAD@Z ; std::_Destroy_in_place<char *>

; 4845 :             _My_data._Activate_SSO_buffer();

	mov	rcx, QWORD PTR _My_data$[rbp]
	call	?_Activate_SSO_buffer@?$_String_val@U?$_Simple_types@D@std@@@std@@QEAAXXZ ; std::_String_val<std::_Simple_types<char> >::_Activate_SSO_buffer

; 4846 :             _Deallocate_for_capacity(_Al, _Ptr, _My_data._Myres);

	mov	rax, QWORD PTR _My_data$[rbp]
	mov	r8, QWORD PTR [rax+32]
	mov	rdx, QWORD PTR _Ptr$1[rbp]
	mov	rcx, QWORD PTR _Al$2[rbp]
	call	?_Deallocate_for_capacity@?$basic_string@DU?$char_traits@D@std@@V?$allocator@D@2@@std@@CAXAEAV?$allocator@D@2@QEAD_K@Z ; std::basic_string<char,std::char_traits<char>,std::allocator<char> >::_Deallocate_for_capacity
$LN2@Tidy_deall:

; 4847 :         }
; 4848 : 
; 4849 :         _My_data._Mysize = 0;

	mov	rax, QWORD PTR _My_data$[rbp]
	mov	QWORD PTR [rax+24], 0

; 4850 :         _My_data._Myres  = _Small_string_capacity;

	mov	rax, QWORD PTR _My_data$[rbp]
	mov	QWORD PTR [rax+32], 15

; 4851 :         // the _Traits::assign is last so the codegen doesn't think the char write can alias this
; 4852 :         _Traits::assign(_My_data._Bx._Buf[0], _Elem());

	mov	BYTE PTR $T3[rbp], 0
	mov	eax, 1
	imul	rax, rax, 0
	mov	rcx, QWORD PTR _My_data$[rbp]
	lea	rax, QWORD PTR [rcx+rax+8]
	lea	rdx, QWORD PTR $T3[rbp]
	mov	rcx, rax
	call	?assign@?$_Narrow_char_traits@DH@std@@SAXAEADAEBD@Z ; std::_Narrow_char_traits<char,int>::assign

; 4853 :     }

	lea	rsp, QWORD PTR [rbp+328]
	pop	rdi
	pop	rbp
	ret	0
?_Tidy_deallocate@?$basic_string@DU?$char_traits@D@std@@V?$allocator@D@2@@std@@AEAAXXZ ENDP ; std::basic_string<char,std::char_traits<char>,std::allocator<char> >::_Tidy_deallocate
_TEXT	ENDS
; Function compile flags: /Odtp /RTCsu /ZI
; File C:\Program Files\Microsoft Visual Studio\2022\Community\VC\Tools\MSVC\14.38.33130\include\xstring
;	COMDAT ?_Eos@?$basic_string@DU?$char_traits@D@std@@V?$allocator@D@2@@std@@AEAAX_K@Z
_TEXT	SEGMENT
$T1 = 196
tv77 = 216
tv75 = 224
this$ = 272
_New_size$ = 280
?_Eos@?$basic_string@DU?$char_traits@D@std@@V?$allocator@D@2@@std@@AEAAX_K@Z PROC ; std::basic_string<char,std::char_traits<char>,std::allocator<char> >::_Eos, COMDAT

; 4821 :     _CONSTEXPR20 void _Eos(const size_type _New_size) noexcept { // set new length and null terminator

$LN3:
	mov	QWORD PTR [rsp+16], rdx
	mov	QWORD PTR [rsp+8], rcx
	push	rbp
	push	rdi
	sub	rsp, 280				; 00000118H
	lea	rbp, QWORD PTR [rsp+32]
	lea	rcx, OFFSET FLAT:__270D62DC_xstring
	call	__CheckForDebuggerJustMyCode

; 4822 :         _ASAN_STRING_MODIFY(*this, _Mypair._Myval2._Mysize, _New_size);
; 4823 :         _Traits::assign(_Mypair._Myval2._Myptr()[_Mypair._Myval2._Mysize = _New_size], _Elem());

	mov	BYTE PTR $T1[rbp], 0
	mov	rax, QWORD PTR this$[rbp]
	mov	rcx, rax
	call	?_Myptr@?$_String_val@U?$_Simple_types@D@std@@@std@@QEAAPEADXZ ; std::_String_val<std::_Simple_types<char> >::_Myptr
	mov	QWORD PTR tv77[rbp], rax
	mov	rax, QWORD PTR this$[rbp]
	mov	rcx, QWORD PTR _New_size$[rbp]
	mov	QWORD PTR [rax+24], rcx
	mov	rax, QWORD PTR _New_size$[rbp]
	mov	QWORD PTR tv75[rbp], rax
	mov	rax, QWORD PTR tv75[rbp]
	mov	rcx, QWORD PTR tv77[rbp]
	add	rcx, rax
	mov	rax, rcx
	lea	rdx, QWORD PTR $T1[rbp]
	mov	rcx, rax
	call	?assign@?$_Narrow_char_traits@DH@std@@SAXAEADAEBD@Z ; std::_Narrow_char_traits<char,int>::assign

; 4824 :     }

	lea	rsp, QWORD PTR [rbp+248]
	pop	rdi
	pop	rbp
	ret	0
?_Eos@?$basic_string@DU?$char_traits@D@std@@V?$allocator@D@2@@std@@AEAAX_K@Z ENDP ; std::basic_string<char,std::char_traits<char>,std::allocator<char> >::_Eos
_TEXT	ENDS
; Function compile flags: /Odtp /RTCsu /ZI
; File C:\Program Files\Microsoft Visual Studio\2022\Community\VC\Tools\MSVC\14.38.33130\include\xstring
;	COMDAT ?_Calculate_growth@?$basic_string@DU?$char_traits@D@std@@V?$allocator@D@2@@std@@AEBA_K_K@Z
_TEXT	SEGMENT
tv76 = 192
tv74 = 200
this$ = 240
_Requested$ = 248
?_Calculate_growth@?$basic_string@DU?$char_traits@D@std@@V?$allocator@D@2@@std@@AEBA_K_K@Z PROC ; std::basic_string<char,std::char_traits<char>,std::allocator<char> >::_Calculate_growth, COMDAT

; 4736 :     _NODISCARD _CONSTEXPR20 size_type _Calculate_growth(const size_type _Requested) const noexcept {

$LN3:
	mov	QWORD PTR [rsp+16], rdx
	mov	QWORD PTR [rsp+8], rcx
	push	rbp
	push	rdi
	sub	rsp, 248				; 000000f8H
	lea	rbp, QWORD PTR [rsp+32]
	lea	rcx, OFFSET FLAT:__270D62DC_xstring
	call	__CheckForDebuggerJustMyCode

; 4737 :         return _Calculate_growth(_Requested, _Mypair._Myval2._Myres, max_size());

	mov	rcx, QWORD PTR this$[rbp]
	call	?max_size@?$basic_string@DU?$char_traits@D@std@@V?$allocator@D@2@@std@@QEBA_KXZ ; std::basic_string<char,std::char_traits<char>,std::allocator<char> >::max_size
	mov	QWORD PTR tv76[rbp], rax
	mov	rax, QWORD PTR this$[rbp]
	mov	rax, QWORD PTR [rax+32]
	mov	QWORD PTR tv74[rbp], rax
	mov	r8, QWORD PTR tv76[rbp]
	mov	rdx, QWORD PTR tv74[rbp]
	mov	rcx, QWORD PTR _Requested$[rbp]
	call	?_Calculate_growth@?$basic_string@DU?$char_traits@D@std@@V?$allocator@D@2@@std@@CA_K_K00@Z ; std::basic_string<char,std::char_traits<char>,std::allocator<char> >::_Calculate_growth

; 4738 :     }

	lea	rsp, QWORD PTR [rbp+216]
	pop	rdi
	pop	rbp
	ret	0
?_Calculate_growth@?$basic_string@DU?$char_traits@D@std@@V?$allocator@D@2@@std@@AEBA_K_K@Z ENDP ; std::basic_string<char,std::char_traits<char>,std::allocator<char> >::_Calculate_growth
_TEXT	ENDS
; Function compile flags: /Odtp /RTCsu /ZI
; File C:\Program Files\Microsoft Visual Studio\2022\Community\VC\Tools\MSVC\14.38.33130\include\xstring
;	COMDAT ?_Calculate_growth@?$basic_string@DU?$char_traits@D@std@@V?$allocator@D@2@@std@@CA_K_K00@Z
_TEXT	SEGMENT
_Masked$ = 8
$T4 = 232
__$ArrayPad$ = 248
_Requested$ = 288
_Old$ = 296
_Max$ = 304
?_Calculate_growth@?$basic_string@DU?$char_traits@D@std@@V?$allocator@D@2@@std@@CA_K_K00@Z PROC ; std::basic_string<char,std::char_traits<char>,std::allocator<char> >::_Calculate_growth, COMDAT

; 4723 :         const size_type _Requested, const size_type _Old, const size_type _Max) noexcept {

$LN5:
	mov	QWORD PTR [rsp+24], r8
	mov	QWORD PTR [rsp+16], rdx
	mov	QWORD PTR [rsp+8], rcx
	push	rbp
	push	rdi
	sub	rsp, 296				; 00000128H
	lea	rbp, QWORD PTR [rsp+32]
	lea	rdi, QWORD PTR [rsp+32]
	mov	ecx, 18
	mov	eax, -858993460				; ccccccccH
	rep stosd
	mov	rcx, QWORD PTR [rsp+328]
	mov	rax, QWORD PTR __security_cookie
	xor	rax, rbp
	mov	QWORD PTR __$ArrayPad$[rbp], rax
	lea	rcx, OFFSET FLAT:__270D62DC_xstring
	call	__CheckForDebuggerJustMyCode

; 4724 :         const size_type _Masked = _Requested | _Alloc_mask;

	mov	rax, QWORD PTR _Requested$[rbp]
	or	rax, 15
	mov	QWORD PTR _Masked$[rbp], rax

; 4725 :         if (_Masked > _Max) { // the mask overflows, settle for max_size()

	mov	rax, QWORD PTR _Max$[rbp]
	cmp	QWORD PTR _Masked$[rbp], rax
	jbe	SHORT $LN2@Calculate_

; 4726 :             return _Max;

	mov	rax, QWORD PTR _Max$[rbp]
	jmp	SHORT $LN1@Calculate_
$LN2@Calculate_:

; 4727 :         }
; 4728 : 
; 4729 :         if (_Old > _Max - _Old / 2) { // similarly, geometric overflows

	xor	edx, edx
	mov	rax, QWORD PTR _Old$[rbp]
	mov	ecx, 2
	div	rcx
	mov	rcx, QWORD PTR _Max$[rbp]
	sub	rcx, rax
	mov	rax, rcx
	cmp	QWORD PTR _Old$[rbp], rax
	jbe	SHORT $LN3@Calculate_

; 4730 :             return _Max;

	mov	rax, QWORD PTR _Max$[rbp]
	jmp	SHORT $LN1@Calculate_
$LN3@Calculate_:

; 4731 :         }
; 4732 : 
; 4733 :         return (_STD max)(_Masked, _Old + _Old / 2);

	xor	edx, edx
	mov	rax, QWORD PTR _Old$[rbp]
	mov	ecx, 2
	div	rcx
	mov	rcx, QWORD PTR _Old$[rbp]
	add	rcx, rax
	mov	rax, rcx
	mov	QWORD PTR $T4[rbp], rax
	lea	rdx, QWORD PTR $T4[rbp]
	lea	rcx, QWORD PTR _Masked$[rbp]
	call	??$max@_K@std@@YAAEB_KAEB_K0@Z		; std::max<unsigned __int64>
	mov	rax, QWORD PTR [rax]
$LN1@Calculate_:

; 4734 :     }

	mov	rdi, rax
	lea	rcx, QWORD PTR [rbp-32]
	lea	rdx, OFFSET FLAT:?_Calculate_growth@?$basic_string@DU?$char_traits@D@std@@V?$allocator@D@2@@std@@CA_K_K00@Z$rtcFrameData
	call	_RTC_CheckStackVars
	mov	rax, rdi
	mov	rcx, QWORD PTR __$ArrayPad$[rbp]
	xor	rcx, rbp
	call	__security_check_cookie
	lea	rsp, QWORD PTR [rbp+264]
	pop	rdi
	pop	rbp
	ret	0
?_Calculate_growth@?$basic_string@DU?$char_traits@D@std@@V?$allocator@D@2@@std@@CA_K_K00@Z ENDP ; std::basic_string<char,std::char_traits<char>,std::allocator<char> >::_Calculate_growth
_TEXT	ENDS
; Function compile flags: /Odtp /RTCsu /ZI
; File C:\Program Files\Microsoft Visual Studio\2022\Community\VC\Tools\MSVC\14.38.33130\include\xstring
;	COMDAT ?max_size@?$basic_string@DU?$char_traits@D@std@@V?$allocator@D@2@@std@@QEBA_KXZ
_TEXT	SEGMENT
_Alloc_max$ = 8
_Storage_max$ = 40
$T4 = 264
$T5 = 296
$T6 = 328
__$ArrayPad$ = 344
this$ = 384
?max_size@?$basic_string@DU?$char_traits@D@std@@V?$allocator@D@2@@std@@QEBA_KXZ PROC ; std::basic_string<char,std::char_traits<char>,std::allocator<char> >::max_size, COMDAT

; 4126 :     _NODISCARD _CONSTEXPR20 size_type max_size() const noexcept {

$LN3:
	mov	QWORD PTR [rsp+8], rcx
	push	rbp
	push	rdi
	sub	rsp, 392				; 00000188H
	lea	rbp, QWORD PTR [rsp+32]
	lea	rdi, QWORD PTR [rsp+32]
	mov	ecx, 42					; 0000002aH
	mov	eax, -858993460				; ccccccccH
	rep stosd
	mov	rcx, QWORD PTR [rsp+424]
	mov	rax, QWORD PTR __security_cookie
	xor	rax, rbp
	mov	QWORD PTR __$ArrayPad$[rbp], rax
	lea	rcx, OFFSET FLAT:__270D62DC_xstring
	call	__CheckForDebuggerJustMyCode

; 4127 :         const size_type _Alloc_max   = _Alty_traits::max_size(_Getal());

	mov	rcx, QWORD PTR this$[rbp]
	call	?_Getal@?$basic_string@DU?$char_traits@D@std@@V?$allocator@D@2@@std@@AEBAAEBV?$allocator@D@2@XZ ; std::basic_string<char,std::char_traits<char>,std::allocator<char> >::_Getal
	mov	rcx, rax
	call	?max_size@?$_Default_allocator_traits@V?$allocator@D@std@@@std@@SA_KAEBV?$allocator@D@2@@Z ; std::_Default_allocator_traits<std::allocator<char> >::max_size
	mov	QWORD PTR _Alloc_max$[rbp], rax

; 4128 :         const size_type _Storage_max = // can always store small string

	mov	QWORD PTR $T4[rbp], 16
	lea	rdx, QWORD PTR $T4[rbp]
	lea	rcx, QWORD PTR _Alloc_max$[rbp]
	call	??$max@_K@std@@YAAEB_KAEB_K0@Z		; std::max<unsigned __int64>
	mov	rax, QWORD PTR [rax]
	mov	QWORD PTR _Storage_max$[rbp], rax

; 4129 :             (_STD max)(_Alloc_max, static_cast<size_type>(_BUF_SIZE));
; 4130 :         return (_STD min)(static_cast<size_type>((numeric_limits<difference_type>::max)()),

	mov	rax, QWORD PTR _Storage_max$[rbp]
	dec	rax
	mov	QWORD PTR $T5[rbp], rax
	call	?max@?$numeric_limits@_J@std@@SA_JXZ	; std::numeric_limits<__int64>::max
	mov	QWORD PTR $T6[rbp], rax
	lea	rdx, QWORD PTR $T5[rbp]
	lea	rcx, QWORD PTR $T6[rbp]
	call	??$min@_K@std@@YAAEB_KAEB_K0@Z		; std::min<unsigned __int64>
	mov	rax, QWORD PTR [rax]

; 4131 :             _Storage_max - 1 // -1 is for null terminator and/or npos
; 4132 :         );
; 4133 :     }

	mov	rdi, rax
	lea	rcx, QWORD PTR [rbp-32]
	lea	rdx, OFFSET FLAT:?max_size@?$basic_string@DU?$char_traits@D@std@@V?$allocator@D@2@@std@@QEBA_KXZ$rtcFrameData
	call	_RTC_CheckStackVars
	mov	rax, rdi
	mov	rcx, QWORD PTR __$ArrayPad$[rbp]
	xor	rcx, rbp
	call	__security_check_cookie
	lea	rsp, QWORD PTR [rbp+360]
	pop	rdi
	pop	rbp
	ret	0
?max_size@?$basic_string@DU?$char_traits@D@std@@V?$allocator@D@2@@std@@QEBA_KXZ ENDP ; std::basic_string<char,std::char_traits<char>,std::allocator<char> >::max_size
_TEXT	ENDS
; Function compile flags: /Odtp /RTCsu /ZI
; File C:\Program Files\Microsoft Visual Studio\2022\Community\VC\Tools\MSVC\14.38.33130\include\xstring
;	COMDAT ?push_back@?$basic_string@DU?$char_traits@D@std@@V?$allocator@D@2@@std@@QEAAXD@Z
_TEXT	SEGMENT
_Old_size$ = 8
_Ptr$1 = 40
$T2 = 260
$T3 = 292
this$ = 352
_Ch$ = 360
?push_back@?$basic_string@DU?$char_traits@D@std@@V?$allocator@D@2@@std@@QEAAXD@Z PROC ; std::basic_string<char,std::char_traits<char>,std::allocator<char> >::push_back, COMDAT

; 4043 :     _CONSTEXPR20 void push_back(const _Elem _Ch) { // insert element at end

$LN4:
	mov	BYTE PTR [rsp+16], dl
	mov	QWORD PTR [rsp+8], rcx
	push	rbp
	push	rdi
	sub	rsp, 360				; 00000168H
	lea	rbp, QWORD PTR [rsp+32]
	lea	rcx, OFFSET FLAT:__270D62DC_xstring
	call	__CheckForDebuggerJustMyCode

; 4044 :         const size_type _Old_size = _Mypair._Myval2._Mysize;

	mov	rax, QWORD PTR this$[rbp]
	mov	rax, QWORD PTR [rax+24]
	mov	QWORD PTR _Old_size$[rbp], rax

; 4045 :         if (_Old_size < _Mypair._Myval2._Myres) {

	mov	rax, QWORD PTR this$[rbp]
	mov	rax, QWORD PTR [rax+32]
	cmp	QWORD PTR _Old_size$[rbp], rax
	jae	SHORT $LN2@push_back

; 4046 :             _ASAN_STRING_MODIFY(*this, _Old_size, _Old_size + 1);
; 4047 :             _Mypair._Myval2._Mysize = _Old_size + 1;

	mov	rax, QWORD PTR _Old_size$[rbp]
	inc	rax
	mov	rcx, QWORD PTR this$[rbp]
	mov	QWORD PTR [rcx+24], rax

; 4048 :             _Elem* const _Ptr       = _Mypair._Myval2._Myptr();

	mov	rax, QWORD PTR this$[rbp]
	mov	rcx, rax
	call	?_Myptr@?$_String_val@U?$_Simple_types@D@std@@@std@@QEAAPEADXZ ; std::_String_val<std::_Simple_types<char> >::_Myptr
	mov	QWORD PTR _Ptr$1[rbp], rax

; 4049 :             _Traits::assign(_Ptr[_Old_size], _Ch);

	mov	rax, QWORD PTR _Old_size$[rbp]
	mov	rcx, QWORD PTR _Ptr$1[rbp]
	add	rcx, rax
	mov	rax, rcx
	lea	rdx, QWORD PTR _Ch$[rbp]
	mov	rcx, rax
	call	?assign@?$_Narrow_char_traits@DH@std@@SAXAEADAEBD@Z ; std::_Narrow_char_traits<char,int>::assign

; 4050 :             _Traits::assign(_Ptr[_Old_size + 1], _Elem());

	mov	BYTE PTR $T2[rbp], 0
	mov	rax, QWORD PTR _Ptr$1[rbp]
	mov	rcx, QWORD PTR _Old_size$[rbp]
	lea	rax, QWORD PTR [rax+rcx+1]
	lea	rdx, QWORD PTR $T2[rbp]
	mov	rcx, rax
	call	?assign@?$_Narrow_char_traits@DH@std@@SAXAEADAEBD@Z ; std::_Narrow_char_traits<char,int>::assign

; 4051 :             return;

	jmp	SHORT $LN1@push_back
$LN2@push_back:

; 4052 :         }
; 4053 : 
; 4054 :         _Reallocate_grow_by(

	movzx	r9d, BYTE PTR _Ch$[rbp]
	movzx	r8d, BYTE PTR $T3[rbp]
	mov	edx, 1
	mov	rcx, QWORD PTR this$[rbp]
	call	??$_Reallocate_grow_by@V<lambda_1>@?1??push_back@?$basic_string@DU?$char_traits@D@std@@V?$allocator@D@2@@std@@QEAAXD@Z@D@?$basic_string@DU?$char_traits@D@std@@V?$allocator@D@2@@std@@AEAAAEAV01@_KV<lambda_1>@?1??push_back@01@QEAAXD@Z@D@Z ; std::basic_string<char,std::char_traits<char>,std::allocator<char> >::_Reallocate_grow_by<`std::basic_string<char,std::char_traits<char>,std::allocator<char> >::push_back'::`2'::<lambda_1>,char>
$LN1@push_back:

; 4055 :             1,
; 4056 :             [](_Elem* const _New_ptr, const _Elem* const _Old_ptr, const size_type _Old_size, const _Elem _Ch) {
; 4057 :                 _Traits::copy(_New_ptr, _Old_ptr, _Old_size);
; 4058 :                 _Traits::assign(_New_ptr[_Old_size], _Ch);
; 4059 :                 _Traits::assign(_New_ptr[_Old_size + 1], _Elem());
; 4060 :             },
; 4061 :             _Ch);
; 4062 :     }

	lea	rsp, QWORD PTR [rbp+328]
	pop	rdi
	pop	rbp
	ret	0
?push_back@?$basic_string@DU?$char_traits@D@std@@V?$allocator@D@2@@std@@QEAAXD@Z ENDP ; std::basic_string<char,std::char_traits<char>,std::allocator<char> >::push_back
_TEXT	ENDS
; Function compile flags: /Odtp /RTCsu /ZI
; File C:\Program Files\Microsoft Visual Studio\2022\Community\VC\Tools\MSVC\14.38.33130\include\xstring
;	COMDAT ?erase@?$basic_string@DU?$char_traits@D@std@@V?$allocator@D@2@@std@@QEAAAEAV12@_K@Z
_TEXT	SEGMENT
tv69 = 192
this$ = 240
_Off$ = 248
?erase@?$basic_string@DU?$char_traits@D@std@@V?$allocator@D@2@@std@@QEAAAEAV12@_K@Z PROC ; std::basic_string<char,std::char_traits<char>,std::allocator<char> >::erase, COMDAT

; 3624 :     _CONSTEXPR20 basic_string& erase(const size_type _Off = 0) { // erase elements [_Off, ...)

$LN3:
	mov	QWORD PTR [rsp+16], rdx
	mov	QWORD PTR [rsp+8], rcx
	push	rbp
	push	rdi
	sub	rsp, 248				; 000000f8H
	lea	rbp, QWORD PTR [rsp+32]
	lea	rcx, OFFSET FLAT:__270D62DC_xstring
	call	__CheckForDebuggerJustMyCode

; 3625 :         _Mypair._Myval2._Check_offset(_Off);

	mov	rax, QWORD PTR this$[rbp]
	mov	QWORD PTR tv69[rbp], rax
	mov	rdx, QWORD PTR _Off$[rbp]
	mov	rcx, QWORD PTR tv69[rbp]
	call	?_Check_offset@?$_String_val@U?$_Simple_types@D@std@@@std@@QEBAX_K@Z ; std::_String_val<std::_Simple_types<char> >::_Check_offset

; 3626 :         _Eos(_Off);

	mov	rdx, QWORD PTR _Off$[rbp]
	mov	rcx, QWORD PTR this$[rbp]
	call	?_Eos@?$basic_string@DU?$char_traits@D@std@@V?$allocator@D@2@@std@@AEAAX_K@Z ; std::basic_string<char,std::char_traits<char>,std::allocator<char> >::_Eos

; 3627 :         return *this;

	mov	rax, QWORD PTR this$[rbp]

; 3628 :     }

	lea	rsp, QWORD PTR [rbp+216]
	pop	rdi
	pop	rbp
	ret	0
?erase@?$basic_string@DU?$char_traits@D@std@@V?$allocator@D@2@@std@@QEAAAEAV12@_K@Z ENDP ; std::basic_string<char,std::char_traits<char>,std::allocator<char> >::erase
_TEXT	ENDS
; Function compile flags: /Odtp /RTCsu /ZI
; File C:\Program Files\Microsoft Visual Studio\2022\Community\VC\Tools\MSVC\14.38.33130\include\xstring
;	COMDAT ??1?$basic_string@DU?$char_traits@D@std@@V?$allocator@D@2@@std@@QEAA@XZ
_TEXT	SEGMENT
_Alproxy$ = 8
$S19$ = 36
_To_delete$ = 72
__$ArrayPad$ = 280
this$ = 320
??1?$basic_string@DU?$char_traits@D@std@@V?$allocator@D@2@@std@@QEAA@XZ PROC ; std::basic_string<char,std::char_traits<char>,std::allocator<char> >::~basic_string<char,std::char_traits<char>,std::allocator<char> >, COMDAT

; 3138 :     _CONSTEXPR20 ~basic_string() noexcept {

$LN3:
	mov	QWORD PTR [rsp+8], rcx
	push	rbp
	push	rdi
	sub	rsp, 328				; 00000148H
	lea	rbp, QWORD PTR [rsp+32]
	lea	rdi, QWORD PTR [rsp+32]
	mov	ecx, 26
	mov	eax, -858993460				; ccccccccH
	rep stosd
	mov	rcx, QWORD PTR [rsp+360]
	mov	rax, QWORD PTR __security_cookie
	xor	rax, rbp
	mov	QWORD PTR __$ArrayPad$[rbp], rax
	lea	rcx, OFFSET FLAT:__270D62DC_xstring
	call	__CheckForDebuggerJustMyCode

; 3139 :         _Tidy_deallocate();

	mov	rcx, QWORD PTR this$[rbp]
	call	?_Tidy_deallocate@?$basic_string@DU?$char_traits@D@std@@V?$allocator@D@2@@std@@AEAAXXZ ; std::basic_string<char,std::char_traits<char>,std::allocator<char> >::_Tidy_deallocate

; 3140 : #if _ITERATOR_DEBUG_LEVEL != 0
; 3141 :         auto&& _Alproxy          = _GET_PROXY_ALLOCATOR(_Alty, _Getal());

	mov	rcx, QWORD PTR this$[rbp]
	call	?_Getal@?$basic_string@DU?$char_traits@D@std@@V?$allocator@D@2@@std@@AEAAAEAV?$allocator@D@2@XZ ; std::basic_string<char,std::char_traits<char>,std::allocator<char> >::_Getal
	mov	rdx, rax
	lea	rcx, QWORD PTR $S19$[rbp]
	call	??$?0D@?$allocator@U_Container_proxy@std@@@std@@QEAA@AEBV?$allocator@D@1@@Z ; std::allocator<std::_Container_proxy>::allocator<std::_Container_proxy><char>
	lea	rax, QWORD PTR $S19$[rbp]
	mov	QWORD PTR _Alproxy$[rbp], rax

; 3142 :         const auto _To_delete    = _Mypair._Myval2._Myproxy;

	mov	rax, QWORD PTR this$[rbp]
	mov	rax, QWORD PTR [rax]
	mov	QWORD PTR _To_delete$[rbp], rax

; 3143 :         _Mypair._Myval2._Myproxy = nullptr;

	mov	rax, QWORD PTR this$[rbp]
	mov	QWORD PTR [rax], 0

; 3144 :         _Delete_plain_internal(_Alproxy, _To_delete);

	mov	rdx, QWORD PTR _To_delete$[rbp]
	mov	rcx, QWORD PTR _Alproxy$[rbp]
	call	??$_Delete_plain_internal@V?$allocator@U_Container_proxy@std@@@std@@@std@@YAXAEAV?$allocator@U_Container_proxy@std@@@0@QEAU_Container_proxy@0@@Z ; std::_Delete_plain_internal<std::allocator<std::_Container_proxy> >

; 3145 : #endif // _ITERATOR_DEBUG_LEVEL != 0
; 3146 :     }

	mov	rax, QWORD PTR this$[rbp]
	mov	rcx, rax
	call	??1?$_Compressed_pair@V?$allocator@D@std@@V?$_String_val@U?$_Simple_types@D@std@@@2@$00@std@@QEAA@XZ
	lea	rcx, QWORD PTR [rbp-32]
	lea	rdx, OFFSET FLAT:??1?$basic_string@DU?$char_traits@D@std@@V?$allocator@D@2@@std@@QEAA@XZ$rtcFrameData
	call	_RTC_CheckStackVars
	mov	rcx, QWORD PTR __$ArrayPad$[rbp]
	xor	rcx, rbp
	call	__security_check_cookie
	lea	rsp, QWORD PTR [rbp+296]
	pop	rdi
	pop	rbp
	ret	0
??1?$basic_string@DU?$char_traits@D@std@@V?$allocator@D@2@@std@@QEAA@XZ ENDP ; std::basic_string<char,std::char_traits<char>,std::allocator<char> >::~basic_string<char,std::char_traits<char>,std::allocator<char> >
_TEXT	ENDS
; Function compile flags: /Odtp /RTCsu /ZI
; File C:\Program Files\Microsoft Visual Studio\2022\Community\VC\Tools\MSVC\14.38.33130\include\xstring
;	COMDAT ?_Deallocate_for_capacity@?$basic_string@DU?$char_traits@D@std@@V?$allocator@D@2@@std@@CAXAEAV?$allocator@D@2@QEAD_K@Z
_TEXT	SEGMENT
_Al$ = 224
_Old_ptr$ = 232
_Capacity$ = 240
?_Deallocate_for_capacity@?$basic_string@DU?$char_traits@D@std@@V?$allocator@D@2@@std@@CAXAEAV?$allocator@D@2@QEAD_K@Z PROC ; std::basic_string<char,std::char_traits<char>,std::allocator<char> >::_Deallocate_for_capacity, COMDAT

; 2628 :         _Alty& _Al, const pointer _Old_ptr, const size_type _Capacity) noexcept {

$LN3:
	mov	QWORD PTR [rsp+24], r8
	mov	QWORD PTR [rsp+16], rdx
	mov	QWORD PTR [rsp+8], rcx
	push	rbp
	push	rdi
	sub	rsp, 232				; 000000e8H
	lea	rbp, QWORD PTR [rsp+32]
	lea	rcx, OFFSET FLAT:__270D62DC_xstring
	call	__CheckForDebuggerJustMyCode

; 2629 :         _STL_INTERNAL_CHECK(_Capacity > _Small_string_capacity);
; 2630 :         _Al.deallocate(_Old_ptr, _Capacity + 1); // +1 for null terminator

	mov	rax, QWORD PTR _Capacity$[rbp]
	inc	rax
	mov	r8, rax
	mov	rdx, QWORD PTR _Old_ptr$[rbp]
	mov	rcx, QWORD PTR _Al$[rbp]
	call	?deallocate@?$allocator@D@std@@QEAAXQEAD_K@Z ; std::allocator<char>::deallocate
	npad	1

; 2631 :     }

	lea	rsp, QWORD PTR [rbp+200]
	pop	rdi
	pop	rbp
	ret	0
?_Deallocate_for_capacity@?$basic_string@DU?$char_traits@D@std@@V?$allocator@D@2@@std@@CAXAEAV?$allocator@D@2@QEAD_K@Z ENDP ; std::basic_string<char,std::char_traits<char>,std::allocator<char> >::_Deallocate_for_capacity
_TEXT	ENDS
; Function compile flags: /Odtp /RTCsu /ZI
; File C:\Program Files\Microsoft Visual Studio\2022\Community\VC\Tools\MSVC\14.38.33130\include\xstring
;	COMDAT ??0?$basic_string@DU?$char_traits@D@std@@V?$allocator@D@2@@std@@QEAA@QEBD@Z
_TEXT	SEGMENT
$T1 = 196
tv69 = 216
this$ = 256
_Ptr$ = 264
??0?$basic_string@DU?$char_traits@D@std@@V?$allocator@D@2@@std@@QEAA@QEBD@Z PROC ; std::basic_string<char,std::char_traits<char>,std::allocator<char> >::basic_string<char,std::char_traits<char>,std::allocator<char> >, COMDAT

; 2545 :     _CONSTEXPR20 basic_string(_In_z_ const _Elem* const _Ptr) : _Mypair(_Zero_then_variadic_args_t{}) {

$LN4:
	mov	QWORD PTR [rsp+16], rdx
	mov	QWORD PTR [rsp+8], rcx
	push	rbp
	push	rdi
	sub	rsp, 264				; 00000108H
	lea	rbp, QWORD PTR [rsp+32]
	lea	rcx, OFFSET FLAT:__270D62DC_xstring
	call	__CheckForDebuggerJustMyCode
	mov	rax, QWORD PTR this$[rbp]
	mov	QWORD PTR tv69[rbp], rax
	movzx	edx, BYTE PTR $T1[rbp]
	mov	rcx, QWORD PTR tv69[rbp]
	call	??$?0$$V@?$_Compressed_pair@V?$allocator@D@std@@V?$_String_val@U?$_Simple_types@D@std@@@2@$00@std@@QEAA@U_Zero_then_variadic_args_t@1@@Z ; std::_Compressed_pair<std::allocator<char>,std::_String_val<std::_Simple_types<char> >,1>::_Compressed_pair<std::allocator<char>,std::_String_val<std::_Simple_types<char> >,1><>
	npad	1

; 2546 :         _Construct<_Construct_strategy::_From_ptr>(_Ptr, _Convert_size<size_type>(_Traits::length(_Ptr)));

	mov	rcx, QWORD PTR _Ptr$[rbp]
	call	?length@?$_Narrow_char_traits@DH@std@@SA_KQEBD@Z ; std::_Narrow_char_traits<char,int>::length
	mov	rcx, rax
	call	??$_Convert_size@_K_K@std@@YA_K_K@Z	; std::_Convert_size<unsigned __int64,unsigned __int64>
	mov	r8, rax
	mov	rdx, QWORD PTR _Ptr$[rbp]
	mov	rcx, QWORD PTR this$[rbp]
	call	??$_Construct@$00PEBD@?$basic_string@DU?$char_traits@D@std@@V?$allocator@D@2@@std@@AEAAXQEBD_K@Z ; std::basic_string<char,std::char_traits<char>,std::allocator<char> >::_Construct<1,char const *>
	npad	1

; 2547 :     }

	mov	rax, QWORD PTR this$[rbp]
	lea	rsp, QWORD PTR [rbp+232]
	pop	rdi
	pop	rbp
	ret	0
??0?$basic_string@DU?$char_traits@D@std@@V?$allocator@D@2@@std@@QEAA@QEBD@Z ENDP ; std::basic_string<char,std::char_traits<char>,std::allocator<char> >::basic_string<char,std::char_traits<char>,std::allocator<char> >
_TEXT	ENDS
; Function compile flags: /Odtp /RTCsu /ZI
;	COMDAT text$x
text$x	SEGMENT
$T1 = 196
tv69 = 216
this$ = 256
_Ptr$ = 264
?dtor$0@?0???0?$basic_string@DU?$char_traits@D@std@@V?$allocator@D@2@@std@@QEAA@QEBD@Z@4HA PROC ; `std::basic_string<char,std::char_traits<char>,std::allocator<char> >::basic_string<char,std::char_traits<char>,std::allocator<char> >'::`1'::dtor$0
	mov	QWORD PTR [rsp+8], rcx
	mov	QWORD PTR [rsp+16], rdx
	push	rbp
	push	rdi
	sub	rsp, 40					; 00000028H
	lea	rbp, QWORD PTR [rdx+32]
	mov	rcx, QWORD PTR this$[rbp]
	call	??1?$_Compressed_pair@V?$allocator@D@std@@V?$_String_val@U?$_Simple_types@D@std@@@2@$00@std@@QEAA@XZ
	add	rsp, 40					; 00000028H
	pop	rdi
	pop	rbp
	ret	0
?dtor$0@?0???0?$basic_string@DU?$char_traits@D@std@@V?$allocator@D@2@@std@@QEAA@QEBD@Z@4HA ENDP ; `std::basic_string<char,std::char_traits<char>,std::allocator<char> >::basic_string<char,std::char_traits<char>,std::allocator<char> >'::`1'::dtor$0
text$x	ENDS
; Function compile flags: /Odtp /RTCsu /ZI
; File C:\Program Files\Microsoft Visual Studio\2022\Community\VC\Tools\MSVC\14.38.33130\include\xstring
;	COMDAT ??0?$basic_string@DU?$char_traits@D@std@@V?$allocator@D@2@@std@@QEAA@AEBV01@@Z
_TEXT	SEGMENT
$T1 = 196
$T2 = 228
$T3 = 260
tv94 = 280
tv78 = 280
tv92 = 288
tv76 = 288
this$ = 336
_Right$ = 344
??0?$basic_string@DU?$char_traits@D@std@@V?$allocator@D@2@@std@@QEAA@AEBV01@@Z PROC ; std::basic_string<char,std::char_traits<char>,std::allocator<char> >::basic_string<char,std::char_traits<char>,std::allocator<char> >, COMDAT

; 2497 :         : _Mypair(_One_then_variadic_args_t{}, _Alty_traits::select_on_container_copy_construction(_Right._Getal())) {

$LN4:
	mov	QWORD PTR [rsp+16], rdx
	mov	QWORD PTR [rsp+8], rcx
	push	rbp
	push	rdi
	sub	rsp, 344				; 00000158H
	lea	rbp, QWORD PTR [rsp+32]
	lea	rcx, OFFSET FLAT:__270D62DC_xstring
	call	__CheckForDebuggerJustMyCode
	mov	rax, QWORD PTR this$[rbp]
	mov	QWORD PTR tv78[rbp], rax
	mov	rcx, QWORD PTR _Right$[rbp]
	call	?_Getal@?$basic_string@DU?$char_traits@D@std@@V?$allocator@D@2@@std@@AEBAAEBV?$allocator@D@2@XZ ; std::basic_string<char,std::char_traits<char>,std::allocator<char> >::_Getal
	mov	rdx, rax
	lea	rcx, QWORD PTR $T1[rbp]
	call	?select_on_container_copy_construction@?$_Default_allocator_traits@V?$allocator@D@std@@@std@@SA?AV?$allocator@D@2@AEBV32@@Z ; std::_Default_allocator_traits<std::allocator<char> >::select_on_container_copy_construction
	mov	QWORD PTR tv76[rbp], rax
	movzx	eax, BYTE PTR $T2[rbp]
	mov	BYTE PTR $T3[rbp], al
	mov	r8, QWORD PTR tv76[rbp]
	movzx	edx, BYTE PTR $T3[rbp]
	mov	rcx, QWORD PTR tv78[rbp]
	call	??$?0V?$allocator@D@std@@$$V@?$_Compressed_pair@V?$allocator@D@std@@V?$_String_val@U?$_Simple_types@D@std@@@2@$00@std@@QEAA@U_One_then_variadic_args_t@1@$$QEAV?$allocator@D@1@@Z ; std::_Compressed_pair<std::allocator<char>,std::_String_val<std::_Simple_types<char> >,1>::_Compressed_pair<std::allocator<char>,std::_String_val<std::_Simple_types<char> >,1><std::allocator<char> >
	npad	1

; 2498 :         _Construct<_Construct_strategy::_From_string>(_Right._Mypair._Myval2._Myptr(), _Right._Mypair._Myval2._Mysize);

	mov	rax, QWORD PTR _Right$[rbp]
	mov	rax, QWORD PTR [rax+24]
	mov	QWORD PTR tv94[rbp], rax
	mov	rax, QWORD PTR _Right$[rbp]
	mov	rcx, rax
	call	?_Myptr@?$_String_val@U?$_Simple_types@D@std@@@std@@QEBAPEBDXZ ; std::_String_val<std::_Simple_types<char> >::_Myptr
	mov	QWORD PTR tv92[rbp], rax
	mov	r8, QWORD PTR tv94[rbp]
	mov	rdx, QWORD PTR tv92[rbp]
	mov	rcx, QWORD PTR this$[rbp]
	call	??$_Construct@$01PEBD@?$basic_string@DU?$char_traits@D@std@@V?$allocator@D@2@@std@@AEAAXQEBD_K@Z ; std::basic_string<char,std::char_traits<char>,std::allocator<char> >::_Construct<2,char const *>
	npad	1

; 2499 :     }

	mov	rax, QWORD PTR this$[rbp]
	lea	rsp, QWORD PTR [rbp+312]
	pop	rdi
	pop	rbp
	ret	0
??0?$basic_string@DU?$char_traits@D@std@@V?$allocator@D@2@@std@@QEAA@AEBV01@@Z ENDP ; std::basic_string<char,std::char_traits<char>,std::allocator<char> >::basic_string<char,std::char_traits<char>,std::allocator<char> >
_TEXT	ENDS
; Function compile flags: /Odtp /RTCsu /ZI
;	COMDAT text$x
text$x	SEGMENT
$T1 = 196
$T2 = 228
$T3 = 260
tv94 = 280
tv78 = 280
tv92 = 288
tv76 = 288
this$ = 336
_Right$ = 344
?dtor$0@?0???0?$basic_string@DU?$char_traits@D@std@@V?$allocator@D@2@@std@@QEAA@AEBV01@@Z@4HA PROC ; `std::basic_string<char,std::char_traits<char>,std::allocator<char> >::basic_string<char,std::char_traits<char>,std::allocator<char> >'::`1'::dtor$0
	mov	QWORD PTR [rsp+8], rcx
	mov	QWORD PTR [rsp+16], rdx
	push	rbp
	push	rdi
	sub	rsp, 40					; 00000028H
	lea	rbp, QWORD PTR [rdx+32]
	mov	rcx, QWORD PTR this$[rbp]
	call	??1?$_Compressed_pair@V?$allocator@D@std@@V?$_String_val@U?$_Simple_types@D@std@@@2@$00@std@@QEAA@XZ
	add	rsp, 40					; 00000028H
	pop	rdi
	pop	rbp
	ret	0
?dtor$0@?0???0?$basic_string@DU?$char_traits@D@std@@V?$allocator@D@2@@std@@QEAA@AEBV01@@Z@4HA ENDP ; `std::basic_string<char,std::char_traits<char>,std::allocator<char> >::basic_string<char,std::char_traits<char>,std::allocator<char> >'::`1'::dtor$0
text$x	ENDS
; Function compile flags: /Odtp /RTCsu /ZI
;	COMDAT ??1?$_String_val@U?$_Simple_types@D@std@@@std@@QEAA@XZ
_TEXT	SEGMENT
this$ = 224
??1?$_String_val@U?$_Simple_types@D@std@@@std@@QEAA@XZ PROC ; std::_String_val<std::_Simple_types<char> >::~_String_val<std::_Simple_types<char> >, COMDAT
$LN3:
	mov	QWORD PTR [rsp+8], rcx
	push	rbp
	push	rdi
	sub	rsp, 232				; 000000e8H
	lea	rbp, QWORD PTR [rsp+32]
	mov	rax, QWORD PTR this$[rbp]
	add	rax, 8
	mov	rcx, rax
	call	??1_Bxty@?$_String_val@U?$_Simple_types@D@std@@@std@@QEAA@XZ ; std::_String_val<std::_Simple_types<char> >::_Bxty::~_Bxty
	lea	rsp, QWORD PTR [rbp+200]
	pop	rdi
	pop	rbp
	ret	0
??1?$_String_val@U?$_Simple_types@D@std@@@std@@QEAA@XZ ENDP ; std::_String_val<std::_Simple_types<char> >::~_String_val<std::_Simple_types<char> >
_TEXT	ENDS
; Function compile flags: /Odtp /RTCsu /ZI
; File C:\Program Files\Microsoft Visual Studio\2022\Community\VC\Tools\MSVC\14.38.33130\include\xstring
;	COMDAT ??1_Bxty@?$_String_val@U?$_Simple_types@D@std@@@std@@QEAA@XZ
_TEXT	SEGMENT
this$ = 224
??1_Bxty@?$_String_val@U?$_Simple_types@D@std@@@std@@QEAA@XZ PROC ; std::_String_val<std::_Simple_types<char> >::_Bxty::~_Bxty, COMDAT

; 2285 :         _CONSTEXPR20 ~_Bxty() noexcept {} // user-provided, for fancy pointers

$LN3:
	mov	QWORD PTR [rsp+8], rcx
	push	rbp
	push	rdi
	sub	rsp, 232				; 000000e8H
	lea	rbp, QWORD PTR [rsp+32]
	lea	rcx, OFFSET FLAT:__270D62DC_xstring
	call	__CheckForDebuggerJustMyCode
	lea	rsp, QWORD PTR [rbp+200]
	pop	rdi
	pop	rbp
	ret	0
??1_Bxty@?$_String_val@U?$_Simple_types@D@std@@@std@@QEAA@XZ ENDP ; std::_String_val<std::_Simple_types<char> >::_Bxty::~_Bxty
_TEXT	ENDS
; Function compile flags: /Odtp /RTCsu /ZI
; File C:\Program Files\Microsoft Visual Studio\2022\Community\VC\Tools\MSVC\14.38.33130\include\xstring
;	COMDAT ??0_Bxty@?$_String_val@U?$_Simple_types@D@std@@@std@@QEAA@XZ
_TEXT	SEGMENT
this$ = 224
??0_Bxty@?$_String_val@U?$_Simple_types@D@std@@@std@@QEAA@XZ PROC ; std::_String_val<std::_Simple_types<char> >::_Bxty::_Bxty, COMDAT

; 2284 :         _CONSTEXPR20 _Bxty() noexcept : _Buf() {} // user-provided, for fancy pointers

$LN3:
	mov	QWORD PTR [rsp+8], rcx
	push	rbp
	push	rdi
	sub	rsp, 232				; 000000e8H
	lea	rbp, QWORD PTR [rsp+32]
	lea	rcx, OFFSET FLAT:__270D62DC_xstring
	call	__CheckForDebuggerJustMyCode
	mov	rax, QWORD PTR this$[rbp]
	mov	rdi, QWORD PTR this$[rbp]
	xor	eax, eax
	mov	ecx, 16
	rep stosb
	mov	rax, QWORD PTR this$[rbp]
	lea	rsp, QWORD PTR [rbp+200]
	pop	rdi
	pop	rbp
	ret	0
??0_Bxty@?$_String_val@U?$_Simple_types@D@std@@@std@@QEAA@XZ ENDP ; std::_String_val<std::_Simple_types<char> >::_Bxty::_Bxty
_TEXT	ENDS
; Function compile flags: /Odtp /RTCsu /ZI
; File C:\Program Files\Microsoft Visual Studio\2022\Community\VC\Tools\MSVC\14.38.33130\include\xstring
;	COMDAT ?_Xran@?$_String_val@U?$_Simple_types@D@std@@@std@@SAXXZ
_TEXT	SEGMENT
?_Xran@?$_String_val@U?$_Simple_types@D@std@@@std@@SAXXZ PROC ; std::_String_val<std::_Simple_types<char> >::_Xran, COMDAT

; 2272 :     [[noreturn]] static void _Xran() {

$LN3:
	push	rbp
	push	rdi
	sub	rsp, 232				; 000000e8H
	lea	rbp, QWORD PTR [rsp+32]
	lea	rcx, OFFSET FLAT:__270D62DC_xstring
	call	__CheckForDebuggerJustMyCode

; 2273 :         _Xout_of_range("invalid string position");

	lea	rcx, OFFSET FLAT:??_C@_0BI@CFPLBAOH@invalid?5string?5position@
	call	?_Xout_of_range@std@@YAXPEBD@Z		; std::_Xout_of_range
$LN2@Xran:

; 2274 :     }

	lea	rsp, QWORD PTR [rbp+200]
	pop	rdi
	pop	rbp
	ret	0
?_Xran@?$_String_val@U?$_Simple_types@D@std@@@std@@SAXXZ ENDP ; std::_String_val<std::_Simple_types<char> >::_Xran
_TEXT	ENDS
; Function compile flags: /Odtp /RTCsu /ZI
; File C:\Program Files\Microsoft Visual Studio\2022\Community\VC\Tools\MSVC\14.38.33130\include\xstring
;	COMDAT ?_Check_offset@?$_String_val@U?$_Simple_types@D@std@@@std@@QEBAX_K@Z
_TEXT	SEGMENT
this$ = 224
_Off$ = 232
?_Check_offset@?$_String_val@U?$_Simple_types@D@std@@@std@@QEBAX_K@Z PROC ; std::_String_val<std::_Simple_types<char> >::_Check_offset, COMDAT

; 2258 :     _CONSTEXPR20 void _Check_offset(const size_type _Off) const {

$LN4:
	mov	QWORD PTR [rsp+16], rdx
	mov	QWORD PTR [rsp+8], rcx
	push	rbp
	push	rdi
	sub	rsp, 232				; 000000e8H
	lea	rbp, QWORD PTR [rsp+32]
	lea	rcx, OFFSET FLAT:__270D62DC_xstring
	call	__CheckForDebuggerJustMyCode

; 2259 :         // checks whether _Off is in the bounds of [0, size()]
; 2260 :         if (_Mysize < _Off) {

	mov	rax, QWORD PTR this$[rbp]
	mov	rcx, QWORD PTR _Off$[rbp]
	cmp	QWORD PTR [rax+24], rcx
	jae	SHORT $LN2@Check_offs

; 2261 :             _Xran();

	call	?_Xran@?$_String_val@U?$_Simple_types@D@std@@@std@@SAXXZ ; std::_String_val<std::_Simple_types<char> >::_Xran
$LN2@Check_offs:
$LN3@Check_offs:

; 2262 :         }
; 2263 :     }

	lea	rsp, QWORD PTR [rbp+200]
	pop	rdi
	pop	rbp
	ret	0
?_Check_offset@?$_String_val@U?$_Simple_types@D@std@@@std@@QEBAX_K@Z ENDP ; std::_String_val<std::_Simple_types<char> >::_Check_offset
_TEXT	ENDS
; Function compile flags: /Odtp /RTCsu /ZI
; File C:\Program Files\Microsoft Visual Studio\2022\Community\VC\Tools\MSVC\14.38.33130\include\xstring
;	COMDAT ?_Activate_SSO_buffer@?$_String_val@U?$_Simple_types@D@std@@@std@@QEAAXXZ
_TEXT	SEGMENT
_Idx$1 = 8
this$ = 256
?_Activate_SSO_buffer@?$_String_val@U?$_Simple_types@D@std@@@std@@QEAAXXZ PROC ; std::_String_val<std::_Simple_types<char> >::_Activate_SSO_buffer, COMDAT

; 2247 :     _CONSTEXPR20 void _Activate_SSO_buffer() noexcept {

$LN7:
	mov	QWORD PTR [rsp+8], rcx
	push	rbp
	push	rdi
	sub	rsp, 264				; 00000108H
	lea	rbp, QWORD PTR [rsp+32]
	lea	rcx, OFFSET FLAT:__270D62DC_xstring
	call	__CheckForDebuggerJustMyCode

; 2248 :         // start the lifetime of the array elements
; 2249 : #if _HAS_CXX20
; 2250 :         if (_STD is_constant_evaluated()) {

	call	?is_constant_evaluated@std@@YA_NXZ	; std::is_constant_evaluated
	movzx	eax, al
	test	eax, eax
	je	SHORT $LN5@Activate_S

; 2251 :             for (size_type _Idx = 0; _Idx < _BUF_SIZE; ++_Idx) {

	mov	QWORD PTR _Idx$1[rbp], 0
	jmp	SHORT $LN4@Activate_S
$LN2@Activate_S:
	mov	rax, QWORD PTR _Idx$1[rbp]
	inc	rax
	mov	QWORD PTR _Idx$1[rbp], rax
$LN4@Activate_S:
	cmp	QWORD PTR _Idx$1[rbp], 16
	jae	SHORT $LN5@Activate_S

; 2252 :                 _Bx._Buf[_Idx] = value_type();

	mov	rax, QWORD PTR _Idx$1[rbp]
	mov	rcx, QWORD PTR this$[rbp]
	add	rcx, rax
	mov	rax, rcx
	mov	BYTE PTR [rax+8], 0

; 2253 :             }

	jmp	SHORT $LN2@Activate_S
$LN5@Activate_S:

; 2254 :         }
; 2255 : #endif // _HAS_CXX20
; 2256 :     }

	lea	rsp, QWORD PTR [rbp+232]
	pop	rdi
	pop	rbp
	ret	0
?_Activate_SSO_buffer@?$_String_val@U?$_Simple_types@D@std@@@std@@QEAAXXZ ENDP ; std::_String_val<std::_Simple_types<char> >::_Activate_SSO_buffer
_TEXT	ENDS
; Function compile flags: /Odtp /RTCsu /ZI
; File C:\Program Files\Microsoft Visual Studio\2022\Community\VC\Tools\MSVC\14.38.33130\include\xstring
;	COMDAT ?_Large_mode_engaged@?$_String_val@U?$_Simple_types@D@std@@@std@@QEBA_NXZ
_TEXT	SEGMENT
tv66 = 192
this$ = 240
?_Large_mode_engaged@?$_String_val@U?$_Simple_types@D@std@@@std@@QEBA_NXZ PROC ; std::_String_val<std::_Simple_types<char> >::_Large_mode_engaged, COMDAT

; 2243 :     _NODISCARD _CONSTEXPR20 bool _Large_mode_engaged() const noexcept {

$LN5:
	mov	QWORD PTR [rsp+8], rcx
	push	rbp
	push	rdi
	sub	rsp, 248				; 000000f8H
	lea	rbp, QWORD PTR [rsp+32]
	lea	rcx, OFFSET FLAT:__270D62DC_xstring
	call	__CheckForDebuggerJustMyCode

; 2244 :         return _Myres > _Small_string_capacity;

	mov	rax, QWORD PTR this$[rbp]
	cmp	QWORD PTR [rax+32], 15
	jbe	SHORT $LN3@Large_mode
	mov	DWORD PTR tv66[rbp], 1
	jmp	SHORT $LN4@Large_mode
$LN3@Large_mode:
	mov	DWORD PTR tv66[rbp], 0
$LN4@Large_mode:
	movzx	eax, BYTE PTR tv66[rbp]

; 2245 :     }

	lea	rsp, QWORD PTR [rbp+216]
	pop	rdi
	pop	rbp
	ret	0
?_Large_mode_engaged@?$_String_val@U?$_Simple_types@D@std@@@std@@QEBA_NXZ ENDP ; std::_String_val<std::_Simple_types<char> >::_Large_mode_engaged
_TEXT	ENDS
; Function compile flags: /Odtp /RTCsu /ZI
; File C:\Program Files\Microsoft Visual Studio\2022\Community\VC\Tools\MSVC\14.38.33130\include\xstring
;	COMDAT ?_Myptr@?$_String_val@U?$_Simple_types@D@std@@@std@@QEBAPEBDXZ
_TEXT	SEGMENT
_Result$ = 8
this$ = 256
?_Myptr@?$_String_val@U?$_Simple_types@D@std@@@std@@QEBAPEBDXZ PROC ; std::_String_val<std::_Simple_types<char> >::_Myptr, COMDAT

; 2234 :     _NODISCARD _CONSTEXPR20 const value_type* _Myptr() const noexcept {

$LN4:
	mov	QWORD PTR [rsp+8], rcx
	push	rbp
	push	rdi
	sub	rsp, 264				; 00000108H
	lea	rbp, QWORD PTR [rsp+32]
	lea	rcx, OFFSET FLAT:__270D62DC_xstring
	call	__CheckForDebuggerJustMyCode

; 2235 :         const value_type* _Result = _Bx._Buf;

	mov	rax, QWORD PTR this$[rbp]
	add	rax, 8
	mov	QWORD PTR _Result$[rbp], rax

; 2236 :         if (_Large_mode_engaged()) {

	mov	rcx, QWORD PTR this$[rbp]
	call	?_Large_mode_engaged@?$_String_val@U?$_Simple_types@D@std@@@std@@QEBA_NXZ ; std::_String_val<std::_Simple_types<char> >::_Large_mode_engaged
	movzx	eax, al
	test	eax, eax
	je	SHORT $LN2@Myptr

; 2237 :             _Result = _Unfancy(_Bx._Ptr);

	mov	rax, QWORD PTR this$[rbp]
	mov	rcx, QWORD PTR [rax+8]
	call	??$_Unfancy@D@std@@YAPEADPEAD@Z		; std::_Unfancy<char>
	mov	QWORD PTR _Result$[rbp], rax
$LN2@Myptr:

; 2238 :         }
; 2239 : 
; 2240 :         return _Result;

	mov	rax, QWORD PTR _Result$[rbp]

; 2241 :     }

	lea	rsp, QWORD PTR [rbp+232]
	pop	rdi
	pop	rbp
	ret	0
?_Myptr@?$_String_val@U?$_Simple_types@D@std@@@std@@QEBAPEBDXZ ENDP ; std::_String_val<std::_Simple_types<char> >::_Myptr
_TEXT	ENDS
; Function compile flags: /Odtp /RTCsu /ZI
; File C:\Program Files\Microsoft Visual Studio\2022\Community\VC\Tools\MSVC\14.38.33130\include\xstring
;	COMDAT ?_Myptr@?$_String_val@U?$_Simple_types@D@std@@@std@@QEAAPEADXZ
_TEXT	SEGMENT
_Result$ = 8
this$ = 256
?_Myptr@?$_String_val@U?$_Simple_types@D@std@@@std@@QEAAPEADXZ PROC ; std::_String_val<std::_Simple_types<char> >::_Myptr, COMDAT

; 2225 :     _NODISCARD _CONSTEXPR20 value_type* _Myptr() noexcept {

$LN4:
	mov	QWORD PTR [rsp+8], rcx
	push	rbp
	push	rdi
	sub	rsp, 264				; 00000108H
	lea	rbp, QWORD PTR [rsp+32]
	lea	rcx, OFFSET FLAT:__270D62DC_xstring
	call	__CheckForDebuggerJustMyCode

; 2226 :         value_type* _Result = _Bx._Buf;

	mov	rax, QWORD PTR this$[rbp]
	add	rax, 8
	mov	QWORD PTR _Result$[rbp], rax

; 2227 :         if (_Large_mode_engaged()) {

	mov	rcx, QWORD PTR this$[rbp]
	call	?_Large_mode_engaged@?$_String_val@U?$_Simple_types@D@std@@@std@@QEBA_NXZ ; std::_String_val<std::_Simple_types<char> >::_Large_mode_engaged
	movzx	eax, al
	test	eax, eax
	je	SHORT $LN2@Myptr

; 2228 :             _Result = _Unfancy(_Bx._Ptr);

	mov	rax, QWORD PTR this$[rbp]
	mov	rcx, QWORD PTR [rax+8]
	call	??$_Unfancy@D@std@@YAPEADPEAD@Z		; std::_Unfancy<char>
	mov	QWORD PTR _Result$[rbp], rax
$LN2@Myptr:

; 2229 :         }
; 2230 : 
; 2231 :         return _Result;

	mov	rax, QWORD PTR _Result$[rbp]

; 2232 :     }

	lea	rsp, QWORD PTR [rbp+232]
	pop	rdi
	pop	rbp
	ret	0
?_Myptr@?$_String_val@U?$_Simple_types@D@std@@@std@@QEAAPEADXZ ENDP ; std::_String_val<std::_Simple_types<char> >::_Myptr
_TEXT	ENDS
; Function compile flags: /Odtp /RTCsu /ZI
; File C:\Program Files\Microsoft Visual Studio\2022\Community\VC\Tools\MSVC\14.38.33130\include\xstring
;	COMDAT ??0?$_String_val@U?$_Simple_types@D@std@@@std@@QEAA@XZ
_TEXT	SEGMENT
this$ = 224
??0?$_String_val@U?$_Simple_types@D@std@@@std@@QEAA@XZ PROC ; std::_String_val<std::_Simple_types<char> >::_String_val<std::_Simple_types<char> >, COMDAT

; 2212 :     _CONSTEXPR20 _String_val() noexcept : _Bx() {}

$LN3:
	mov	QWORD PTR [rsp+8], rcx
	push	rbp
	push	rdi
	sub	rsp, 232				; 000000e8H
	lea	rbp, QWORD PTR [rsp+32]
	lea	rcx, OFFSET FLAT:__270D62DC_xstring
	call	__CheckForDebuggerJustMyCode
	mov	rcx, QWORD PTR this$[rbp]
	call	??0_Container_base12@std@@QEAA@XZ	; std::_Container_base12::_Container_base12
	mov	rax, QWORD PTR this$[rbp]
	add	rax, 8
	mov	rcx, rax
	call	??0_Bxty@?$_String_val@U?$_Simple_types@D@std@@@std@@QEAA@XZ ; std::_String_val<std::_Simple_types<char> >::_Bxty::_Bxty

; 2213 : 
; 2214 :     // length of internal buffer, [1, 16] (NB: used by the debugger visualizer)
; 2215 :     static constexpr size_type _BUF_SIZE = 16 / sizeof(value_type) < 1 ? 1 : 16 / sizeof(value_type);
; 2216 :     // roundup mask for allocated buffers, [0, 15]
; 2217 :     static constexpr size_type _Alloc_mask = sizeof(value_type) <= 1 ? 15
; 2218 :                                            : sizeof(value_type) <= 2 ? 7
; 2219 :                                            : sizeof(value_type) <= 4 ? 3
; 2220 :                                            : sizeof(value_type) <= 8 ? 1
; 2221 :                                                                      : 0;
; 2222 :     // capacity in small mode
; 2223 :     static constexpr size_type _Small_string_capacity = _BUF_SIZE - 1;
; 2224 : 
; 2225 :     _NODISCARD _CONSTEXPR20 value_type* _Myptr() noexcept {
; 2226 :         value_type* _Result = _Bx._Buf;
; 2227 :         if (_Large_mode_engaged()) {
; 2228 :             _Result = _Unfancy(_Bx._Ptr);
; 2229 :         }
; 2230 : 
; 2231 :         return _Result;
; 2232 :     }
; 2233 : 
; 2234 :     _NODISCARD _CONSTEXPR20 const value_type* _Myptr() const noexcept {
; 2235 :         const value_type* _Result = _Bx._Buf;
; 2236 :         if (_Large_mode_engaged()) {
; 2237 :             _Result = _Unfancy(_Bx._Ptr);
; 2238 :         }
; 2239 : 
; 2240 :         return _Result;
; 2241 :     }
; 2242 : 
; 2243 :     _NODISCARD _CONSTEXPR20 bool _Large_mode_engaged() const noexcept {
; 2244 :         return _Myres > _Small_string_capacity;
; 2245 :     }
; 2246 : 
; 2247 :     _CONSTEXPR20 void _Activate_SSO_buffer() noexcept {
; 2248 :         // start the lifetime of the array elements
; 2249 : #if _HAS_CXX20
; 2250 :         if (_STD is_constant_evaluated()) {
; 2251 :             for (size_type _Idx = 0; _Idx < _BUF_SIZE; ++_Idx) {
; 2252 :                 _Bx._Buf[_Idx] = value_type();
; 2253 :             }
; 2254 :         }
; 2255 : #endif // _HAS_CXX20
; 2256 :     }
; 2257 : 
; 2258 :     _CONSTEXPR20 void _Check_offset(const size_type _Off) const {
; 2259 :         // checks whether _Off is in the bounds of [0, size()]
; 2260 :         if (_Mysize < _Off) {
; 2261 :             _Xran();
; 2262 :         }
; 2263 :     }
; 2264 : 
; 2265 :     _CONSTEXPR20 void _Check_offset_exclusive(const size_type _Off) const {
; 2266 :         // checks whether _Off is in the bounds of [0, size())
; 2267 :         if (_Mysize <= _Off) {
; 2268 :             _Xran();
; 2269 :         }
; 2270 :     }
; 2271 : 
; 2272 :     [[noreturn]] static void _Xran() {
; 2273 :         _Xout_of_range("invalid string position");
; 2274 :     }
; 2275 : 
; 2276 :     _NODISCARD _CONSTEXPR20 size_type _Clamp_suffix_size(const size_type _Off, const size_type _Size) const noexcept {
; 2277 :         // trims _Size to the longest it can be assuming a string at/after _Off
; 2278 :         return (_STD min)(_Size, _Mysize - _Off);
; 2279 :     }
; 2280 : 
; 2281 :     union _Bxty { // storage for small buffer or pointer to larger one
; 2282 :         // This constructor previously initialized _Ptr. Don't rely on the new behavior without
; 2283 :         // renaming `_String_val` (and fixing the visualizer).
; 2284 :         _CONSTEXPR20 _Bxty() noexcept : _Buf() {} // user-provided, for fancy pointers
; 2285 :         _CONSTEXPR20 ~_Bxty() noexcept {} // user-provided, for fancy pointers
; 2286 : 
; 2287 :         value_type _Buf[_BUF_SIZE];
; 2288 :         pointer _Ptr;
; 2289 :         char _Alias[_BUF_SIZE]; // TRANSITION, ABI: _Alias is preserved for binary compatibility (especially /clr)
; 2290 :     };
; 2291 :     _Bxty _Bx;
; 2292 : 
; 2293 :     // invariant: _Myres >= _Mysize, and _Myres >= _Small_string_capacity (after string's construction)
; 2294 :     // neither _Mysize nor _Myres takes account of the extra null terminator
; 2295 :     size_type _Mysize = 0; // current length of string (size)

	mov	rax, QWORD PTR this$[rbp]
	mov	QWORD PTR [rax+24], 0

; 2296 :     size_type _Myres  = 0; // current storage reserved for string (capacity)

	mov	rax, QWORD PTR this$[rbp]
	mov	QWORD PTR [rax+32], 0

; 2212 :     _CONSTEXPR20 _String_val() noexcept : _Bx() {}

	mov	rax, QWORD PTR this$[rbp]
	lea	rsp, QWORD PTR [rbp+200]
	pop	rdi
	pop	rbp
	ret	0
??0?$_String_val@U?$_Simple_types@D@std@@@std@@QEAA@XZ ENDP ; std::_String_val<std::_Simple_types<char> >::_String_val<std::_Simple_types<char> >
_TEXT	ENDS
; Function compile flags: /Odtp /RTCsu /ZI
; File C:\Program Files\Microsoft Visual Studio\2022\Community\VC\Tools\MSVC\14.38.33130\include\xmemory
;	COMDAT ?select_on_container_copy_construction@?$_Default_allocator_traits@V?$allocator@D@std@@@std@@SA?AV?$allocator@D@2@AEBV32@@Z
_TEXT	SEGMENT
__$ReturnUdt$ = 224
_Al$ = 232
?select_on_container_copy_construction@?$_Default_allocator_traits@V?$allocator@D@std@@@std@@SA?AV?$allocator@D@2@AEBV32@@Z PROC ; std::_Default_allocator_traits<std::allocator<char> >::select_on_container_copy_construction, COMDAT

; 740  :     _NODISCARD static _CONSTEXPR20 _Alloc select_on_container_copy_construction(const _Alloc& _Al) {

$LN3:
	mov	QWORD PTR [rsp+16], rdx
	mov	QWORD PTR [rsp+8], rcx
	push	rbp
	push	rdi
	sub	rsp, 232				; 000000e8H
	lea	rbp, QWORD PTR [rsp+32]
	lea	rcx, OFFSET FLAT:__53DEE440_xmemory
	call	__CheckForDebuggerJustMyCode

; 741  :         return _Al;

	mov	rax, QWORD PTR __$ReturnUdt$[rbp]

; 742  :     }

	lea	rsp, QWORD PTR [rbp+200]
	pop	rdi
	pop	rbp
	ret	0
?select_on_container_copy_construction@?$_Default_allocator_traits@V?$allocator@D@std@@@std@@SA?AV?$allocator@D@2@AEBV32@@Z ENDP ; std::_Default_allocator_traits<std::allocator<char> >::select_on_container_copy_construction
_TEXT	ENDS
; Function compile flags: /Odtp /RTCsu /ZI
; File C:\Program Files\Microsoft Visual Studio\2022\Community\VC\Tools\MSVC\14.38.33130\include\xmemory
;	COMDAT ?max_size@?$_Default_allocator_traits@V?$allocator@D@std@@@std@@SA_KAEBV?$allocator@D@2@@Z
_TEXT	SEGMENT
__formal$ = 224
?max_size@?$_Default_allocator_traits@V?$allocator@D@std@@@std@@SA_KAEBV?$allocator@D@2@@Z PROC ; std::_Default_allocator_traits<std::allocator<char> >::max_size, COMDAT

; 736  :     _NODISCARD static _CONSTEXPR20 size_type max_size(const _Alloc&) noexcept {

$LN3:
	mov	QWORD PTR [rsp+8], rcx
	push	rbp
	push	rdi
	sub	rsp, 232				; 000000e8H
	lea	rbp, QWORD PTR [rsp+32]
	lea	rcx, OFFSET FLAT:__53DEE440_xmemory
	call	__CheckForDebuggerJustMyCode

; 737  :         return static_cast<size_t>(-1) / sizeof(value_type);

	mov	rax, -1

; 738  :     }

	lea	rsp, QWORD PTR [rbp+200]
	pop	rdi
	pop	rbp
	ret	0
?max_size@?$_Default_allocator_traits@V?$allocator@D@std@@@std@@SA_KAEBV?$allocator@D@2@@Z ENDP ; std::_Default_allocator_traits<std::allocator<char> >::max_size
_TEXT	ENDS
; Function compile flags: /Odtp /RTCsu /ZI
; File C:\Program Files\Microsoft Visual Studio\2022\Community\VC\Tools\MSVC\14.38.33130\include\xmemory
;	COMDAT ?allocate@?$allocator@D@std@@QEAAPEAD_K@Z
_TEXT	SEGMENT
this$ = 224
_Count$ = 232
?allocate@?$allocator@D@std@@QEAAPEAD_K@Z PROC		; std::allocator<char>::allocate, COMDAT

; 976  :     _NODISCARD_RAW_PTR_ALLOC _CONSTEXPR20 __declspec(allocator) _Ty* allocate(_CRT_GUARDOVERFLOW const size_t _Count) {

$LN3:
	mov	QWORD PTR [rsp+16], rdx
	mov	QWORD PTR [rsp+8], rcx
	push	rbp
	push	rdi
	sub	rsp, 232				; 000000e8H
	lea	rbp, QWORD PTR [rsp+32]
	lea	rcx, OFFSET FLAT:__53DEE440_xmemory
	call	__CheckForDebuggerJustMyCode

; 977  :         static_assert(sizeof(value_type) > 0, "value_type must be complete before calling allocate.");
; 978  :         return static_cast<_Ty*>(_Allocate<_New_alignof<_Ty>>(_Get_size_of_n<sizeof(_Ty)>(_Count)));

	mov	rcx, QWORD PTR _Count$[rbp]
	call	??$_Get_size_of_n@$00@std@@YA_K_K@Z	; std::_Get_size_of_n<1>
	mov	rcx, rax
	call	??$_Allocate@$0BA@U_Default_allocate_traits@std@@$0A@@std@@YAPEAX_K@Z ; std::_Allocate<16,std::_Default_allocate_traits,0>

; 979  :     }

	lea	rsp, QWORD PTR [rbp+200]
	pop	rdi
	pop	rbp
	ret	0
?allocate@?$allocator@D@std@@QEAAPEAD_K@Z ENDP		; std::allocator<char>::allocate
_TEXT	ENDS
; Function compile flags: /Odtp /RTCsu /ZI
; File C:\Program Files\Microsoft Visual Studio\2022\Community\VC\Tools\MSVC\14.38.33130\include\xmemory
;	COMDAT ?deallocate@?$allocator@D@std@@QEAAXQEAD_K@Z
_TEXT	SEGMENT
this$ = 224
_Ptr$ = 232
_Count$ = 240
?deallocate@?$allocator@D@std@@QEAAXQEAD_K@Z PROC	; std::allocator<char>::deallocate, COMDAT

; 970  :     _CONSTEXPR20 void deallocate(_Ty* const _Ptr, const size_t _Count) {

$LN13:
	mov	QWORD PTR [rsp+24], r8
	mov	QWORD PTR [rsp+16], rdx
	mov	QWORD PTR [rsp+8], rcx
	push	rbp
	push	rdi
	sub	rsp, 248				; 000000f8H
	lea	rbp, QWORD PTR [rsp+48]
	lea	rcx, OFFSET FLAT:__53DEE440_xmemory
	call	__CheckForDebuggerJustMyCode
$LN4@deallocate:

; 971  :         _STL_ASSERT(_Ptr != nullptr || _Count == 0, "null pointer cannot point to a block of non-zero size");

	cmp	QWORD PTR _Ptr$[rbp], 0
	jne	SHORT $LN10@deallocate
	cmp	QWORD PTR _Count$[rbp], 0
	jne	SHORT $LN8@deallocate
$LN10@deallocate:
	jmp	SHORT $LN9@deallocate
$LN8@deallocate:
$LN7@deallocate:
	lea	rax, OFFSET FLAT:??_C@_0DG@KGHKKGBC@null?5pointer?5cannot?5point?5to?5a?5@
	mov	QWORD PTR [rsp+40], rax
	lea	rax, OFFSET FLAT:??_C@_02DKCKIIND@?$CFs@
	mov	QWORD PTR [rsp+32], rax
	xor	r9d, r9d
	mov	r8d, 971				; 000003cbH
	lea	rdx, OFFSET FLAT:??_C@_0GC@MFPFMMDA@C?3?2Program?5Files?2Microsoft?5Visu@
	mov	ecx, 2
	call	QWORD PTR __imp__CrtDbgReport
	cmp	eax, 1
	jne	SHORT $LN12@deallocate
	int	3
	xor	eax, eax
$LN12@deallocate:
	mov	QWORD PTR [rsp+32], 0
	mov	r9d, 971				; 000003cbH
	lea	r8, OFFSET FLAT:??_C@_1ME@HBHJKKLJ@?$AAC?$AA?3?$AA?2?$AAP?$AAr?$AAo?$AAg?$AAr?$AAa?$AAm?$AA?5?$AAF?$AAi?$AAl?$AAe@
	lea	rdx, OFFSET FLAT:??_C@_11LOCGONAA@@
	lea	rcx, OFFSET FLAT:??_C@_1HA@FACCKGGH@?$AA?$CC?$AAn?$AAu?$AAl?$AAl?$AA?5?$AAp?$AAo?$AAi?$AAn?$AAt?$AAe?$AAr?$AA?5?$AAc@
	call	QWORD PTR __imp__invalid_parameter
	xor	eax, eax
	test	eax, eax
	jne	SHORT $LN7@deallocate
$LN9@deallocate:
	xor	eax, eax
	test	eax, eax
	jne	$LN4@deallocate

; 972  :         // no overflow check on the following multiply; we assume _Allocate did that check
; 973  :         _Deallocate<_New_alignof<_Ty>>(_Ptr, sizeof(_Ty) * _Count);

	mov	rdx, QWORD PTR _Count$[rbp]
	mov	rcx, QWORD PTR _Ptr$[rbp]
	call	??$_Deallocate@$0BA@$0A@@std@@YAXPEAX_K@Z ; std::_Deallocate<16,0>

; 974  :     }

	lea	rsp, QWORD PTR [rbp+200]
	pop	rdi
	pop	rbp
	ret	0
?deallocate@?$allocator@D@std@@QEAAXQEAD_K@Z ENDP	; std::allocator<char>::deallocate
_TEXT	ENDS
; Function compile flags: /Odtp /RTCsu /ZI
; File C:\Program Files\Microsoft Visual Studio\2022\Community\VC\Tools\MSVC\14.38.33130\include\xmemory
;	COMDAT ??0?$allocator@D@std@@QEAA@XZ
_TEXT	SEGMENT
this$ = 224
??0?$allocator@D@std@@QEAA@XZ PROC			; std::allocator<char>::allocator<char>, COMDAT

; 962  :     constexpr allocator() noexcept {}

$LN3:
	mov	QWORD PTR [rsp+8], rcx
	push	rbp
	push	rdi
	sub	rsp, 232				; 000000e8H
	lea	rbp, QWORD PTR [rsp+32]
	lea	rcx, OFFSET FLAT:__53DEE440_xmemory
	call	__CheckForDebuggerJustMyCode
	mov	rax, QWORD PTR this$[rbp]
	lea	rsp, QWORD PTR [rbp+200]
	pop	rdi
	pop	rbp
	ret	0
??0?$allocator@D@std@@QEAA@XZ ENDP			; std::allocator<char>::allocator<char>
_TEXT	ENDS
; Function compile flags: /Odtp /RTCsu /ZI
; File C:\Program Files\Microsoft Visual Studio\2022\Community\VC\Tools\MSVC\14.38.33130\include\xstring
;	COMDAT ?_Xlen_string@std@@YAXXZ
_TEXT	SEGMENT
?_Xlen_string@std@@YAXXZ PROC				; std::_Xlen_string, COMDAT

; 2313 : [[noreturn]] inline void _Xlen_string() {

$LN3:
	push	rbp
	push	rdi
	sub	rsp, 232				; 000000e8H
	lea	rbp, QWORD PTR [rsp+32]
	lea	rcx, OFFSET FLAT:__270D62DC_xstring
	call	__CheckForDebuggerJustMyCode

; 2314 :     _Xlength_error("string too long");

	lea	rcx, OFFSET FLAT:??_C@_0BA@JFNIOLAK@string?5too?5long@
	call	?_Xlength_error@std@@YAXPEBD@Z		; std::_Xlength_error
$LN2@Xlen_strin:

; 2315 : }

	lea	rsp, QWORD PTR [rbp+200]
	pop	rdi
	pop	rbp
	ret	0
?_Xlen_string@std@@YAXXZ ENDP				; std::_Xlen_string
_TEXT	ENDS
; Function compile flags: /Odtp /RTCsu /ZI
; File C:\Program Files\Microsoft Visual Studio\2022\Community\VC\Tools\MSVC\14.38.33130\include\xstring
;	COMDAT ?eof@?$_Narrow_char_traits@DH@std@@SAHXZ
_TEXT	SEGMENT
?eof@?$_Narrow_char_traits@DH@std@@SAHXZ PROC		; std::_Narrow_char_traits<char,int>::eof, COMDAT

; 471  :     _NODISCARD static constexpr int_type eof() noexcept {

$LN3:
	push	rbp
	push	rdi
	sub	rsp, 232				; 000000e8H
	lea	rbp, QWORD PTR [rsp+32]
	lea	rcx, OFFSET FLAT:__270D62DC_xstring
	call	__CheckForDebuggerJustMyCode

; 472  :         return static_cast<int_type>(EOF);

	mov	eax, -1

; 473  :     }

	lea	rsp, QWORD PTR [rbp+200]
	pop	rdi
	pop	rbp
	ret	0
?eof@?$_Narrow_char_traits@DH@std@@SAHXZ ENDP		; std::_Narrow_char_traits<char,int>::eof
_TEXT	ENDS
; Function compile flags: /Odtp /RTCsu /ZI
; File C:\Program Files\Microsoft Visual Studio\2022\Community\VC\Tools\MSVC\14.38.33130\include\xstring
;	COMDAT ?eq_int_type@?$_Narrow_char_traits@DH@std@@SA_NHH@Z
_TEXT	SEGMENT
tv65 = 192
_Left$ = 240
_Right$ = 248
?eq_int_type@?$_Narrow_char_traits@DH@std@@SA_NHH@Z PROC ; std::_Narrow_char_traits<char,int>::eq_int_type, COMDAT

; 463  :     _NODISCARD static constexpr bool eq_int_type(const int_type _Left, const int_type _Right) noexcept {

$LN5:
	mov	DWORD PTR [rsp+16], edx
	mov	DWORD PTR [rsp+8], ecx
	push	rbp
	push	rdi
	sub	rsp, 248				; 000000f8H
	lea	rbp, QWORD PTR [rsp+32]
	lea	rcx, OFFSET FLAT:__270D62DC_xstring
	call	__CheckForDebuggerJustMyCode

; 464  :         return _Left == _Right;

	mov	eax, DWORD PTR _Right$[rbp]
	cmp	DWORD PTR _Left$[rbp], eax
	jne	SHORT $LN3@eq_int_typ
	mov	DWORD PTR tv65[rbp], 1
	jmp	SHORT $LN4@eq_int_typ
$LN3@eq_int_typ:
	mov	DWORD PTR tv65[rbp], 0
$LN4@eq_int_typ:
	movzx	eax, BYTE PTR tv65[rbp]

; 465  :     }

	lea	rsp, QWORD PTR [rbp+216]
	pop	rdi
	pop	rbp
	ret	0
?eq_int_type@?$_Narrow_char_traits@DH@std@@SA_NHH@Z ENDP ; std::_Narrow_char_traits<char,int>::eq_int_type
_TEXT	ENDS
; Function compile flags: /Odtp /RTCsu /ZI
; File C:\Program Files\Microsoft Visual Studio\2022\Community\VC\Tools\MSVC\14.38.33130\include\xstring
;	COMDAT ?to_char_type@?$_Narrow_char_traits@DH@std@@SADH@Z
_TEXT	SEGMENT
_Meta$ = 224
?to_char_type@?$_Narrow_char_traits@DH@std@@SADH@Z PROC	; std::_Narrow_char_traits<char,int>::to_char_type, COMDAT

; 455  :     _NODISCARD static constexpr _Elem to_char_type(const int_type _Meta) noexcept {

$LN3:
	mov	DWORD PTR [rsp+8], ecx
	push	rbp
	push	rdi
	sub	rsp, 232				; 000000e8H
	lea	rbp, QWORD PTR [rsp+32]
	lea	rcx, OFFSET FLAT:__270D62DC_xstring
	call	__CheckForDebuggerJustMyCode

; 456  :         return static_cast<_Elem>(_Meta);

	movzx	eax, BYTE PTR _Meta$[rbp]

; 457  :     }

	lea	rsp, QWORD PTR [rbp+200]
	pop	rdi
	pop	rbp
	ret	0
?to_char_type@?$_Narrow_char_traits@DH@std@@SADH@Z ENDP	; std::_Narrow_char_traits<char,int>::to_char_type
_TEXT	ENDS
; Function compile flags: /Odtp /RTCsu /ZI
; File C:\Program Files\Microsoft Visual Studio\2022\Community\VC\Tools\MSVC\14.38.33130\include\xstring
;	COMDAT ?assign@?$_Narrow_char_traits@DH@std@@SAXAEADAEBD@Z
_TEXT	SEGMENT
_Left$ = 224
_Right$ = 232
?assign@?$_Narrow_char_traits@DH@std@@SAXAEADAEBD@Z PROC ; std::_Narrow_char_traits<char,int>::assign, COMDAT

; 438  :     static _CONSTEXPR17 void assign(_Elem& _Left, const _Elem& _Right) noexcept {

$LN4:
	mov	QWORD PTR [rsp+16], rdx
	mov	QWORD PTR [rsp+8], rcx
	push	rbp
	push	rdi
	sub	rsp, 232				; 000000e8H
	lea	rbp, QWORD PTR [rsp+32]
	lea	rcx, OFFSET FLAT:__270D62DC_xstring
	call	__CheckForDebuggerJustMyCode

; 439  : #if _HAS_CXX20
; 440  :         if (_STD is_constant_evaluated()) {

	call	?is_constant_evaluated@std@@YA_NXZ	; std::is_constant_evaluated
	movzx	eax, al
	test	eax, eax
	je	SHORT $LN2@assign

; 441  :             return _Primary_char_traits::assign(_Left, _Right);

	mov	rdx, QWORD PTR _Right$[rbp]
	mov	rcx, QWORD PTR _Left$[rbp]
	call	?assign@?$_Char_traits@DH@std@@SAXAEADAEBD@Z ; std::_Char_traits<char,int>::assign
	jmp	SHORT $LN1@assign
$LN2@assign:

; 442  :         }
; 443  : #endif // _HAS_CXX20
; 444  :         _Left = _Right;

	mov	rax, QWORD PTR _Left$[rbp]
	mov	rcx, QWORD PTR _Right$[rbp]
	movzx	ecx, BYTE PTR [rcx]
	mov	BYTE PTR [rax], cl
$LN1@assign:

; 445  :     }

	lea	rsp, QWORD PTR [rbp+200]
	pop	rdi
	pop	rbp
	ret	0
?assign@?$_Narrow_char_traits@DH@std@@SAXAEADAEBD@Z ENDP ; std::_Narrow_char_traits<char,int>::assign
_TEXT	ENDS
; Function compile flags: /Odtp /RTCsu /ZI
; File C:\Program Files\Microsoft Visual Studio\2022\Community\VC\Tools\MSVC\14.38.33130\include\xstring
;	COMDAT ?length@?$_Narrow_char_traits@DH@std@@SA_KQEBD@Z
_TEXT	SEGMENT
tv68 = 192
tv69 = 200
_First$ = 240
?length@?$_Narrow_char_traits@DH@std@@SA_KQEBD@Z PROC	; std::_Narrow_char_traits<char,int>::length, COMDAT

; 385  :     _NODISCARD static _CONSTEXPR17 size_t length(_In_z_ const _Elem* const _First) noexcept /* strengthened */ {

$LN4:
	mov	QWORD PTR [rsp+8], rcx
	push	rbp
	push	rdi
	sub	rsp, 248				; 000000f8H
	lea	rbp, QWORD PTR [rsp+32]
	lea	rcx, OFFSET FLAT:__270D62DC_xstring
	call	__CheckForDebuggerJustMyCode

; 386  :         // find length of null-terminated string
; 387  : #if _HAS_CXX17
; 388  : #ifdef __cpp_char8_t
; 389  :         if constexpr (is_same_v<_Elem, char8_t>) {
; 390  : #if _HAS_U8_INTRINSICS
; 391  :             return __builtin_u8strlen(_First);
; 392  : #else // ^^^ use u8 intrinsics / no u8 intrinsics vvv
; 393  :             return _Primary_char_traits::length(_First);
; 394  : #endif // ^^^ no u8 intrinsics ^^^
; 395  :         } else
; 396  : #endif // defined(__cpp_char8_t)
; 397  :         {
; 398  :             return __builtin_strlen(_First);

	mov	rax, QWORD PTR _First$[rbp]
	mov	QWORD PTR tv68[rbp], rax
	mov	QWORD PTR tv69[rbp], -1
$LL3@length:
	inc	QWORD PTR tv69[rbp]
	mov	rax, QWORD PTR tv68[rbp]
	mov	rcx, QWORD PTR tv69[rbp]
	cmp	BYTE PTR [rax+rcx], 0
	jne	SHORT $LL3@length
	mov	rax, QWORD PTR tv69[rbp]

; 399  :         }
; 400  : #else // ^^^ _HAS_CXX17 / !_HAS_CXX17 vvv
; 401  :         return _CSTD strlen(reinterpret_cast<const char*>(_First));
; 402  : #endif // ^^^ !_HAS_CXX17 ^^^
; 403  :     }

	lea	rsp, QWORD PTR [rbp+216]
	pop	rdi
	pop	rbp
	ret	0
?length@?$_Narrow_char_traits@DH@std@@SA_KQEBD@Z ENDP	; std::_Narrow_char_traits<char,int>::length
_TEXT	ENDS
; Function compile flags: /Odtp /RTCsu /ZI
; File C:\Program Files\Microsoft Visual Studio\2022\Community\VC\Tools\MSVC\14.38.33130\include\xstring
;	COMDAT ?assign@?$_Char_traits@DH@std@@SAXAEADAEBD@Z
_TEXT	SEGMENT
_Left$ = 224
_Right$ = 232
?assign@?$_Char_traits@DH@std@@SAXAEADAEBD@Z PROC	; std::_Char_traits<char,int>::assign, COMDAT

; 180  :     static _CONSTEXPR17 void assign(_Elem& _Left, const _Elem& _Right) noexcept {

$LN5:
	mov	QWORD PTR [rsp+16], rdx
	mov	QWORD PTR [rsp+8], rcx
	push	rbp
	push	rdi
	sub	rsp, 232				; 000000e8H
	lea	rbp, QWORD PTR [rsp+32]
	lea	rcx, OFFSET FLAT:__270D62DC_xstring
	call	__CheckForDebuggerJustMyCode

; 181  : #if _HAS_CXX20
; 182  :         if (_STD is_constant_evaluated()) {

	call	?is_constant_evaluated@std@@YA_NXZ	; std::is_constant_evaluated
	movzx	eax, al
	test	eax, eax
	je	SHORT $LN2@assign

; 183  :             _STD construct_at(_STD addressof(_Left), _Right);

	mov	rcx, QWORD PTR _Left$[rbp]
	call	??$addressof@D@std@@YAPEADAEAD@Z	; std::addressof<char>
	mov	rdx, QWORD PTR _Right$[rbp]
	mov	rcx, rax
	call	??$construct_at@DAEBD$0A@@std@@YAPEADQEADAEBD@Z ; std::construct_at<char,char const &,0>

; 184  :         } else

	jmp	SHORT $LN3@assign
$LN2@assign:

; 185  : #endif // _HAS_CXX20
; 186  :         {
; 187  :             _Left = _Right;

	mov	rax, QWORD PTR _Left$[rbp]
	mov	rcx, QWORD PTR _Right$[rbp]
	movzx	ecx, BYTE PTR [rcx]
	mov	BYTE PTR [rax], cl
$LN3@assign:

; 188  :         }
; 189  :     }

	lea	rsp, QWORD PTR [rbp+200]
	pop	rdi
	pop	rbp
	ret	0
?assign@?$_Char_traits@DH@std@@SAXAEADAEBD@Z ENDP	; std::_Char_traits<char,int>::assign
_TEXT	ENDS
; Function compile flags: /Odtp /RTCsu /ZI
; File C:\Program Files\Microsoft Visual Studio\2022\Community\VC\Tools\MSVC\14.38.33130\include\xstring
;	COMDAT ?copy@?$_Char_traits@DH@std@@SAPEADQEADQEBD_K@Z
_TEXT	SEGMENT
_Idx$1 = 8
_First1$ = 256
_First2$ = 264
_Count$ = 272
?copy@?$_Char_traits@DH@std@@SAPEADQEADQEBD_K@Z PROC	; std::_Char_traits<char,int>::copy, COMDAT

; 48   :         _In_reads_(_Count) const _Elem* const _First2, const size_t _Count) noexcept /* strengthened */ {

$LN7:
	mov	QWORD PTR [rsp+24], r8
	mov	QWORD PTR [rsp+16], rdx
	mov	QWORD PTR [rsp+8], rcx
	push	rbp
	push	rdi
	sub	rsp, 264				; 00000108H
	lea	rbp, QWORD PTR [rsp+32]
	lea	rcx, OFFSET FLAT:__270D62DC_xstring
	call	__CheckForDebuggerJustMyCode

; 49   :         // copy [_First2, _First2 + _Count) to [_First1, ...)
; 50   : #if _HAS_MEMCPY_MEMMOVE_INTRINSICS
; 51   :         __builtin_memcpy(_First1, _First2, _Count * sizeof(_Elem));
; 52   : #else // ^^^ _HAS_MEMCPY_MEMMOVE_INTRINSICS / !_HAS_MEMCPY_MEMMOVE_INTRINSICS vvv
; 53   : #if _HAS_CXX20
; 54   :         if (_STD is_constant_evaluated()) {

	call	?is_constant_evaluated@std@@YA_NXZ	; std::is_constant_evaluated
	movzx	eax, al
	test	eax, eax
	je	SHORT $LN5@copy

; 55   :             // pre: [_First1, _First1 + _Count) and [_First2, _First2 + _Count) do not overlap
; 56   :             for (size_t _Idx = 0; _Idx != _Count; ++_Idx) {

	mov	QWORD PTR _Idx$1[rbp], 0
	jmp	SHORT $LN4@copy
$LN2@copy:
	mov	rax, QWORD PTR _Idx$1[rbp]
	inc	rax
	mov	QWORD PTR _Idx$1[rbp], rax
$LN4@copy:
	mov	rax, QWORD PTR _Count$[rbp]
	cmp	QWORD PTR _Idx$1[rbp], rax
	je	SHORT $LN3@copy

; 57   :                 _First1[_Idx] = _First2[_Idx];

	mov	rax, QWORD PTR _Idx$1[rbp]
	mov	rcx, QWORD PTR _First1$[rbp]
	add	rcx, rax
	mov	rax, rcx
	mov	rcx, QWORD PTR _Idx$1[rbp]
	mov	rdx, QWORD PTR _First2$[rbp]
	add	rdx, rcx
	mov	rcx, rdx
	movzx	ecx, BYTE PTR [rcx]
	mov	BYTE PTR [rax], cl

; 58   :             }

	jmp	SHORT $LN2@copy
$LN3@copy:

; 59   : 
; 60   :             return _First1;

	mov	rax, QWORD PTR _First1$[rbp]
	jmp	SHORT $LN1@copy
$LN5@copy:

; 61   :         }
; 62   : #endif // _HAS_CXX20
; 63   : 
; 64   :         _CSTD memcpy(_First1, _First2, _Count * sizeof(_Elem));

	mov	r8, QWORD PTR _Count$[rbp]
	mov	rdx, QWORD PTR _First2$[rbp]
	mov	rcx, QWORD PTR _First1$[rbp]
	call	memcpy

; 65   : #endif // ^^^ !_HAS_MEMCPY_MEMMOVE_INTRINSICS ^^^
; 66   : 
; 67   :         return _First1;

	mov	rax, QWORD PTR _First1$[rbp]
$LN1@copy:

; 68   :     }

	lea	rsp, QWORD PTR [rbp+232]
	pop	rdi
	pop	rbp
	ret	0
?copy@?$_Char_traits@DH@std@@SAPEADQEADQEBD_K@Z ENDP	; std::_Char_traits<char,int>::copy
_TEXT	ENDS
; Function compile flags: /Odtp /RTCsu /ZI
; File C:\Program Files\Microsoft Visual Studio\2022\Community\VC\Tools\MSVC\14.38.33130\include\xutility
;	COMDAT ??$_Construct_in_place@U_Container_proxy@std@@PEAU_Container_base12@2@@std@@YAXAEAU_Container_proxy@0@$$QEAPEAU_Container_base12@0@@Z
_TEXT	SEGMENT
$T1 = 200
_Obj$ = 256
<_Args_0>$ = 264
??$_Construct_in_place@U_Container_proxy@std@@PEAU_Container_base12@2@@std@@YAXAEAU_Container_proxy@0@$$QEAPEAU_Container_base12@0@@Z PROC ; std::_Construct_in_place<std::_Container_proxy,std::_Container_base12 *>, COMDAT

; 248  :     is_nothrow_constructible_v<_Ty, _Types...>) {

$LN5:
	mov	QWORD PTR [rsp+16], rdx
	mov	QWORD PTR [rsp+8], rcx
	push	rbp
	push	rdi
	sub	rsp, 264				; 00000108H
	lea	rbp, QWORD PTR [rsp+32]
	lea	rcx, OFFSET FLAT:__81056E89_xutility
	call	__CheckForDebuggerJustMyCode

; 249  : #if _HAS_CXX20
; 250  :     if (_STD is_constant_evaluated()) {

	call	?is_constant_evaluated@std@@YA_NXZ	; std::is_constant_evaluated
	movzx	eax, al
	test	eax, eax
	je	SHORT $LN2@Construct_

; 251  :         _STD construct_at(_STD addressof(_Obj), _STD forward<_Types>(_Args)...);

	mov	rcx, QWORD PTR _Obj$[rbp]
	call	??$addressof@U_Container_proxy@std@@@std@@YAPEAU_Container_proxy@0@AEAU10@@Z ; std::addressof<std::_Container_proxy>
	mov	rdx, QWORD PTR <_Args_0>$[rbp]
	mov	rcx, rax
	call	??$construct_at@U_Container_proxy@std@@PEAU_Container_base12@2@$0A@@std@@YAPEAU_Container_proxy@0@QEAU10@$$QEAPEAU_Container_base12@0@@Z ; std::construct_at<std::_Container_proxy,std::_Container_base12 *,0>

; 252  :     } else

	jmp	SHORT $LN3@Construct_
$LN2@Construct_:

; 253  : #endif // _HAS_CXX20
; 254  :     {
; 255  :         ::new (static_cast<void*>(_STD addressof(_Obj))) _Ty(_STD forward<_Types>(_Args)...);

	mov	rcx, QWORD PTR _Obj$[rbp]
	call	??$addressof@U_Container_proxy@std@@@std@@YAPEAU_Container_proxy@0@AEAU10@@Z ; std::addressof<std::_Container_proxy>
	mov	rdx, rax
	mov	ecx, 16
	call	??2@YAPEAX_KPEAX@Z			; operator new
	mov	QWORD PTR $T1[rbp], rax
	mov	rax, QWORD PTR <_Args_0>$[rbp]
	mov	rdx, QWORD PTR [rax]
	mov	rcx, QWORD PTR $T1[rbp]
	call	??0_Container_proxy@std@@QEAA@PEAU_Container_base12@1@@Z ; std::_Container_proxy::_Container_proxy
$LN3@Construct_:

; 256  :     }
; 257  : }

	lea	rsp, QWORD PTR [rbp+232]
	pop	rdi
	pop	rbp
	ret	0
??$_Construct_in_place@U_Container_proxy@std@@PEAU_Container_base12@2@@std@@YAXAEAU_Container_proxy@0@$$QEAPEAU_Container_base12@0@@Z ENDP ; std::_Construct_in_place<std::_Container_proxy,std::_Container_base12 *>
_TEXT	ENDS
; Function compile flags: /Odtp /RTCsu /ZI
; File C:\Program Files\Microsoft Visual Studio\2022\Community\VC\Tools\MSVC\14.38.33130\include\type_traits
;	COMDAT ??$addressof@U_Container_base12@std@@@std@@YAPEAU_Container_base12@0@AEAU10@@Z
_TEXT	SEGMENT
_Val$ = 224
??$addressof@U_Container_base12@std@@@std@@YAPEAU_Container_base12@0@AEAU10@@Z PROC ; std::addressof<std::_Container_base12>, COMDAT

; 1585 : _NODISCARD constexpr _Ty* addressof(_Ty& _Val) noexcept {

$LN3:
	mov	QWORD PTR [rsp+8], rcx
	push	rbp
	push	rdi
	sub	rsp, 232				; 000000e8H
	lea	rbp, QWORD PTR [rsp+32]
	lea	rcx, OFFSET FLAT:__86E2ECA3_type_traits
	call	__CheckForDebuggerJustMyCode

; 1586 :     return __builtin_addressof(_Val);

	mov	rax, QWORD PTR _Val$[rbp]

; 1587 : }

	lea	rsp, QWORD PTR [rbp+200]
	pop	rdi
	pop	rbp
	ret	0
??$addressof@U_Container_base12@std@@@std@@YAPEAU_Container_base12@0@AEAU10@@Z ENDP ; std::addressof<std::_Container_base12>
_TEXT	ENDS
; Function compile flags: /Odtp /RTCsu /ZI
; File C:\Program Files\Microsoft Visual Studio\2022\Community\VC\Tools\MSVC\14.38.33130\include\xmemory
;	COMDAT ??0_Basic_container_proxy_ptr12@std@@IEAA@XZ
_TEXT	SEGMENT
this$ = 224
??0_Basic_container_proxy_ptr12@std@@IEAA@XZ PROC	; std::_Basic_container_proxy_ptr12::_Basic_container_proxy_ptr12, COMDAT

; 1453 :     _CONSTEXPR20 _Basic_container_proxy_ptr12()                       = default;

$LN3:
	mov	QWORD PTR [rsp+8], rcx
	push	rbp
	push	rdi
	sub	rsp, 232				; 000000e8H
	lea	rbp, QWORD PTR [rsp+32]
	lea	rcx, OFFSET FLAT:__53DEE440_xmemory
	call	__CheckForDebuggerJustMyCode

; 1446 :     _Container_proxy* _Ptr = nullptr;

	mov	rax, QWORD PTR this$[rbp]
	mov	QWORD PTR [rax], 0

; 1453 :     _CONSTEXPR20 _Basic_container_proxy_ptr12()                       = default;

	mov	rax, QWORD PTR this$[rbp]
	lea	rsp, QWORD PTR [rbp+200]
	pop	rdi
	pop	rbp
	ret	0
??0_Basic_container_proxy_ptr12@std@@IEAA@XZ ENDP	; std::_Basic_container_proxy_ptr12::_Basic_container_proxy_ptr12
_TEXT	ENDS
; Function compile flags: /Odtp /RTCsu /ZI
; File C:\Program Files\Microsoft Visual Studio\2022\Community\VC\Tools\MSVC\14.38.33130\include\xmemory
;	COMDAT ?_Release@_Basic_container_proxy_ptr12@std@@QEAAXXZ
_TEXT	SEGMENT
this$ = 224
?_Release@_Basic_container_proxy_ptr12@std@@QEAAXXZ PROC ; std::_Basic_container_proxy_ptr12::_Release, COMDAT

; 1448 :     constexpr void _Release() noexcept { // disengage this _Basic_container_proxy_ptr12

$LN3:
	mov	QWORD PTR [rsp+8], rcx
	push	rbp
	push	rdi
	sub	rsp, 232				; 000000e8H
	lea	rbp, QWORD PTR [rsp+32]
	lea	rcx, OFFSET FLAT:__53DEE440_xmemory
	call	__CheckForDebuggerJustMyCode

; 1449 :         _Ptr = nullptr;

	mov	rax, QWORD PTR this$[rbp]
	mov	QWORD PTR [rax], 0

; 1450 :     }

	lea	rsp, QWORD PTR [rbp+200]
	pop	rdi
	pop	rbp
	ret	0
?_Release@_Basic_container_proxy_ptr12@std@@QEAAXXZ ENDP ; std::_Basic_container_proxy_ptr12::_Release
_TEXT	ENDS
; Function compile flags: /Odtp /RTCsu /ZI
; File C:\Program Files\Microsoft Visual Studio\2022\Community\VC\Tools\MSVC\14.38.33130\include\utility
;	COMDAT ??$exchange@PEAU_Iterator_base12@std@@$$T@std@@YAPEAU_Iterator_base12@0@AEAPEAU10@$$QEA$$T@Z
_TEXT	SEGMENT
_Old_val$ = 8
_Val$ = 256
_New_val$ = 264
??$exchange@PEAU_Iterator_base12@std@@$$T@std@@YAPEAU_Iterator_base12@0@AEAPEAU10@$$QEA$$T@Z PROC ; std::exchange<std::_Iterator_base12 *,std::nullptr_t>, COMDAT

; 760  :     conjunction_v<is_nothrow_move_constructible<_Ty>, is_nothrow_assignable<_Ty&, _Other>>) {

$LN3:
	mov	QWORD PTR [rsp+16], rdx
	mov	QWORD PTR [rsp+8], rcx
	push	rbp
	push	rdi
	sub	rsp, 264				; 00000108H
	lea	rbp, QWORD PTR [rsp+32]
	lea	rcx, OFFSET FLAT:__394B8783_utility
	call	__CheckForDebuggerJustMyCode

; 761  :     // assign _New_val to _Val, return previous _Val
; 762  :     _Ty _Old_val = static_cast<_Ty&&>(_Val);

	mov	rax, QWORD PTR _Val$[rbp]
	mov	rax, QWORD PTR [rax]
	mov	QWORD PTR _Old_val$[rbp], rax

; 763  :     _Val         = static_cast<_Other&&>(_New_val);

	mov	rax, QWORD PTR _Val$[rbp]
	mov	rcx, QWORD PTR _New_val$[rbp]
	mov	rcx, QWORD PTR [rcx]
	mov	QWORD PTR [rax], rcx

; 764  :     return _Old_val;

	mov	rax, QWORD PTR _Old_val$[rbp]

; 765  : }

	lea	rsp, QWORD PTR [rbp+232]
	pop	rdi
	pop	rbp
	ret	0
??$exchange@PEAU_Iterator_base12@std@@$$T@std@@YAPEAU_Iterator_base12@0@AEAPEAU10@$$QEA$$T@Z ENDP ; std::exchange<std::_Iterator_base12 *,std::nullptr_t>
_TEXT	ENDS
; Function compile flags: /Odtp /RTCsu /ZI
; File C:\Program Files\Microsoft Visual Studio\2022\Community\VC\Tools\MSVC\14.38.33130\include\xmemory
;	COMDAT ?_Orphan_all_locked_v3@_Container_base12@std@@AEAAXXZ
_TEXT	SEGMENT
_Lock$ = 4
__$ArrayPad$ = 216
this$ = 256
?_Orphan_all_locked_v3@_Container_base12@std@@AEAAXXZ PROC ; std::_Container_base12::_Orphan_all_locked_v3, COMDAT

; 1229 :     void _Orphan_all_locked_v3() noexcept {

$LN3:
	mov	QWORD PTR [rsp+8], rcx
	push	rbp
	push	rdi
	sub	rsp, 264				; 00000108H
	lea	rbp, QWORD PTR [rsp+32]
	lea	rdi, QWORD PTR [rsp+32]
	mov	ecx, 10
	mov	eax, -858993460				; ccccccccH
	rep stosd
	mov	rcx, QWORD PTR [rsp+296]
	mov	rax, QWORD PTR __security_cookie
	xor	rax, rbp
	mov	QWORD PTR __$ArrayPad$[rbp], rax
	lea	rcx, OFFSET FLAT:__53DEE440_xmemory
	call	__CheckForDebuggerJustMyCode

; 1230 :         _Lockit _Lock(_LOCK_DEBUG);

	mov	edx, 3
	lea	rcx, QWORD PTR _Lock$[rbp]
	call	QWORD PTR __imp_??0_Lockit@std@@QEAA@H@Z

; 1231 :         _Orphan_all_unlocked_v3();

	mov	rcx, QWORD PTR this$[rbp]
	call	?_Orphan_all_unlocked_v3@_Container_base12@std@@AEAAXXZ ; std::_Container_base12::_Orphan_all_unlocked_v3

; 1232 :     }

	lea	rcx, QWORD PTR _Lock$[rbp]
	call	QWORD PTR __imp_??1_Lockit@std@@QEAA@XZ
	lea	rcx, QWORD PTR [rbp-32]
	lea	rdx, OFFSET FLAT:?_Orphan_all_locked_v3@_Container_base12@std@@AEAAXXZ$rtcFrameData
	call	_RTC_CheckStackVars
	mov	rcx, QWORD PTR __$ArrayPad$[rbp]
	xor	rcx, rbp
	call	__security_check_cookie
	lea	rsp, QWORD PTR [rbp+232]
	pop	rdi
	pop	rbp
	ret	0
?_Orphan_all_locked_v3@_Container_base12@std@@AEAAXXZ ENDP ; std::_Container_base12::_Orphan_all_locked_v3
_TEXT	ENDS
; Function compile flags: /Odtp /RTCsu /ZI
; File C:\Program Files\Microsoft Visual Studio\2022\Community\VC\Tools\MSVC\14.38.33130\include\xmemory
;	COMDAT ?_Orphan_all_unlocked_v3@_Container_base12@std@@AEAAXXZ
_TEXT	SEGMENT
_Pnext$1 = 8
$T2 = 228
this$ = 288
?_Orphan_all_unlocked_v3@_Container_base12@std@@AEAAXXZ PROC ; std::_Container_base12::_Orphan_all_unlocked_v3, COMDAT

; 1369 : _CONSTEXPR20 void _Container_base12::_Orphan_all_unlocked_v3() noexcept {

$LN7:
	mov	QWORD PTR [rsp+8], rcx
	push	rbp
	push	rdi
	sub	rsp, 296				; 00000128H
	lea	rbp, QWORD PTR [rsp+32]
	lea	rcx, OFFSET FLAT:__53DEE440_xmemory
	call	__CheckForDebuggerJustMyCode

; 1370 :     if (!_Myproxy) { // no proxy, already done

	mov	rax, QWORD PTR this$[rbp]
	cmp	QWORD PTR [rax], 0
	jne	SHORT $LN5@Orphan_all

; 1371 :         return;

	jmp	SHORT $LN1@Orphan_all
$LN5@Orphan_all:

; 1372 :     }
; 1373 : 
; 1374 :     // proxy allocated, drain it
; 1375 :     for (auto _Pnext = _STD exchange(_Myproxy->_Myfirstiter, nullptr); _Pnext; _Pnext = _Pnext->_Mynextiter) {

	mov	QWORD PTR $T2[rbp], 0
	mov	rax, QWORD PTR this$[rbp]
	mov	rax, QWORD PTR [rax]
	add	rax, 8
	lea	rdx, QWORD PTR $T2[rbp]
	mov	rcx, rax
	call	??$exchange@PEAU_Iterator_base12@std@@$$T@std@@YAPEAU_Iterator_base12@0@AEAPEAU10@$$QEA$$T@Z ; std::exchange<std::_Iterator_base12 *,std::nullptr_t>
	mov	QWORD PTR _Pnext$1[rbp], rax
	jmp	SHORT $LN4@Orphan_all
$LN2@Orphan_all:
	mov	rax, QWORD PTR _Pnext$1[rbp]
	mov	rax, QWORD PTR [rax+8]
	mov	QWORD PTR _Pnext$1[rbp], rax
$LN4@Orphan_all:
	cmp	QWORD PTR _Pnext$1[rbp], 0
	je	SHORT $LN1@Orphan_all

; 1376 :         _Pnext->_Myproxy = nullptr;

	mov	rax, QWORD PTR _Pnext$1[rbp]
	mov	QWORD PTR [rax], 0

; 1377 :     }

	jmp	SHORT $LN2@Orphan_all
$LN1@Orphan_all:

; 1378 : }

	lea	rsp, QWORD PTR [rbp+264]
	pop	rdi
	pop	rbp
	ret	0
?_Orphan_all_unlocked_v3@_Container_base12@std@@AEAAXXZ ENDP ; std::_Container_base12::_Orphan_all_unlocked_v3
_TEXT	ENDS
; Function compile flags: /Odtp /RTCsu /ZI
; File C:\Program Files\Microsoft Visual Studio\2022\Community\VC\Tools\MSVC\14.38.33130\include\xmemory
;	COMDAT ?_Orphan_all@_Container_base12@std@@QEAAXXZ
_TEXT	SEGMENT
this$ = 224
?_Orphan_all@_Container_base12@std@@QEAAXXZ PROC	; std::_Container_base12::_Orphan_all, COMDAT

; 1380 : _CONSTEXPR20 void _Container_base12::_Orphan_all() noexcept {

$LN5:
	mov	QWORD PTR [rsp+8], rcx
	push	rbp
	push	rdi
	sub	rsp, 232				; 000000e8H
	lea	rbp, QWORD PTR [rsp+32]
	lea	rcx, OFFSET FLAT:__53DEE440_xmemory
	call	__CheckForDebuggerJustMyCode

; 1381 : #if _ITERATOR_DEBUG_LEVEL == 2
; 1382 : #if _HAS_CXX20
; 1383 :     if (_STD is_constant_evaluated()) {

	call	?is_constant_evaluated@std@@YA_NXZ	; std::is_constant_evaluated
	movzx	eax, al
	test	eax, eax
	je	SHORT $LN2@Orphan_all

; 1384 :         _Orphan_all_unlocked_v3();

	mov	rcx, QWORD PTR this$[rbp]
	call	?_Orphan_all_unlocked_v3@_Container_base12@std@@AEAAXXZ ; std::_Container_base12::_Orphan_all_unlocked_v3

; 1385 :     } else

	jmp	SHORT $LN3@Orphan_all
$LN2@Orphan_all:

; 1386 : #endif // _HAS_CXX20
; 1387 :     {
; 1388 :         _Orphan_all_locked_v3();

	mov	rcx, QWORD PTR this$[rbp]
	call	?_Orphan_all_locked_v3@_Container_base12@std@@AEAAXXZ ; std::_Container_base12::_Orphan_all_locked_v3
$LN3@Orphan_all:

; 1389 :     }
; 1390 : #endif // _ITERATOR_DEBUG_LEVEL == 2
; 1391 : }

	lea	rsp, QWORD PTR [rbp+200]
	pop	rdi
	pop	rbp
	ret	0
?_Orphan_all@_Container_base12@std@@QEAAXXZ ENDP	; std::_Container_base12::_Orphan_all
_TEXT	ENDS
; Function compile flags: /Odtp /RTCsu /ZI
; File C:\Program Files\Microsoft Visual Studio\2022\Community\VC\Tools\MSVC\14.38.33130\include\xmemory
;	COMDAT ??0_Container_base12@std@@QEAA@XZ
_TEXT	SEGMENT
this$ = 224
??0_Container_base12@std@@QEAA@XZ PROC			; std::_Container_base12::_Container_base12, COMDAT

; 1198 :     _CONSTEXPR20 _Container_base12() noexcept = default;

$LN3:
	mov	QWORD PTR [rsp+8], rcx
	push	rbp
	push	rdi
	sub	rsp, 232				; 000000e8H
	lea	rbp, QWORD PTR [rsp+32]
	lea	rcx, OFFSET FLAT:__53DEE440_xmemory
	call	__CheckForDebuggerJustMyCode

; 1199 : 
; 1200 :     _Container_base12(const _Container_base12&)            = delete;
; 1201 :     _Container_base12& operator=(const _Container_base12&) = delete;
; 1202 : 
; 1203 :     _CONSTEXPR20 void _Orphan_all() noexcept;
; 1204 :     _CONSTEXPR20 void _Swap_proxy_and_iterators(_Container_base12&) noexcept;
; 1205 : 
; 1206 :     template <class _Alloc>
; 1207 :     _CONSTEXPR20 void _Alloc_proxy(_Alloc&& _Al) {
; 1208 :         _Container_proxy* const _New_proxy = _Unfancy(_Al.allocate(1));
; 1209 :         _Construct_in_place(*_New_proxy, this);
; 1210 :         _Myproxy            = _New_proxy;
; 1211 :         _New_proxy->_Mycont = this;
; 1212 :     }
; 1213 : 
; 1214 :     template <class _Alloc>
; 1215 :     _CONSTEXPR20 void _Reload_proxy(_Alloc&& _Old_alloc, _Alloc&& _New_alloc) {
; 1216 :         // pre: no iterators refer to the existing proxy
; 1217 :         _Container_proxy* const _New_proxy = _Unfancy(_New_alloc.allocate(1));
; 1218 :         _Construct_in_place(*_New_proxy, this);
; 1219 :         _New_proxy->_Mycont = this;
; 1220 :         _Delete_plain_internal(_Old_alloc, _STD exchange(_Myproxy, _New_proxy));
; 1221 :     }
; 1222 : 
; 1223 :     _Container_proxy* _Myproxy = nullptr;

	mov	rax, QWORD PTR this$[rbp]
	mov	QWORD PTR [rax], 0

; 1198 :     _CONSTEXPR20 _Container_base12() noexcept = default;

	mov	rax, QWORD PTR this$[rbp]
	lea	rsp, QWORD PTR [rbp+200]
	pop	rdi
	pop	rbp
	ret	0
??0_Container_base12@std@@QEAA@XZ ENDP			; std::_Container_base12::_Container_base12
_TEXT	ENDS
; Function compile flags: /Odtp /RTCsu /ZI
; File C:\Program Files\Microsoft Visual Studio\2022\Community\VC\Tools\MSVC\14.38.33130\include\xmemory
;	COMDAT ??0_Container_proxy@std@@QEAA@PEAU_Container_base12@1@@Z
_TEXT	SEGMENT
this$ = 224
_Mycont_$ = 232
??0_Container_proxy@std@@QEAA@PEAU_Container_base12@1@@Z PROC ; std::_Container_proxy::_Container_proxy, COMDAT

; 1190 :     _CONSTEXPR20 _Container_proxy(_Container_base12* _Mycont_) noexcept : _Mycont(_Mycont_) {}

$LN3:
	mov	QWORD PTR [rsp+16], rdx
	mov	QWORD PTR [rsp+8], rcx
	push	rbp
	push	rdi
	sub	rsp, 232				; 000000e8H
	lea	rbp, QWORD PTR [rsp+32]
	lea	rcx, OFFSET FLAT:__53DEE440_xmemory
	call	__CheckForDebuggerJustMyCode
	mov	rax, QWORD PTR this$[rbp]
	mov	rcx, QWORD PTR _Mycont_$[rbp]
	mov	QWORD PTR [rax], rcx

; 1191 : 
; 1192 :     const _Container_base12* _Mycont       = nullptr;
; 1193 :     mutable _Iterator_base12* _Myfirstiter = nullptr;

	mov	rax, QWORD PTR this$[rbp]
	mov	QWORD PTR [rax+8], 0

; 1190 :     _CONSTEXPR20 _Container_proxy(_Container_base12* _Mycont_) noexcept : _Mycont(_Mycont_) {}

	mov	rax, QWORD PTR this$[rbp]
	lea	rsp, QWORD PTR [rbp+200]
	pop	rdi
	pop	rbp
	ret	0
??0_Container_proxy@std@@QEAA@PEAU_Container_base12@1@@Z ENDP ; std::_Container_proxy::_Container_proxy
_TEXT	ENDS
; Function compile flags: /Odtp /RTCsu /ZI
; File C:\Program Files\Microsoft Visual Studio\2022\Community\VC\Tools\MSVC\14.38.33130\include\xmemory
;	COMDAT ?_Adjust_manually_vector_aligned@std@@YAXAEAPEAXAEA_K@Z
_TEXT	SEGMENT
_Ptr_user$ = 8
_Ptr_container$ = 40
_Min_back_shift$ = 72
_Back_shift$ = 104
_Ptr$ = 352
_Bytes$ = 360
?_Adjust_manually_vector_aligned@std@@YAXAEAPEAXAEA_K@Z PROC ; std::_Adjust_manually_vector_aligned, COMDAT

; 154  : inline void _Adjust_manually_vector_aligned(void*& _Ptr, size_t& _Bytes) {

$LN21:
	mov	QWORD PTR [rsp+16], rdx
	mov	QWORD PTR [rsp+8], rcx
	push	rbp
	push	rdi
	sub	rsp, 376				; 00000178H
	lea	rbp, QWORD PTR [rsp+48]
	lea	rcx, OFFSET FLAT:__53DEE440_xmemory
	call	__CheckForDebuggerJustMyCode

; 155  :     // adjust parameters from _Allocate_manually_vector_aligned to pass to operator delete
; 156  :     _Bytes += _Non_user_size;

	mov	rax, QWORD PTR _Bytes$[rbp]
	mov	rax, QWORD PTR [rax]
	add	rax, 47					; 0000002fH
	mov	rcx, QWORD PTR _Bytes$[rbp]
	mov	QWORD PTR [rcx], rax

; 157  : 
; 158  :     const uintptr_t* const _Ptr_user = static_cast<uintptr_t*>(_Ptr);

	mov	rax, QWORD PTR _Ptr$[rbp]
	mov	rax, QWORD PTR [rax]
	mov	QWORD PTR _Ptr_user$[rbp], rax

; 159  :     const uintptr_t _Ptr_container   = _Ptr_user[-1];

	mov	eax, 8
	imul	rax, rax, -1
	mov	rcx, QWORD PTR _Ptr_user$[rbp]
	mov	rax, QWORD PTR [rcx+rax]
	mov	QWORD PTR _Ptr_container$[rbp], rax
$LN4@Adjust_man:

; 160  : 
; 161  :     // If the following asserts, it likely means that we are performing
; 162  :     // an aligned delete on memory coming from an unaligned allocation.
; 163  :     _STL_ASSERT(_Ptr_user[-2] == _Big_allocation_sentinel, "invalid argument");

	mov	eax, 8
	imul	rax, rax, -2
	mov	rcx, QWORD PTR _Ptr_user$[rbp]
	mov	rdx, -361700864190383366		; fafafafafafafafaH
	cmp	QWORD PTR [rcx+rax], rdx
	jne	SHORT $LN14@Adjust_man
	jmp	SHORT $LN15@Adjust_man
$LN14@Adjust_man:
$LN7@Adjust_man:
	mov	eax, DWORD PTR ?__LINE__Var@?0??_Adjust_manually_vector_aligned@std@@YAXAEAPEAXAEA_K@Z@4JA
	add	eax, 9
	lea	rcx, OFFSET FLAT:??_C@_0BB@FCMFBGOM@invalid?5argument@
	mov	QWORD PTR [rsp+40], rcx
	lea	rcx, OFFSET FLAT:??_C@_02DKCKIIND@?$CFs@
	mov	QWORD PTR [rsp+32], rcx
	xor	r9d, r9d
	mov	r8d, eax
	lea	rdx, OFFSET FLAT:??_C@_0GC@MFPFMMDA@C?3?2Program?5Files?2Microsoft?5Visu@
	mov	ecx, 2
	call	QWORD PTR __imp__CrtDbgReport
	cmp	eax, 1
	jne	SHORT $LN19@Adjust_man
	int	3
	xor	eax, eax
$LN19@Adjust_man:
	mov	eax, DWORD PTR ?__LINE__Var@?0??_Adjust_manually_vector_aligned@std@@YAXAEAPEAXAEA_K@Z@4JA
	add	eax, 9
	mov	QWORD PTR [rsp+32], 0
	mov	r9d, eax
	lea	r8, OFFSET FLAT:??_C@_1ME@HBHJKKLJ@?$AAC?$AA?3?$AA?2?$AAP?$AAr?$AAo?$AAg?$AAr?$AAa?$AAm?$AA?5?$AAF?$AAi?$AAl?$AAe@
	lea	rdx, OFFSET FLAT:??_C@_11LOCGONAA@@
	lea	rcx, OFFSET FLAT:??_C@_1CG@JNLFBNGN@?$AA?$CC?$AAi?$AAn?$AAv?$AAa?$AAl?$AAi?$AAd?$AA?5?$AAa?$AAr?$AAg?$AAu?$AAm?$AAe@
	call	QWORD PTR __imp__invalid_parameter
	xor	eax, eax
	test	eax, eax
	jne	SHORT $LN7@Adjust_man
$LN15@Adjust_man:
	xor	eax, eax
	test	eax, eax
	jne	$LN4@Adjust_man

; 164  : 
; 165  :     // Extra paranoia on aligned allocation/deallocation; ensure _Ptr_container is
; 166  :     // in range [_Min_back_shift, _Non_user_size]
; 167  : #ifdef _DEBUG
; 168  :     constexpr uintptr_t _Min_back_shift = 2 * sizeof(void*);

	mov	QWORD PTR _Min_back_shift$[rbp], 16

; 169  : #else // ^^^ defined(_DEBUG) / !defined(_DEBUG) vvv
; 170  :     constexpr uintptr_t _Min_back_shift = sizeof(void*);
; 171  : #endif // ^^^ !defined(_DEBUG) ^^^
; 172  :     const uintptr_t _Back_shift = reinterpret_cast<uintptr_t>(_Ptr) - _Ptr_container;

	mov	rax, QWORD PTR _Ptr$[rbp]
	mov	rcx, QWORD PTR _Ptr_container$[rbp]
	mov	rax, QWORD PTR [rax]
	sub	rax, rcx
	mov	QWORD PTR _Back_shift$[rbp], rax
$LN10@Adjust_man:

; 173  :     _STL_VERIFY(_Back_shift >= _Min_back_shift && _Back_shift <= _Non_user_size, "invalid argument");

	cmp	QWORD PTR _Back_shift$[rbp], 16
	jb	SHORT $LN16@Adjust_man
	cmp	QWORD PTR _Back_shift$[rbp], 47		; 0000002fH
	ja	SHORT $LN16@Adjust_man
	jmp	SHORT $LN17@Adjust_man
$LN16@Adjust_man:
$LN13@Adjust_man:
	mov	eax, DWORD PTR ?__LINE__Var@?0??_Adjust_manually_vector_aligned@std@@YAXAEAPEAXAEA_K@Z@4JA
	add	eax, 19
	lea	rcx, OFFSET FLAT:??_C@_0BB@FCMFBGOM@invalid?5argument@
	mov	QWORD PTR [rsp+40], rcx
	lea	rcx, OFFSET FLAT:??_C@_02DKCKIIND@?$CFs@
	mov	QWORD PTR [rsp+32], rcx
	xor	r9d, r9d
	mov	r8d, eax
	lea	rdx, OFFSET FLAT:??_C@_0GC@MFPFMMDA@C?3?2Program?5Files?2Microsoft?5Visu@
	mov	ecx, 2
	call	QWORD PTR __imp__CrtDbgReport
	cmp	eax, 1
	jne	SHORT $LN20@Adjust_man
	int	3
	xor	eax, eax
$LN20@Adjust_man:
	mov	eax, DWORD PTR ?__LINE__Var@?0??_Adjust_manually_vector_aligned@std@@YAXAEAPEAXAEA_K@Z@4JA
	add	eax, 19
	mov	QWORD PTR [rsp+32], 0
	mov	r9d, eax
	lea	r8, OFFSET FLAT:??_C@_1ME@HBHJKKLJ@?$AAC?$AA?3?$AA?2?$AAP?$AAr?$AAo?$AAg?$AAr?$AAa?$AAm?$AA?5?$AAF?$AAi?$AAl?$AAe@
	lea	rdx, OFFSET FLAT:??_C@_11LOCGONAA@@
	lea	rcx, OFFSET FLAT:??_C@_1CG@JNLFBNGN@?$AA?$CC?$AAi?$AAn?$AAv?$AAa?$AAl?$AAi?$AAd?$AA?5?$AAa?$AAr?$AAg?$AAu?$AAm?$AAe@
	call	QWORD PTR __imp__invalid_parameter
	xor	eax, eax
	test	eax, eax
	jne	SHORT $LN13@Adjust_man
$LN17@Adjust_man:
	xor	eax, eax
	test	eax, eax
	jne	$LN10@Adjust_man

; 174  :     _Ptr = reinterpret_cast<void*>(_Ptr_container);

	mov	rax, QWORD PTR _Ptr$[rbp]
	mov	rcx, QWORD PTR _Ptr_container$[rbp]
	mov	QWORD PTR [rax], rcx

; 175  : }

	lea	rsp, QWORD PTR [rbp+328]
	pop	rdi
	pop	rbp
	ret	0
?_Adjust_manually_vector_aligned@std@@YAXAEAPEAXAEA_K@Z ENDP ; std::_Adjust_manually_vector_aligned
_TEXT	ENDS
; Function compile flags: /Odtp /RTCsu /ZI
; File C:\Program Files\Microsoft Visual Studio\2022\Community\VC\Tools\MSVC\14.38.33130\include\xmemory
;	COMDAT ?_Allocate@_Default_allocate_traits@std@@SAPEAX_K@Z
_TEXT	SEGMENT
_Bytes$ = 224
?_Allocate@_Default_allocate_traits@std@@SAPEAX_K@Z PROC ; std::_Default_allocate_traits::_Allocate, COMDAT

; 85   :         void* _Allocate(const size_t _Bytes) {

$LN3:
	mov	QWORD PTR [rsp+8], rcx
	push	rbp
	push	rdi
	sub	rsp, 232				; 000000e8H
	lea	rbp, QWORD PTR [rsp+32]
	lea	rcx, OFFSET FLAT:__53DEE440_xmemory
	call	__CheckForDebuggerJustMyCode

; 86   :         return ::operator new(_Bytes);

	mov	rcx, QWORD PTR _Bytes$[rbp]
	call	??2@YAPEAX_K@Z				; operator new

; 87   :     }

	lea	rsp, QWORD PTR [rbp+200]
	pop	rdi
	pop	rbp
	ret	0
?_Allocate@_Default_allocate_traits@std@@SAPEAX_K@Z ENDP ; std::_Default_allocate_traits::_Allocate
_TEXT	ENDS
; Function compile flags: /Odtp /RTCsu /ZI
; File C:\Program Files\Microsoft Visual Studio\2022\Community\VC\Tools\MSVC\14.38.33130\include\limits
;	COMDAT ?max@?$numeric_limits@_J@std@@SA_JXZ
_TEXT	SEGMENT
?max@?$numeric_limits@_J@std@@SA_JXZ PROC		; std::numeric_limits<__int64>::max, COMDAT

; 635  :     _NODISCARD static constexpr long long(max)() noexcept {

$LN3:
	push	rbp
	push	rdi
	sub	rsp, 232				; 000000e8H
	lea	rbp, QWORD PTR [rsp+32]
	lea	rcx, OFFSET FLAT:__1C3CEDF9_limits
	call	__CheckForDebuggerJustMyCode

; 636  :         return LLONG_MAX;

	mov	rax, 9223372036854775807		; 7fffffffffffffffH

; 637  :     }

	lea	rsp, QWORD PTR [rbp+200]
	pop	rdi
	pop	rbp
	ret	0
?max@?$numeric_limits@_J@std@@SA_JXZ ENDP		; std::numeric_limits<__int64>::max
_TEXT	ENDS
; Function compile flags: /Odtp /RTCsu /ZI
; File C:\Program Files (x86)\Windows Kits\10\Include\10.0.22621.0\ucrt\wchar.h
;	COMDAT wmemcpy
_TEXT	SEGMENT
_S1$ = 224
_S2$ = 232
_N$ = 240
wmemcpy	PROC						; COMDAT

; 234  :     {

$LN3:
	mov	QWORD PTR [rsp+24], r8
	mov	QWORD PTR [rsp+16], rdx
	mov	QWORD PTR [rsp+8], rcx
	push	rbp
	push	rdi
	sub	rsp, 232				; 000000e8H
	lea	rbp, QWORD PTR [rsp+32]
	lea	rcx, OFFSET FLAT:__3FCAD62E_wchar@h
	call	__CheckForDebuggerJustMyCode

; 235  :         #pragma warning(suppress: 6386) // Buffer overrun
; 236  :         return (wchar_t*)memcpy(_S1, _S2, _N*sizeof(wchar_t));

	mov	rax, QWORD PTR _N$[rbp]
	shl	rax, 1
	mov	r8, rax
	mov	rdx, QWORD PTR _S2$[rbp]
	mov	rcx, QWORD PTR _S1$[rbp]
	call	memcpy

; 237  :     }

	lea	rsp, QWORD PTR [rbp+200]
	pop	rdi
	pop	rbp
	ret	0
wmemcpy	ENDP
_TEXT	ENDS
; Function compile flags: /Odtp /RTCsu /ZI
; File C:\Program Files\Microsoft Visual Studio\2022\Community\VC\Tools\MSVC\14.38.33130\include\exception
;	COMDAT ?_Throw_bad_array_new_length@std@@YAXXZ
_TEXT	SEGMENT
$T1 = 200
?_Throw_bad_array_new_length@std@@YAXXZ PROC		; std::_Throw_bad_array_new_length, COMDAT

; 330  : [[noreturn]] inline void _Throw_bad_array_new_length() {

$LN3:
	push	rbp
	push	rdi
	sub	rsp, 280				; 00000118H
	lea	rbp, QWORD PTR [rsp+32]
	lea	rcx, OFFSET FLAT:__22DBD04C_exception
	call	__CheckForDebuggerJustMyCode

; 331  :     _THROW(bad_array_new_length{});

	lea	rcx, QWORD PTR $T1[rbp]
	call	??0bad_array_new_length@std@@QEAA@XZ	; std::bad_array_new_length::bad_array_new_length
	lea	rdx, OFFSET FLAT:_TI3?AVbad_array_new_length@std@@
	lea	rcx, QWORD PTR $T1[rbp]
	call	_CxxThrowException
$LN2@Throw_bad_:

; 332  : }

	lea	rsp, QWORD PTR [rbp+248]
	pop	rdi
	pop	rbp
	ret	0
?_Throw_bad_array_new_length@std@@YAXXZ ENDP		; std::_Throw_bad_array_new_length
_TEXT	ENDS
; Function compile flags: /Odtp /RTCsu /ZI
;	COMDAT ??_Gbad_array_new_length@std@@UEAAPEAXI@Z
_TEXT	SEGMENT
this$ = 224
__flags$ = 232
??_Gbad_array_new_length@std@@UEAAPEAXI@Z PROC		; std::bad_array_new_length::`scalar deleting destructor', COMDAT
$LN4:
	mov	DWORD PTR [rsp+16], edx
	mov	QWORD PTR [rsp+8], rcx
	push	rbp
	push	rdi
	sub	rsp, 232				; 000000e8H
	lea	rbp, QWORD PTR [rsp+32]
	mov	rcx, QWORD PTR this$[rbp]
	call	??1bad_array_new_length@std@@UEAA@XZ
	mov	eax, DWORD PTR __flags$[rbp]
	and	eax, 1
	test	eax, eax
	je	SHORT $LN2@scalar
	mov	edx, 24
	mov	rcx, QWORD PTR this$[rbp]
	call	??3@YAXPEAX_K@Z				; operator delete
$LN2@scalar:
	mov	rax, QWORD PTR this$[rbp]
	lea	rsp, QWORD PTR [rbp+200]
	pop	rdi
	pop	rbp
	ret	0
??_Gbad_array_new_length@std@@UEAAPEAXI@Z ENDP		; std::bad_array_new_length::`scalar deleting destructor'
_TEXT	ENDS
; Function compile flags: /Odtp /RTCsu /ZI
;	COMDAT ??0bad_array_new_length@std@@QEAA@AEBV01@@Z
_TEXT	SEGMENT
this$ = 224
__that$ = 232
??0bad_array_new_length@std@@QEAA@AEBV01@@Z PROC	; std::bad_array_new_length::bad_array_new_length, COMDAT
$LN3:
	mov	QWORD PTR [rsp+16], rdx
	mov	QWORD PTR [rsp+8], rcx
	push	rbp
	push	rdi
	sub	rsp, 232				; 000000e8H
	lea	rbp, QWORD PTR [rsp+32]
	mov	rdx, QWORD PTR __that$[rbp]
	mov	rcx, QWORD PTR this$[rbp]
	call	??0bad_alloc@std@@QEAA@AEBV01@@Z
	mov	rax, QWORD PTR this$[rbp]
	lea	rcx, OFFSET FLAT:??_7bad_array_new_length@std@@6B@
	mov	QWORD PTR [rax], rcx
	mov	rax, QWORD PTR this$[rbp]
	lea	rsp, QWORD PTR [rbp+200]
	pop	rdi
	pop	rbp
	ret	0
??0bad_array_new_length@std@@QEAA@AEBV01@@Z ENDP	; std::bad_array_new_length::bad_array_new_length
_TEXT	ENDS
; Function compile flags: /Odtp /RTCsu /ZI
;	COMDAT ??1bad_array_new_length@std@@UEAA@XZ
_TEXT	SEGMENT
this$ = 224
??1bad_array_new_length@std@@UEAA@XZ PROC		; std::bad_array_new_length::~bad_array_new_length, COMDAT
$LN3:
	mov	QWORD PTR [rsp+8], rcx
	push	rbp
	push	rdi
	sub	rsp, 232				; 000000e8H
	lea	rbp, QWORD PTR [rsp+32]
	mov	rcx, QWORD PTR this$[rbp]
	call	??1bad_alloc@std@@UEAA@XZ
	lea	rsp, QWORD PTR [rbp+200]
	pop	rdi
	pop	rbp
	ret	0
??1bad_array_new_length@std@@UEAA@XZ ENDP		; std::bad_array_new_length::~bad_array_new_length
_TEXT	ENDS
; Function compile flags: /Odtp /RTCsu /ZI
; File C:\Program Files\Microsoft Visual Studio\2022\Community\VC\Tools\MSVC\14.38.33130\include\vcruntime_exception.h
;	COMDAT ??0bad_array_new_length@std@@QEAA@XZ
_TEXT	SEGMENT
this$ = 224
??0bad_array_new_length@std@@QEAA@XZ PROC		; std::bad_array_new_length::bad_array_new_length, COMDAT

; 141  :     {

$LN3:
	mov	QWORD PTR [rsp+8], rcx
	push	rbp
	push	rdi
	sub	rsp, 232				; 000000e8H
	lea	rbp, QWORD PTR [rsp+32]
	lea	rcx, OFFSET FLAT:__9FD3D380_vcruntime_exception@h
	call	__CheckForDebuggerJustMyCode

; 140  :         : bad_alloc("bad array new length")

	lea	rdx, OFFSET FLAT:??_C@_0BF@KINCDENJ@bad?5array?5new?5length@
	mov	rcx, QWORD PTR this$[rbp]
	call	??0bad_alloc@std@@AEAA@QEBD@Z		; std::bad_alloc::bad_alloc

; 141  :     {

	mov	rax, QWORD PTR this$[rbp]
	lea	rcx, OFFSET FLAT:??_7bad_array_new_length@std@@6B@
	mov	QWORD PTR [rax], rcx

; 142  :     }

	mov	rax, QWORD PTR this$[rbp]
	lea	rsp, QWORD PTR [rbp+200]
	pop	rdi
	pop	rbp
	ret	0
??0bad_array_new_length@std@@QEAA@XZ ENDP		; std::bad_array_new_length::bad_array_new_length
_TEXT	ENDS
; Function compile flags: /Odtp /RTCsu /ZI
;	COMDAT ??_Gbad_alloc@std@@UEAAPEAXI@Z
_TEXT	SEGMENT
this$ = 224
__flags$ = 232
??_Gbad_alloc@std@@UEAAPEAXI@Z PROC			; std::bad_alloc::`scalar deleting destructor', COMDAT
$LN4:
	mov	DWORD PTR [rsp+16], edx
	mov	QWORD PTR [rsp+8], rcx
	push	rbp
	push	rdi
	sub	rsp, 232				; 000000e8H
	lea	rbp, QWORD PTR [rsp+32]
	mov	rcx, QWORD PTR this$[rbp]
	call	??1bad_alloc@std@@UEAA@XZ
	mov	eax, DWORD PTR __flags$[rbp]
	and	eax, 1
	test	eax, eax
	je	SHORT $LN2@scalar
	mov	edx, 24
	mov	rcx, QWORD PTR this$[rbp]
	call	??3@YAXPEAX_K@Z				; operator delete
$LN2@scalar:
	mov	rax, QWORD PTR this$[rbp]
	lea	rsp, QWORD PTR [rbp+200]
	pop	rdi
	pop	rbp
	ret	0
??_Gbad_alloc@std@@UEAAPEAXI@Z ENDP			; std::bad_alloc::`scalar deleting destructor'
_TEXT	ENDS
; Function compile flags: /Odtp /RTCsu /ZI
;	COMDAT ??0bad_alloc@std@@QEAA@AEBV01@@Z
_TEXT	SEGMENT
this$ = 224
__that$ = 232
??0bad_alloc@std@@QEAA@AEBV01@@Z PROC			; std::bad_alloc::bad_alloc, COMDAT
$LN3:
	mov	QWORD PTR [rsp+16], rdx
	mov	QWORD PTR [rsp+8], rcx
	push	rbp
	push	rdi
	sub	rsp, 232				; 000000e8H
	lea	rbp, QWORD PTR [rsp+32]
	mov	rdx, QWORD PTR __that$[rbp]
	mov	rcx, QWORD PTR this$[rbp]
	call	??0exception@std@@QEAA@AEBV01@@Z	; std::exception::exception
	mov	rax, QWORD PTR this$[rbp]
	lea	rcx, OFFSET FLAT:??_7bad_alloc@std@@6B@
	mov	QWORD PTR [rax], rcx
	mov	rax, QWORD PTR this$[rbp]
	lea	rsp, QWORD PTR [rbp+200]
	pop	rdi
	pop	rbp
	ret	0
??0bad_alloc@std@@QEAA@AEBV01@@Z ENDP			; std::bad_alloc::bad_alloc
_TEXT	ENDS
; Function compile flags: /Odtp /RTCsu /ZI
;	COMDAT ??1bad_alloc@std@@UEAA@XZ
_TEXT	SEGMENT
this$ = 224
??1bad_alloc@std@@UEAA@XZ PROC				; std::bad_alloc::~bad_alloc, COMDAT
$LN3:
	mov	QWORD PTR [rsp+8], rcx
	push	rbp
	push	rdi
	sub	rsp, 232				; 000000e8H
	lea	rbp, QWORD PTR [rsp+32]
	mov	rcx, QWORD PTR this$[rbp]
	call	??1exception@std@@UEAA@XZ		; std::exception::~exception
	lea	rsp, QWORD PTR [rbp+200]
	pop	rdi
	pop	rbp
	ret	0
??1bad_alloc@std@@UEAA@XZ ENDP				; std::bad_alloc::~bad_alloc
_TEXT	ENDS
; Function compile flags: /Odtp /RTCsu /ZI
; File C:\Program Files\Microsoft Visual Studio\2022\Community\VC\Tools\MSVC\14.38.33130\include\vcruntime_exception.h
;	COMDAT ??0bad_alloc@std@@AEAA@QEBD@Z
_TEXT	SEGMENT
this$ = 224
_Message$ = 232
??0bad_alloc@std@@AEAA@QEBD@Z PROC			; std::bad_alloc::bad_alloc, COMDAT

; 130  :     {

$LN3:
	mov	QWORD PTR [rsp+16], rdx
	mov	QWORD PTR [rsp+8], rcx
	push	rbp
	push	rdi
	sub	rsp, 232				; 000000e8H
	lea	rbp, QWORD PTR [rsp+32]
	lea	rcx, OFFSET FLAT:__9FD3D380_vcruntime_exception@h
	call	__CheckForDebuggerJustMyCode

; 129  :         : exception(_Message, 1)

	mov	r8d, 1
	mov	rdx, QWORD PTR _Message$[rbp]
	mov	rcx, QWORD PTR this$[rbp]
	call	??0exception@std@@QEAA@QEBDH@Z		; std::exception::exception

; 130  :     {

	mov	rax, QWORD PTR this$[rbp]
	lea	rcx, OFFSET FLAT:??_7bad_alloc@std@@6B@
	mov	QWORD PTR [rax], rcx

; 131  :     }

	mov	rax, QWORD PTR this$[rbp]
	lea	rsp, QWORD PTR [rbp+200]
	pop	rdi
	pop	rbp
	ret	0
??0bad_alloc@std@@AEAA@QEBD@Z ENDP			; std::bad_alloc::bad_alloc
_TEXT	ENDS
; Function compile flags: /Odtp /RTCsu /ZI
;	COMDAT ??_Gexception@std@@UEAAPEAXI@Z
_TEXT	SEGMENT
this$ = 224
__flags$ = 232
??_Gexception@std@@UEAAPEAXI@Z PROC			; std::exception::`scalar deleting destructor', COMDAT
$LN4:
	mov	DWORD PTR [rsp+16], edx
	mov	QWORD PTR [rsp+8], rcx
	push	rbp
	push	rdi
	sub	rsp, 232				; 000000e8H
	lea	rbp, QWORD PTR [rsp+32]
	mov	rcx, QWORD PTR this$[rbp]
	call	??1exception@std@@UEAA@XZ		; std::exception::~exception
	mov	eax, DWORD PTR __flags$[rbp]
	and	eax, 1
	test	eax, eax
	je	SHORT $LN2@scalar
	mov	edx, 24
	mov	rcx, QWORD PTR this$[rbp]
	call	??3@YAXPEAX_K@Z				; operator delete
$LN2@scalar:
	mov	rax, QWORD PTR this$[rbp]
	lea	rsp, QWORD PTR [rbp+200]
	pop	rdi
	pop	rbp
	ret	0
??_Gexception@std@@UEAAPEAXI@Z ENDP			; std::exception::`scalar deleting destructor'
_TEXT	ENDS
; Function compile flags: /Odtp /RTCsu /ZI
; File C:\Program Files\Microsoft Visual Studio\2022\Community\VC\Tools\MSVC\14.38.33130\include\vcruntime_exception.h
;	COMDAT ?what@exception@std@@UEBAPEBDXZ
_TEXT	SEGMENT
tv69 = 192
this$ = 240
?what@exception@std@@UEBAPEBDXZ PROC			; std::exception::what, COMDAT

; 94   :     {

$LN5:
	mov	QWORD PTR [rsp+8], rcx
	push	rbp
	push	rdi
	sub	rsp, 248				; 000000f8H
	lea	rbp, QWORD PTR [rsp+32]
	lea	rcx, OFFSET FLAT:__9FD3D380_vcruntime_exception@h
	call	__CheckForDebuggerJustMyCode

; 95   :         return _Data._What ? _Data._What : "Unknown exception";

	mov	rax, QWORD PTR this$[rbp]
	cmp	QWORD PTR [rax+8], 0
	je	SHORT $LN3@what
	mov	rax, QWORD PTR this$[rbp]
	mov	rax, QWORD PTR [rax+8]
	mov	QWORD PTR tv69[rbp], rax
	jmp	SHORT $LN4@what
$LN3@what:
	lea	rax, OFFSET FLAT:??_C@_0BC@EOODALEL@Unknown?5exception@
	mov	QWORD PTR tv69[rbp], rax
$LN4@what:
	mov	rax, QWORD PTR tv69[rbp]

; 96   :     }

	lea	rsp, QWORD PTR [rbp+216]
	pop	rdi
	pop	rbp
	ret	0
?what@exception@std@@UEBAPEBDXZ ENDP			; std::exception::what
_TEXT	ENDS
; Function compile flags: /Odtp /RTCsu /ZI
; File C:\Program Files\Microsoft Visual Studio\2022\Community\VC\Tools\MSVC\14.38.33130\include\vcruntime_exception.h
;	COMDAT ??1exception@std@@UEAA@XZ
_TEXT	SEGMENT
this$ = 224
??1exception@std@@UEAA@XZ PROC				; std::exception::~exception, COMDAT

; 89   :     {

$LN3:
	mov	QWORD PTR [rsp+8], rcx
	push	rbp
	push	rdi
	sub	rsp, 232				; 000000e8H
	lea	rbp, QWORD PTR [rsp+32]
	lea	rcx, OFFSET FLAT:__9FD3D380_vcruntime_exception@h
	call	__CheckForDebuggerJustMyCode
	mov	rax, QWORD PTR this$[rbp]
	lea	rcx, OFFSET FLAT:??_7exception@std@@6B@
	mov	QWORD PTR [rax], rcx

; 90   :         __std_exception_destroy(&_Data);

	mov	rax, QWORD PTR this$[rbp]
	add	rax, 8
	mov	rcx, rax
	call	__std_exception_destroy

; 91   :     }

	lea	rsp, QWORD PTR [rbp+200]
	pop	rdi
	pop	rbp
	ret	0
??1exception@std@@UEAA@XZ ENDP				; std::exception::~exception
_TEXT	ENDS
; Function compile flags: /Odtp /RTCsu /ZI
; File C:\Program Files\Microsoft Visual Studio\2022\Community\VC\Tools\MSVC\14.38.33130\include\vcruntime_exception.h
;	COMDAT ??0exception@std@@QEAA@AEBV01@@Z
_TEXT	SEGMENT
this$ = 224
_Other$ = 232
??0exception@std@@QEAA@AEBV01@@Z PROC			; std::exception::exception, COMDAT

; 72   :     {

$LN3:
	mov	QWORD PTR [rsp+16], rdx
	mov	QWORD PTR [rsp+8], rcx
	push	rbp
	push	rdi
	sub	rsp, 232				; 000000e8H
	lea	rbp, QWORD PTR [rsp+32]
	lea	rcx, OFFSET FLAT:__9FD3D380_vcruntime_exception@h
	call	__CheckForDebuggerJustMyCode
	mov	rax, QWORD PTR this$[rbp]
	lea	rcx, OFFSET FLAT:??_7exception@std@@6B@
	mov	QWORD PTR [rax], rcx

; 71   :         : _Data()

	mov	rax, QWORD PTR this$[rbp]
	add	rax, 8
	mov	rdi, rax
	xor	eax, eax
	mov	ecx, 16
	rep stosb

; 73   :         __std_exception_copy(&_Other._Data, &_Data);

	mov	rax, QWORD PTR this$[rbp]
	add	rax, 8
	mov	rcx, QWORD PTR _Other$[rbp]
	add	rcx, 8
	mov	rdx, rax
	call	__std_exception_copy

; 74   :     }

	mov	rax, QWORD PTR this$[rbp]
	lea	rsp, QWORD PTR [rbp+200]
	pop	rdi
	pop	rbp
	ret	0
??0exception@std@@QEAA@AEBV01@@Z ENDP			; std::exception::exception
_TEXT	ENDS
; Function compile flags: /Odtp /RTCsu /ZI
; File C:\Program Files\Microsoft Visual Studio\2022\Community\VC\Tools\MSVC\14.38.33130\include\vcruntime_exception.h
;	COMDAT ??0exception@std@@QEAA@QEBDH@Z
_TEXT	SEGMENT
this$ = 224
_Message$ = 232
__formal$ = 240
??0exception@std@@QEAA@QEBDH@Z PROC			; std::exception::exception, COMDAT

; 66   :     {

$LN3:
	mov	DWORD PTR [rsp+24], r8d
	mov	QWORD PTR [rsp+16], rdx
	mov	QWORD PTR [rsp+8], rcx
	push	rbp
	push	rdi
	sub	rsp, 232				; 000000e8H
	lea	rbp, QWORD PTR [rsp+32]
	lea	rcx, OFFSET FLAT:__9FD3D380_vcruntime_exception@h
	call	__CheckForDebuggerJustMyCode
	mov	rax, QWORD PTR this$[rbp]
	lea	rcx, OFFSET FLAT:??_7exception@std@@6B@
	mov	QWORD PTR [rax], rcx

; 65   :         : _Data()

	mov	rax, QWORD PTR this$[rbp]
	add	rax, 8
	mov	rdi, rax
	xor	eax, eax
	mov	ecx, 16
	rep stosb

; 67   :         _Data._What = _Message;

	mov	rax, QWORD PTR this$[rbp]
	mov	rcx, QWORD PTR _Message$[rbp]
	mov	QWORD PTR [rax+8], rcx

; 68   :     }

	mov	rax, QWORD PTR this$[rbp]
	lea	rsp, QWORD PTR [rbp+200]
	pop	rdi
	pop	rbp
	ret	0
??0exception@std@@QEAA@QEBDH@Z ENDP			; std::exception::exception
_TEXT	ENDS
; Function compile flags: /Odtp /RTCsu /ZI
; File C:\Program Files\Microsoft Visual Studio\2022\Community\VC\Tools\MSVC\14.38.33130\include\xtr1common
;	COMDAT ?is_constant_evaluated@std@@YA_NXZ
_TEXT	SEGMENT
?is_constant_evaluated@std@@YA_NXZ PROC			; std::is_constant_evaluated, COMDAT

; 182  : _EXPORT_STD _NODISCARD constexpr bool is_constant_evaluated() noexcept {

$LN3:
	push	rbp
	push	rdi
	sub	rsp, 232				; 000000e8H
	lea	rbp, QWORD PTR [rsp+32]
	lea	rcx, OFFSET FLAT:__81223BB7_xtr1common
	call	__CheckForDebuggerJustMyCode

; 183  :     return __builtin_is_constant_evaluated();

	xor	al, al

; 184  : }

	lea	rsp, QWORD PTR [rbp+200]
	pop	rdi
	pop	rbp
	ret	0
?is_constant_evaluated@std@@YA_NXZ ENDP			; std::is_constant_evaluated
_TEXT	ENDS
; Function compile flags: /Odtp /RTCsu /ZI
; File C:\Program Files\Microsoft Visual Studio\2022\Community\VC\Tools\MSVC\14.38.33130\include\vcruntime_new.h
;	COMDAT ??2@YAPEAX_KPEAX@Z
_TEXT	SEGMENT
_Size$ = 224
_Where$ = 232
??2@YAPEAX_KPEAX@Z PROC					; operator new, COMDAT

; 168  :     {

$LN3:
	mov	QWORD PTR [rsp+16], rdx
	mov	QWORD PTR [rsp+8], rcx
	push	rbp
	push	rdi
	sub	rsp, 232				; 000000e8H
	lea	rbp, QWORD PTR [rsp+32]
	lea	rcx, OFFSET FLAT:__50BF2FAA_vcruntime_new@h
	call	__CheckForDebuggerJustMyCode

; 169  :         (void)_Size;
; 170  :         return _Where;

	mov	rax, QWORD PTR _Where$[rbp]

; 171  :     }

	lea	rsp, QWORD PTR [rbp+200]
	pop	rdi
	pop	rbp
	ret	0
??2@YAPEAX_KPEAX@Z ENDP					; operator new
_TEXT	ENDS
; Function compile flags: /Odtp /RTCsu /ZI
; File C:\Users\c32\source\repos\PB\PB\main.cpp
;	COMDAT ?__empty_global_delete@@YAXPEAX_KW4align_val_t@std@@@Z
_TEXT	SEGMENT
__formal$ = 224
__formal$ = 232
__formal$ = 240
?__empty_global_delete@@YAXPEAX_KW4align_val_t@std@@@Z PROC ; __empty_global_delete, COMDAT

$LN3:
	mov	QWORD PTR [rsp+24], r8
	mov	QWORD PTR [rsp+16], rdx
	mov	QWORD PTR [rsp+8], rcx
	push	rbp
	push	rdi
	sub	rsp, 232				; 000000e8H
	lea	rbp, QWORD PTR [rsp+32]
	lea	rcx, OFFSET FLAT:__6CEEF113_main@cpp
	call	__CheckForDebuggerJustMyCode
	lea	rsp, QWORD PTR [rbp+200]
	pop	rdi
	pop	rbp
	ret	0
?__empty_global_delete@@YAXPEAX_KW4align_val_t@std@@@Z ENDP ; __empty_global_delete
_TEXT	ENDS
; Function compile flags: /Odtp /RTCsu /ZI
; File C:\Users\c32\source\repos\PB\PB\main.cpp
;	COMDAT ?__empty_global_delete@@YAXPEAXW4align_val_t@std@@@Z
_TEXT	SEGMENT
__formal$ = 224
__formal$ = 232
?__empty_global_delete@@YAXPEAXW4align_val_t@std@@@Z PROC ; __empty_global_delete, COMDAT

$LN3:
	mov	QWORD PTR [rsp+16], rdx
	mov	QWORD PTR [rsp+8], rcx
	push	rbp
	push	rdi
	sub	rsp, 232				; 000000e8H
	lea	rbp, QWORD PTR [rsp+32]
	lea	rcx, OFFSET FLAT:__6CEEF113_main@cpp
	call	__CheckForDebuggerJustMyCode
	lea	rsp, QWORD PTR [rbp+200]
	pop	rdi
	pop	rbp
	ret	0
?__empty_global_delete@@YAXPEAXW4align_val_t@std@@@Z ENDP ; __empty_global_delete
_TEXT	ENDS
; Function compile flags: /Odtp /RTCsu /ZI
; File C:\Users\c32\source\repos\PB\PB\main.cpp
;	COMDAT ?__empty_global_delete@@YAXPEAX_K@Z
_TEXT	SEGMENT
__formal$ = 224
__formal$ = 232
?__empty_global_delete@@YAXPEAX_K@Z PROC		; __empty_global_delete, COMDAT

$LN3:
	mov	QWORD PTR [rsp+16], rdx
	mov	QWORD PTR [rsp+8], rcx
	push	rbp
	push	rdi
	sub	rsp, 232				; 000000e8H
	lea	rbp, QWORD PTR [rsp+32]
	lea	rcx, OFFSET FLAT:__6CEEF113_main@cpp
	call	__CheckForDebuggerJustMyCode
	lea	rsp, QWORD PTR [rbp+200]
	pop	rdi
	pop	rbp
	ret	0
?__empty_global_delete@@YAXPEAX_K@Z ENDP		; __empty_global_delete
_TEXT	ENDS
; Function compile flags: /Odtp /RTCsu /ZI
; File C:\Users\c32\source\repos\PB\PB\main.cpp
;	COMDAT ?__empty_global_delete@@YAXPEAX@Z
_TEXT	SEGMENT
__formal$ = 224
?__empty_global_delete@@YAXPEAX@Z PROC			; __empty_global_delete, COMDAT

$LN3:
	mov	QWORD PTR [rsp+8], rcx
	push	rbp
	push	rdi
	sub	rsp, 232				; 000000e8H
	lea	rbp, QWORD PTR [rsp+32]
	lea	rcx, OFFSET FLAT:__6CEEF113_main@cpp
	call	__CheckForDebuggerJustMyCode
	lea	rsp, QWORD PTR [rbp+200]
	pop	rdi
	pop	rbp
	ret	0
?__empty_global_delete@@YAXPEAX@Z ENDP			; __empty_global_delete
_TEXT	ENDS
END
