; Listing generated by Microsoft (R) Optimizing Compiler Version 19.38.33135.0 

include listing.inc

INCLUDELIB MSVCRTD
INCLUDELIB OLDNAMES

msvcjmc	SEGMENT
__6628E330_concurrencysal@h DB 01H
__DD735C24_sal@h DB 01H
__95D07812_vadefs@h DB 01H
__2C966F75_vcruntime@h DB 01H
__C84B2A68_xkeycheck@h DB 01H
__E4981F91_yvals_core@h DB 01H
__1B0272D9_corecrt@h DB 01H
__50BF2FAA_vcruntime_new@h DB 01H
__973DD6D2_vcruntime_new_debug@h DB 01H
__935DC21B_crtdbg@h DB 01H
__EA84BEDA_crtdefs@h DB 01H
__7A2C09FE_use_ansi@h DB 01H
__B806B4B7_yvals@h DB 01H
__44420885_corecrt_stdio_config@h DB 01H
__AB601D8D_corecrt_wstdio@h DB 01H
__C1EC35D3_stdio@h DB 01H
__099E6B1A_cstdio DB 01H
__8ECB7138_corecrt_share@h DB 01H
__F7972D0B_share@h DB 01H
__13F5961F_stddef@h DB 01H
__81223BB7_xtr1common DB 01H
__AB8DD8A5_cstddef DB 01H
__C9486F03___msvc_system_error_abi@hpp DB 01H
__61CC25A1_errno@h DB 01H
__94BF1FE1_cerrno DB 01H
__BB16330F_corecrt_math@h DB 01H
__3BF2A406_math@h DB 01H
__45DED006_corecrt_malloc@h DB 01H
__FD6DBD68_corecrt_search@h DB 01H
__E2E33A61_corecrt_wstdlib@h DB 01H
__53AB384B_limits@h DB 01H
__6E5ACABA_stdlib@h DB 01H
__0E460208_cstdlib DB 01H
__EDDD1674_stdint@h DB 01H
__B318E375_cstdint DB 01H
__86E2ECA3_type_traits DB 01H
__FA77ED4C_malloc@h DB 01H
__89766DA4_corecrt_terminate@h DB 01H
__597317E9_eh@h DB 01H
__9FD3D380_vcruntime_exception@h DB 01H
__22DBD04C_exception DB 01H
__FFDAFD70___msvc_sanitizer_annotate_container@hpp DB 01H
__21B98AC3_vcruntime_string@h DB 01H
__E4C945B4_corecrt_memcpy_s@h DB 01H
__8EAFF484_corecrt_memory@h DB 01H
__6490AEC5_corecrt_wstring@h DB 01H
__E8295E1E_string@h DB 01H
__42D4AAE8_cstring DB 01H
__EF1F6BBA_corecrt_wconio@h DB 01H
__74484FB3_corecrt_wctype@h DB 01H
__3D1D430C_corecrt_wdirect@h DB 01H
__DB7FEBA6_corecrt_wio@h DB 01H
__9A9F0068_corecrt_wprocess@h DB 01H
__369A9BC3_corecrt_wtime@h DB 01H
__CE789B9D_types@h DB 01H
__9901C817_stat@h DB 01H
__3FCAD62E_wchar@h DB 01H
__9315BD49_cwchar DB 01H
__D0D5387F_iosfwd DB 01H
__B9985323_float@h DB 01H
__7ADAA09D_cfloat DB 01H
__8AA920FA_climits DB 01H
__2FEC17FD_intrin0@inl@h DB 01H
__F3A907D1_intrin0@h DB 01H
__1C3CEDF9_limits DB 01H
__6B6686E8_new DB 01H
__28D75C9A_xatomic@h DB 01H
__7CEE9503_initializer_list DB 01H
__05AD8743_concepts DB 01H
__F75338B9_compare DB 01H
__394B8783_utility DB 01H
__6CD66C6A___msvc_iter_core@hpp DB 01H
__81056E89_xutility DB 01H
__19EA4BD2_tuple DB 01H
__53DEE440_xmemory DB 01H
__C1E54F69_xpolymorphic_allocator@h DB 01H
__270D62DC_xstring DB 01H
__AB95EA11_stdexcept DB 01H
__A700C1C1_xcall_once@h DB 01H
__1093A1B8_xerrc@h DB 01H
__8E83AFDB_xatomic_wait@h DB 01H
__0A9237D2_time@h DB 01H
__797ACE9B_ctime DB 01H
__37C18DC8_xtimec@h DB 01H
__1B623E4D_xthreads@h DB 01H
__7709B13B_atomic DB 01H
__185DD3E1_system_error DB 01H
__78388AF5_vcruntime_typeinfo@h DB 01H
__F1DA9D90_typeinfo DB 01H
__A092E177_memory DB 01H
__8CD7B678_xfacet DB 01H
__8B91FF0A___msvc_xlocinfo_types@hpp DB 01H
__1EC467ED_ctype@h DB 01H
__06558CBD_cctype DB 01H
__791C33B7_locale@h DB 01H
__9DEADED9_clocale DB 01H
__EE537E58_xlocinfo DB 01H
__F83316ED_xlocale DB 01H
__D7B6094B_xiosbase DB 01H
__A93552AD_streambuf DB 01H
__AD982FC2___msvc_filebuf@hpp DB 01H
__BFC95293_cmath DB 01H
__90A9D9C9_iterator DB 01H
__66B470FA_xlocnum DB 01H
__93ABBCFE_ios DB 01H
__EB23CC29_ostream DB 01H
__88F3F913_istream DB 01H
__7EBB89FA_fstream DB 01H
__C8179298_algorithm DB 01H
__D37ACB3D_ratio DB 01H
__368A71EB___msvc_chrono@hpp DB 01H
__DE87ED23_xfilesystem_abi@h DB 01H
__EA190C3F___msvc_tzdb@hpp DB 01H
__23BB31BF_forward_list DB 01H
__863D0478_xsmf_control@h DB 01H
__E8D1C288_optional DB 01H
__D44167EB_string DB 01H
__4B5D3A93_sstream DB 01H
__187EA84C___msvc_bit_utils@hpp DB 01H
__51919D19_vector DB 01H
__4A4ED74A_xloctime DB 01H
__C8CB7150___msvc_format_ucd_tables@hpp DB 01H
__A07C8C4C___msvc_print@hpp DB 01H
__57C0613A_bit DB 01H
__AE686A70_xbit_ops@h DB 01H
__82C730B3_xcharconv@h DB 01H
__D48FA755_xcharconv_ryu_tables@h DB 01H
__4AEC53CD_xcharconv_ryu@h DB 01H
__E350A92B_xcharconv_tables@h DB 01H
__9E8A00EF_charconv DB 01H
__F87C5016_xlocbuf DB 01H
__D43FE191_xlocmes DB 01H
__4DD665C2_xlocmon DB 01H
__0B7F13DA_locale DB 01H
__9445A79D_format DB 01H
__74313F41_iomanip DB 01H
__78D1EB73_chrono DB 01H
__77C0A0AD_filesystem DB 01H
__E37C1496_iostream DB 01H
__6E434CEF_vcruntime_startup@h DB 01H
__005E73E1_corecrt_startup@h DB 01H
__8B12B2C4_process@h DB 01H
__4CE3A781_stop_token DB 01H
__7BDF99C1_thread DB 01H
__B3D148E0_deque DB 01H
__50E70C21_queue DB 01H
__C1D7C16D_mutex DB 01H
__3EAD4D02_list DB 01H
__DA916AFB_xnode_handle@h DB 01H
__D06692F5_xhash DB 01H
__43E0D473_unordered_map DB 01H
__7931BFA6_functional DB 01H
__82DE502A_includes@h DB 01H
__EB3D323B_thread_pool@h DB 01H
__870AB2AE_thread_pool@cpp DB 01H
__6A59E0E5_predefined C++ types (compiler internal) DB 01H
msvcjmc	ENDS
PUBLIC	?__empty_global_delete@@YAXPEAX@Z		; __empty_global_delete
PUBLIC	?__empty_global_delete@@YAXPEAX_K@Z		; __empty_global_delete
PUBLIC	?__empty_global_delete@@YAXPEAXW4align_val_t@std@@@Z ; __empty_global_delete
PUBLIC	?__empty_global_delete@@YAXPEAX_KW4align_val_t@std@@@Z ; __empty_global_delete
PUBLIC	??2@YAPEAX_KPEAX@Z				; operator new
PUBLIC	?is_constant_evaluated@std@@YA_NXZ		; std::is_constant_evaluated
PUBLIC	??0exception@std@@QEAA@QEBDH@Z			; std::exception::exception
PUBLIC	??0exception@std@@QEAA@AEBV01@@Z		; std::exception::exception
PUBLIC	??1exception@std@@UEAA@XZ			; std::exception::~exception
PUBLIC	?what@exception@std@@UEBAPEBDXZ			; std::exception::what
PUBLIC	??_Gexception@std@@UEAAPEAXI@Z			; std::exception::`scalar deleting destructor'
PUBLIC	??0bad_alloc@std@@AEAA@QEBD@Z			; std::bad_alloc::bad_alloc
PUBLIC	??1bad_alloc@std@@UEAA@XZ			; std::bad_alloc::~bad_alloc
PUBLIC	??0bad_alloc@std@@QEAA@AEBV01@@Z		; std::bad_alloc::bad_alloc
PUBLIC	??_Gbad_alloc@std@@UEAAPEAXI@Z			; std::bad_alloc::`scalar deleting destructor'
PUBLIC	??0bad_array_new_length@std@@QEAA@XZ		; std::bad_array_new_length::bad_array_new_length
PUBLIC	??1bad_array_new_length@std@@UEAA@XZ		; std::bad_array_new_length::~bad_array_new_length
PUBLIC	??0bad_array_new_length@std@@QEAA@AEBV01@@Z	; std::bad_array_new_length::bad_array_new_length
PUBLIC	??_Gbad_array_new_length@std@@UEAAPEAXI@Z	; std::bad_array_new_length::`scalar deleting destructor'
PUBLIC	?_Throw_bad_array_new_length@std@@YAXXZ		; std::_Throw_bad_array_new_length
PUBLIC	wmemcpy
PUBLIC	?max@?$numeric_limits@_J@std@@SA_JXZ		; std::numeric_limits<__int64>::max
PUBLIC	?_Allocate@_Default_allocate_traits@std@@SAPEAX_K@Z ; std::_Default_allocate_traits::_Allocate
PUBLIC	?_Adjust_manually_vector_aligned@std@@YAXAEAPEAXAEA_K@Z ; std::_Adjust_manually_vector_aligned
PUBLIC	??0_Container_proxy@std@@QEAA@PEAU_Container_base12@1@@Z ; std::_Container_proxy::_Container_proxy
PUBLIC	??0_Container_base12@std@@QEAA@XZ		; std::_Container_base12::_Container_base12
PUBLIC	?_Orphan_all@_Container_base12@std@@QEAAXXZ	; std::_Container_base12::_Orphan_all
PUBLIC	?_Orphan_all_unlocked_v3@_Container_base12@std@@AEAAXXZ ; std::_Container_base12::_Orphan_all_unlocked_v3
PUBLIC	?_Orphan_all_locked_v3@_Container_base12@std@@AEAAXXZ ; std::_Container_base12::_Orphan_all_locked_v3
PUBLIC	??$exchange@PEAU_Iterator_base12@std@@$$T@std@@YAPEAU_Iterator_base12@0@AEAPEAU10@$$QEA$$T@Z ; std::exchange<std::_Iterator_base12 *,std::nullptr_t>
PUBLIC	??$_Construct_in_place@U_Container_proxy@std@@PEAU_Container_base12@2@@std@@YAXAEAU_Container_proxy@0@$$QEAPEAU_Container_base12@0@@Z ; std::_Construct_in_place<std::_Container_proxy,std::_Container_base12 *>
PUBLIC	??$_Maklocstr@_W@std@@YAPEA_WPEBDPEA_WAEBU_Cvtvec@@@Z ; std::_Maklocstr<wchar_t>
PUBLIC	?_Maklocwcs@std@@YAPEA_WPEB_W@Z			; std::_Maklocwcs
PUBLIC	??$_Maklocstr@D@std@@YAPEADPEBDPEADAEBU_Cvtvec@@@Z ; std::_Maklocstr<char>
PUBLIC	??$_Getvals@_W@?$time_get@DV?$istreambuf_iterator@DU?$char_traits@D@std@@@std@@@std@@IEAAX_WAEBV_Locinfo@1@@Z ; std::time_get<char,std::istreambuf_iterator<char,std::char_traits<char> > >::_Getvals<wchar_t>
PUBLIC	??$_Getvals@_W@?$time_get@_WV?$istreambuf_iterator@_WU?$char_traits@_W@std@@@std@@@std@@IEAAX_WAEBV_Locinfo@1@@Z ; std::time_get<wchar_t,std::istreambuf_iterator<wchar_t,std::char_traits<wchar_t> > >::_Getvals<wchar_t>
PUBLIC	??1thread@std@@QEAA@XZ				; std::thread::~thread
PUBLIC	??0thread@std@@QEAA@$$QEAV01@@Z			; std::thread::thread
PUBLIC	?joinable@thread@std@@QEBA_NXZ			; std::thread::joinable
PUBLIC	?join@thread@std@@QEAAXXZ			; std::thread::join
PUBLIC	??_Gthread@std@@QEAAPEAXI@Z			; std::thread::`scalar deleting destructor'
PUBLIC	??$exchange@U_Thrd_t@@U1@@std@@YA?AU_Thrd_t@@AEAU1@$$QEAU1@@Z ; std::exchange<_Thrd_t,_Thrd_t>
PUBLIC	??0_Mutex_base@std@@QEAA@H@Z			; std::_Mutex_base::_Mutex_base
PUBLIC	??1_Mutex_base@std@@QEAA@XZ			; std::_Mutex_base::~_Mutex_base
PUBLIC	?lock@_Mutex_base@std@@QEAAXXZ			; std::_Mutex_base::lock
PUBLIC	?unlock@_Mutex_base@std@@QEAAXXZ		; std::_Mutex_base::unlock
PUBLIC	?_Verify_ownership_levels@_Mutex_base@std@@IEAA_NXZ ; std::_Mutex_base::_Verify_ownership_levels
PUBLIC	?_Mymtx@_Mutex_base@std@@AEAAPEAU_Mtx_internal_imp_t@@XZ ; std::_Mutex_base::_Mymtx
PUBLIC	??0mutex@std@@QEAA@XZ				; std::mutex::mutex
PUBLIC	??1mutex@std@@QEAA@XZ				; std::mutex::~mutex
PUBLIC	??0condition_variable@std@@QEAA@XZ		; std::condition_variable::condition_variable
PUBLIC	??1condition_variable@std@@QEAA@XZ		; std::condition_variable::~condition_variable
PUBLIC	?notify_one@condition_variable@std@@QEAAXXZ	; std::condition_variable::notify_one
PUBLIC	?notify_all@condition_variable@std@@QEAAXXZ	; std::condition_variable::notify_all
PUBLIC	?wait@condition_variable@std@@QEAAXAEAV?$unique_lock@Vmutex@std@@@2@@Z ; std::condition_variable::wait
PUBLIC	?_Mycnd@condition_variable@std@@AEAAPEAU_Cnd_internal_imp_t@@XZ ; std::condition_variable::_Mycnd
PUBLIC	??0?$unique_lock@Vmutex@std@@@std@@QEAA@AEAVmutex@1@@Z ; std::unique_lock<std::mutex>::unique_lock<std::mutex>
PUBLIC	??1?$unique_lock@Vmutex@std@@@std@@QEAA@XZ	; std::unique_lock<std::mutex>::~unique_lock<std::mutex>
PUBLIC	?mutex@?$unique_lock@Vmutex@std@@@std@@QEBAPEAV02@XZ ; std::unique_lock<std::mutex>::mutex
PUBLIC	?__autoclassinit2@?$unique_lock@Vmutex@std@@@std@@QEAAX_K@Z ; std::unique_lock<std::mutex>::__autoclassinit2
PUBLIC	??0thread_pool@@QEAA@_K@Z			; thread_pool::thread_pool
PUBLIC	??1thread_pool@@QEAA@XZ				; thread_pool::~thread_pool
PUBLIC	?enqueue@thread_pool@@QEAAXV?$function@$$A6AXXZ@std@@@Z ; thread_pool::enqueue
PUBLIC	??0?$allocator@Vthread@std@@@std@@QEAA@XZ	; std::allocator<std::thread>::allocator<std::thread>
PUBLIC	?deallocate@?$allocator@Vthread@std@@@std@@QEAAXQEAVthread@2@_K@Z ; std::allocator<std::thread>::deallocate
PUBLIC	?allocate@?$allocator@Vthread@std@@@std@@QEAAPEAVthread@2@_K@Z ; std::allocator<std::thread>::allocate
PUBLIC	?max_size@?$_Default_allocator_traits@V?$allocator@Vthread@std@@@std@@@std@@SA_KAEBV?$allocator@Vthread@std@@@2@@Z ; std::_Default_allocator_traits<std::allocator<std::thread> >::max_size
PUBLIC	??0?$vector@Vthread@std@@V?$allocator@Vthread@std@@@2@@std@@QEAA@XZ ; std::vector<std::thread,std::allocator<std::thread> >::vector<std::thread,std::allocator<std::thread> >
PUBLIC	??1?$vector@Vthread@std@@V?$allocator@Vthread@std@@@2@@std@@QEAA@XZ ; std::vector<std::thread,std::allocator<std::thread> >::~vector<std::thread,std::allocator<std::thread> >
PUBLIC	?_Unchecked_begin@?$vector@Vthread@std@@V?$allocator@Vthread@std@@@2@@std@@QEAAPEAVthread@2@XZ ; std::vector<std::thread,std::allocator<std::thread> >::_Unchecked_begin
PUBLIC	?_Unchecked_end@?$vector@Vthread@std@@V?$allocator@Vthread@std@@@2@@std@@QEAAPEAVthread@2@XZ ; std::vector<std::thread,std::allocator<std::thread> >::_Unchecked_end
PUBLIC	?max_size@?$vector@Vthread@std@@V?$allocator@Vthread@std@@@2@@std@@QEBA_KXZ ; std::vector<std::thread,std::allocator<std::thread> >::max_size
PUBLIC	?capacity@?$vector@Vthread@std@@V?$allocator@Vthread@std@@@2@@std@@QEBA_KXZ ; std::vector<std::thread,std::allocator<std::thread> >::capacity
PUBLIC	?_Calculate_growth@?$vector@Vthread@std@@V?$allocator@Vthread@std@@@2@@std@@AEBA_K_K@Z ; std::vector<std::thread,std::allocator<std::thread> >::_Calculate_growth
PUBLIC	?_Change_array@?$vector@Vthread@std@@V?$allocator@Vthread@std@@@2@@std@@AEAAXQEAVthread@2@_K1@Z ; std::vector<std::thread,std::allocator<std::thread> >::_Change_array
PUBLIC	?_Tidy@?$vector@Vthread@std@@V?$allocator@Vthread@std@@@2@@std@@AEAAXXZ ; std::vector<std::thread,std::allocator<std::thread> >::_Tidy
PUBLIC	?_Xlength@?$vector@Vthread@std@@V?$allocator@Vthread@std@@@2@@std@@CAXXZ ; std::vector<std::thread,std::allocator<std::thread> >::_Xlength
PUBLIC	?_Orphan_range_unlocked@?$vector@Vthread@std@@V?$allocator@Vthread@std@@@2@@std@@AEBAXPEAVthread@2@0@Z ; std::vector<std::thread,std::allocator<std::thread> >::_Orphan_range_unlocked
PUBLIC	?_Orphan_range_locked@?$vector@Vthread@std@@V?$allocator@Vthread@std@@@2@@std@@AEBAXPEAVthread@2@0@Z ; std::vector<std::thread,std::allocator<std::thread> >::_Orphan_range_locked
PUBLIC	?_Orphan_range@?$vector@Vthread@std@@V?$allocator@Vthread@std@@@2@@std@@AEBAXPEAVthread@2@0@Z ; std::vector<std::thread,std::allocator<std::thread> >::_Orphan_range
PUBLIC	?_Getal@?$vector@Vthread@std@@V?$allocator@Vthread@std@@@2@@std@@AEAAAEAV?$allocator@Vthread@std@@@2@XZ ; std::vector<std::thread,std::allocator<std::thread> >::_Getal
PUBLIC	?_Getal@?$vector@Vthread@std@@V?$allocator@Vthread@std@@@2@@std@@AEBAAEBV?$allocator@Vthread@std@@@2@XZ ; std::vector<std::thread,std::allocator<std::thread> >::_Getal
PUBLIC	??0?$_Vector_val@U?$_Simple_types@Vthread@std@@@std@@@std@@QEAA@XZ ; std::_Vector_val<std::_Simple_types<std::thread> >::_Vector_val<std::_Simple_types<std::thread> >
PUBLIC	?_Get_first@?$_Compressed_pair@V?$allocator@Vthread@std@@@std@@V?$_Vector_val@U?$_Simple_types@Vthread@std@@@std@@@2@$00@std@@QEAAAEAV?$allocator@Vthread@std@@@2@XZ ; std::_Compressed_pair<std::allocator<std::thread>,std::_Vector_val<std::_Simple_types<std::thread> >,1>::_Get_first
PUBLIC	?_Get_first@?$_Compressed_pair@V?$allocator@Vthread@std@@@std@@V?$_Vector_val@U?$_Simple_types@Vthread@std@@@std@@@2@$00@std@@QEBAAEBV?$allocator@Vthread@std@@@2@XZ ; std::_Compressed_pair<std::allocator<std::thread>,std::_Vector_val<std::_Simple_types<std::thread> >,1>::_Get_first
PUBLIC	??0?$allocator@V?$function@$$A6AXXZ@std@@@std@@QEAA@XZ ; std::allocator<std::function<void __cdecl(void)> >::allocator<std::function<void __cdecl(void)> >
PUBLIC	?deallocate@?$allocator@V?$function@$$A6AXXZ@std@@@std@@QEAAXQEAV?$function@$$A6AXXZ@2@_K@Z ; std::allocator<std::function<void __cdecl(void)> >::deallocate
PUBLIC	?allocate@?$allocator@V?$function@$$A6AXXZ@std@@@std@@QEAAPEAV?$function@$$A6AXXZ@2@_K@Z ; std::allocator<std::function<void __cdecl(void)> >::allocate
PUBLIC	?max_size@?$_Default_allocator_traits@V?$allocator@V?$function@$$A6AXXZ@std@@@std@@@std@@SA_KAEBV?$allocator@V?$function@$$A6AXXZ@std@@@2@@Z ; std::_Default_allocator_traits<std::allocator<std::function<void __cdecl(void)> > >::max_size
PUBLIC	?deallocate@?$allocator@PEAV?$function@$$A6AXXZ@std@@@std@@QEAAXQEAPEAV?$function@$$A6AXXZ@2@_K@Z ; std::allocator<std::function<void __cdecl(void)> *>::deallocate
PUBLIC	?allocate@?$allocator@PEAV?$function@$$A6AXXZ@std@@@std@@QEAAPEAPEAV?$function@$$A6AXXZ@2@_K@Z ; std::allocator<std::function<void __cdecl(void)> *>::allocate
PUBLIC	??0?$_Func_class@X$$V@std@@QEAA@XZ		; std::_Func_class<void>::_Func_class<void>
PUBLIC	??R?$_Func_class@X$$V@std@@QEBAXXZ		; std::_Func_class<void>::operator()
PUBLIC	??1?$_Func_class@X$$V@std@@QEAA@XZ		; std::_Func_class<void>::~_Func_class<void>
PUBLIC	?_Empty@?$_Func_class@X$$V@std@@IEBA_NXZ	; std::_Func_class<void>::_Empty
PUBLIC	?_Reset_copy@?$_Func_class@X$$V@std@@IEAAXAEBV12@@Z ; std::_Func_class<void>::_Reset_copy
PUBLIC	?_Reset_move@?$_Func_class@X$$V@std@@IEAAX$$QEAV12@@Z ; std::_Func_class<void>::_Reset_move
PUBLIC	?_Tidy@?$_Func_class@X$$V@std@@IEAAXXZ		; std::_Func_class<void>::_Tidy
PUBLIC	?_Local@?$_Func_class@X$$V@std@@AEBA_NXZ	; std::_Func_class<void>::_Local
PUBLIC	?_Getimpl@?$_Func_class@X$$V@std@@AEBAPEAV?$_Func_base@X$$V@2@XZ ; std::_Func_class<void>::_Getimpl
PUBLIC	?_Set@?$_Func_class@X$$V@std@@AEAAXPEAV?$_Func_base@X$$V@2@@Z ; std::_Func_class<void>::_Set
PUBLIC	??0?$function@$$A6AXXZ@std@@QEAA@XZ		; std::function<void __cdecl(void)>::function<void __cdecl(void)>
PUBLIC	??0?$function@$$A6AXXZ@std@@QEAA@AEBV01@@Z	; std::function<void __cdecl(void)>::function<void __cdecl(void)>
PUBLIC	??4?$function@$$A6AXXZ@std@@QEAAAEAV01@$$QEAV01@@Z ; std::function<void __cdecl(void)>::operator=
PUBLIC	??1?$function@$$A6AXXZ@std@@QEAA@XZ		; std::function<void __cdecl(void)>::~function<void __cdecl(void)>
PUBLIC	??_G?$function@$$A6AXXZ@std@@QEAAPEAXI@Z	; std::function<void __cdecl(void)>::`scalar deleting destructor'
PUBLIC	??0?$_Deque_val@U?$_Deque_simple_types@V?$function@$$A6AXXZ@std@@@std@@@std@@QEAA@XZ ; std::_Deque_val<std::_Deque_simple_types<std::function<void __cdecl(void)> > >::_Deque_val<std::_Deque_simple_types<std::function<void __cdecl(void)> > >
PUBLIC	?_Getblock@?$_Deque_val@U?$_Deque_simple_types@V?$function@$$A6AXXZ@std@@@std@@@std@@QEBA_K_K@Z ; std::_Deque_val<std::_Deque_simple_types<std::function<void __cdecl(void)> > >::_Getblock
PUBLIC	??0?$deque@V?$function@$$A6AXXZ@std@@V?$allocator@V?$function@$$A6AXXZ@std@@@2@@std@@QEAA@XZ ; std::deque<std::function<void __cdecl(void)>,std::allocator<std::function<void __cdecl(void)> > >::deque<std::function<void __cdecl(void)>,std::allocator<std::function<void __cdecl(void)> > >
PUBLIC	??1?$deque@V?$function@$$A6AXXZ@std@@V?$allocator@V?$function@$$A6AXXZ@std@@@2@@std@@QEAA@XZ ; std::deque<std::function<void __cdecl(void)>,std::allocator<std::function<void __cdecl(void)> > >::~deque<std::function<void __cdecl(void)>,std::allocator<std::function<void __cdecl(void)> > >
PUBLIC	?_Unchecked_begin@?$deque@V?$function@$$A6AXXZ@std@@V?$allocator@V?$function@$$A6AXXZ@std@@@2@@std@@QEAA?AV?$_Deque_unchecked_iterator@V?$_Deque_val@U?$_Deque_simple_types@V?$function@$$A6AXXZ@std@@@std@@@std@@@2@XZ ; std::deque<std::function<void __cdecl(void)>,std::allocator<std::function<void __cdecl(void)> > >::_Unchecked_begin
PUBLIC	?max_size@?$deque@V?$function@$$A6AXXZ@std@@V?$allocator@V?$function@$$A6AXXZ@std@@@2@@std@@QEBA_KXZ ; std::deque<std::function<void __cdecl(void)>,std::allocator<std::function<void __cdecl(void)> > >::max_size
PUBLIC	?empty@?$deque@V?$function@$$A6AXXZ@std@@V?$allocator@V?$function@$$A6AXXZ@std@@@2@@std@@QEBA_NXZ ; std::deque<std::function<void __cdecl(void)>,std::allocator<std::function<void __cdecl(void)> > >::empty
PUBLIC	?front@?$deque@V?$function@$$A6AXXZ@std@@V?$allocator@V?$function@$$A6AXXZ@std@@@2@@std@@QEAAAEAV?$function@$$A6AXXZ@2@XZ ; std::deque<std::function<void __cdecl(void)>,std::allocator<std::function<void __cdecl(void)> > >::front
PUBLIC	?pop_front@?$deque@V?$function@$$A6AXXZ@std@@V?$allocator@V?$function@$$A6AXXZ@std@@@2@@std@@QEAAXXZ ; std::deque<std::function<void __cdecl(void)>,std::allocator<std::function<void __cdecl(void)> > >::pop_front
PUBLIC	?push_back@?$deque@V?$function@$$A6AXXZ@std@@V?$allocator@V?$function@$$A6AXXZ@std@@@2@@std@@QEAAXAEBV?$function@$$A6AXXZ@2@@Z ; std::deque<std::function<void __cdecl(void)>,std::allocator<std::function<void __cdecl(void)> > >::push_back
PUBLIC	?pop_back@?$deque@V?$function@$$A6AXXZ@std@@V?$allocator@V?$function@$$A6AXXZ@std@@@2@@std@@QEAAXXZ ; std::deque<std::function<void __cdecl(void)>,std::allocator<std::function<void __cdecl(void)> > >::pop_back
PUBLIC	?_Xlen@?$deque@V?$function@$$A6AXXZ@std@@V?$allocator@V?$function@$$A6AXXZ@std@@@2@@std@@CAXXZ ; std::deque<std::function<void __cdecl(void)>,std::allocator<std::function<void __cdecl(void)> > >::_Xlen
PUBLIC	?_Growmap@?$deque@V?$function@$$A6AXXZ@std@@V?$allocator@V?$function@$$A6AXXZ@std@@@2@@std@@AEAAX_K@Z ; std::deque<std::function<void __cdecl(void)>,std::allocator<std::function<void __cdecl(void)> > >::_Growmap
PUBLIC	?_Tidy@?$deque@V?$function@$$A6AXXZ@std@@V?$allocator@V?$function@$$A6AXXZ@std@@@2@@std@@AEAAXXZ ; std::deque<std::function<void __cdecl(void)>,std::allocator<std::function<void __cdecl(void)> > >::_Tidy
PUBLIC	?_Orphan_off@?$deque@V?$function@$$A6AXXZ@std@@V?$allocator@V?$function@$$A6AXXZ@std@@@2@@std@@AEBAX_K@Z ; std::deque<std::function<void __cdecl(void)>,std::allocator<std::function<void __cdecl(void)> > >::_Orphan_off
PUBLIC	?_Getblock@?$deque@V?$function@$$A6AXXZ@std@@V?$allocator@V?$function@$$A6AXXZ@std@@@2@@std@@AEBA_K_K@Z ; std::deque<std::function<void __cdecl(void)>,std::allocator<std::function<void __cdecl(void)> > >::_Getblock
PUBLIC	?_Orphan_all@?$deque@V?$function@$$A6AXXZ@std@@V?$allocator@V?$function@$$A6AXXZ@std@@@2@@std@@AEAAXXZ ; std::deque<std::function<void __cdecl(void)>,std::allocator<std::function<void __cdecl(void)> > >::_Orphan_all
PUBLIC	?_Getal@?$deque@V?$function@$$A6AXXZ@std@@V?$allocator@V?$function@$$A6AXXZ@std@@@2@@std@@AEAAAEAV?$allocator@V?$function@$$A6AXXZ@std@@@2@XZ ; std::deque<std::function<void __cdecl(void)>,std::allocator<std::function<void __cdecl(void)> > >::_Getal
PUBLIC	?_Getal@?$deque@V?$function@$$A6AXXZ@std@@V?$allocator@V?$function@$$A6AXXZ@std@@@2@@std@@AEBAAEBV?$allocator@V?$function@$$A6AXXZ@std@@@2@XZ ; std::deque<std::function<void __cdecl(void)>,std::allocator<std::function<void __cdecl(void)> > >::_Getal
PUBLIC	?_Get_data@?$deque@V?$function@$$A6AXXZ@std@@V?$allocator@V?$function@$$A6AXXZ@std@@@2@@std@@AEAAAEAV?$_Deque_val@U?$_Deque_simple_types@V?$function@$$A6AXXZ@std@@@std@@@2@XZ ; std::deque<std::function<void __cdecl(void)>,std::allocator<std::function<void __cdecl(void)> > >::_Get_data
PUBLIC	?_Get_data@?$deque@V?$function@$$A6AXXZ@std@@V?$allocator@V?$function@$$A6AXXZ@std@@@2@@std@@AEBAAEBV?$_Deque_val@U?$_Deque_simple_types@V?$function@$$A6AXXZ@std@@@std@@@2@XZ ; std::deque<std::function<void __cdecl(void)>,std::allocator<std::function<void __cdecl(void)> > >::_Get_data
PUBLIC	?_Map@?$deque@V?$function@$$A6AXXZ@std@@V?$allocator@V?$function@$$A6AXXZ@std@@@2@@std@@AEAAAEAPEAPEAV?$function@$$A6AXXZ@2@XZ ; std::deque<std::function<void __cdecl(void)>,std::allocator<std::function<void __cdecl(void)> > >::_Map
PUBLIC	?_Mapsize@?$deque@V?$function@$$A6AXXZ@std@@V?$allocator@V?$function@$$A6AXXZ@std@@@2@@std@@AEAAAEA_KXZ ; std::deque<std::function<void __cdecl(void)>,std::allocator<std::function<void __cdecl(void)> > >::_Mapsize
PUBLIC	?_Myoff@?$deque@V?$function@$$A6AXXZ@std@@V?$allocator@V?$function@$$A6AXXZ@std@@@2@@std@@AEAAAEA_KXZ ; std::deque<std::function<void __cdecl(void)>,std::allocator<std::function<void __cdecl(void)> > >::_Myoff
PUBLIC	?_Myoff@?$deque@V?$function@$$A6AXXZ@std@@V?$allocator@V?$function@$$A6AXXZ@std@@@2@@std@@AEBAAEB_KXZ ; std::deque<std::function<void __cdecl(void)>,std::allocator<std::function<void __cdecl(void)> > >::_Myoff
PUBLIC	?_Mysize@?$deque@V?$function@$$A6AXXZ@std@@V?$allocator@V?$function@$$A6AXXZ@std@@@2@@std@@AEAAAEA_KXZ ; std::deque<std::function<void __cdecl(void)>,std::allocator<std::function<void __cdecl(void)> > >::_Mysize
PUBLIC	?_Mysize@?$deque@V?$function@$$A6AXXZ@std@@V?$allocator@V?$function@$$A6AXXZ@std@@@2@@std@@AEBAAEB_KXZ ; std::deque<std::function<void __cdecl(void)>,std::allocator<std::function<void __cdecl(void)> > >::_Mysize
PUBLIC	?_Get_first@?$_Compressed_pair@V?$allocator@V?$function@$$A6AXXZ@std@@@std@@V?$_Deque_val@U?$_Deque_simple_types@V?$function@$$A6AXXZ@std@@@std@@@2@$00@std@@QEAAAEAV?$allocator@V?$function@$$A6AXXZ@std@@@2@XZ ; std::_Compressed_pair<std::allocator<std::function<void __cdecl(void)> >,std::_Deque_val<std::_Deque_simple_types<std::function<void __cdecl(void)> > >,1>::_Get_first
PUBLIC	?_Get_first@?$_Compressed_pair@V?$allocator@V?$function@$$A6AXXZ@std@@@std@@V?$_Deque_val@U?$_Deque_simple_types@V?$function@$$A6AXXZ@std@@@std@@@2@$00@std@@QEBAAEBV?$allocator@V?$function@$$A6AXXZ@std@@@2@XZ ; std::_Compressed_pair<std::allocator<std::function<void __cdecl(void)> >,std::_Deque_val<std::_Deque_simple_types<std::function<void __cdecl(void)> > >,1>::_Get_first
PUBLIC	??0?$queue@V?$function@$$A6AXXZ@std@@V?$deque@V?$function@$$A6AXXZ@std@@V?$allocator@V?$function@$$A6AXXZ@std@@@2@@2@@std@@QEAA@XZ ; std::queue<std::function<void __cdecl(void)>,std::deque<std::function<void __cdecl(void)>,std::allocator<std::function<void __cdecl(void)> > > >::queue<std::function<void __cdecl(void)>,std::deque<std::function<void __cdecl(void)>,std::allocator<std::function<void __cdecl(void)> > > >
PUBLIC	?empty@?$queue@V?$function@$$A6AXXZ@std@@V?$deque@V?$function@$$A6AXXZ@std@@V?$allocator@V?$function@$$A6AXXZ@std@@@2@@2@@std@@QEBA_NXZ ; std::queue<std::function<void __cdecl(void)>,std::deque<std::function<void __cdecl(void)>,std::allocator<std::function<void __cdecl(void)> > > >::empty
PUBLIC	?front@?$queue@V?$function@$$A6AXXZ@std@@V?$deque@V?$function@$$A6AXXZ@std@@V?$allocator@V?$function@$$A6AXXZ@std@@@2@@2@@std@@QEAAAEAV?$function@$$A6AXXZ@2@XZ ; std::queue<std::function<void __cdecl(void)>,std::deque<std::function<void __cdecl(void)>,std::allocator<std::function<void __cdecl(void)> > > >::front
PUBLIC	?push@?$queue@V?$function@$$A6AXXZ@std@@V?$deque@V?$function@$$A6AXXZ@std@@V?$allocator@V?$function@$$A6AXXZ@std@@@2@@2@@std@@QEAAXAEBV?$function@$$A6AXXZ@2@@Z ; std::queue<std::function<void __cdecl(void)>,std::deque<std::function<void __cdecl(void)>,std::allocator<std::function<void __cdecl(void)> > > >::push
PUBLIC	?pop@?$queue@V?$function@$$A6AXXZ@std@@V?$deque@V?$function@$$A6AXXZ@std@@V?$allocator@V?$function@$$A6AXXZ@std@@@2@@2@@std@@QEAAXXZ ; std::queue<std::function<void __cdecl(void)>,std::deque<std::function<void __cdecl(void)>,std::allocator<std::function<void __cdecl(void)> > > >::pop
PUBLIC	??1?$queue@V?$function@$$A6AXXZ@std@@V?$deque@V?$function@$$A6AXXZ@std@@V?$allocator@V?$function@$$A6AXXZ@std@@@2@@2@@std@@QEAA@XZ ; std::queue<std::function<void __cdecl(void)>,std::deque<std::function<void __cdecl(void)>,std::allocator<std::function<void __cdecl(void)> > > >::~queue<std::function<void __cdecl(void)>,std::deque<std::function<void __cdecl(void)>,std::allocator<std::function<void __cdecl(void)> > > >
PUBLIC	?worker@thread_pool@@AEAAXXZ			; thread_pool::worker
PUBLIC	?deallocate@?$allocator@U_Container_proxy@std@@@std@@QEAAXQEAU_Container_proxy@2@_K@Z ; std::allocator<std::_Container_proxy>::deallocate
PUBLIC	?allocate@?$allocator@U_Container_proxy@std@@@std@@QEAAPEAU_Container_proxy@2@_K@Z ; std::allocator<std::_Container_proxy>::allocate
PUBLIC	??$?0V?$function@$$A6AXXZ@std@@@?$allocator@U_Container_proxy@std@@@std@@QEAA@AEBV?$allocator@V?$function@$$A6AXXZ@std@@@1@@Z ; std::allocator<std::_Container_proxy>::allocator<std::_Container_proxy><std::function<void __cdecl(void)> >
PUBLIC	??$exchange@PEAU_Container_proxy@std@@$$T@std@@YAPEAU_Container_proxy@0@AEAPEAU10@$$QEA$$T@Z ; std::exchange<std::_Container_proxy *,std::nullptr_t>
PUBLIC	??$_Delete_plain_internal@V?$allocator@U_Container_proxy@std@@@std@@@std@@YAXAEAV?$allocator@U_Container_proxy@std@@@0@QEAU_Container_proxy@0@@Z ; std::_Delete_plain_internal<std::allocator<std::_Container_proxy> >
PUBLIC	??$?0$$V@?$_Compressed_pair@V?$allocator@V?$function@$$A6AXXZ@std@@@std@@V?$_Deque_val@U?$_Deque_simple_types@V?$function@$$A6AXXZ@std@@@std@@@2@$00@std@@QEAA@U_Zero_then_variadic_args_t@1@@Z ; std::_Compressed_pair<std::allocator<std::function<void __cdecl(void)> >,std::_Deque_val<std::_Deque_simple_types<std::function<void __cdecl(void)> > >,1>::_Compressed_pair<std::allocator<std::function<void __cdecl(void)> >,std::_Deque_val<std::_Deque_simple_types<std::function<void __cdecl(void)> > >,1><>
PUBLIC	??$_Alloc_proxy@V?$allocator@U_Container_proxy@std@@@std@@@_Container_base12@std@@QEAAX$$QEAV?$allocator@U_Container_proxy@std@@@1@@Z ; std::_Container_base12::_Alloc_proxy<std::allocator<std::_Container_proxy> >
PUBLIC	??$addressof@V?$function@$$A6AXXZ@std@@@std@@YAPEAV?$function@$$A6AXXZ@0@AEAV10@@Z ; std::addressof<std::function<void __cdecl(void)> >
PUBLIC	??$?0Vthread@std@@@?$allocator@U_Container_proxy@std@@@std@@QEAA@AEBV?$allocator@Vthread@std@@@1@@Z ; std::allocator<std::_Container_proxy>::allocator<std::_Container_proxy><std::thread>
PUBLIC	??$?0$$V@?$_Compressed_pair@V?$allocator@Vthread@std@@@std@@V?$_Vector_val@U?$_Simple_types@Vthread@std@@@std@@@2@$00@std@@QEAA@U_Zero_then_variadic_args_t@1@@Z ; std::_Compressed_pair<std::allocator<std::thread>,std::_Vector_val<std::_Simple_types<std::thread> >,1>::_Compressed_pair<std::allocator<std::thread>,std::_Vector_val<std::_Simple_types<std::thread> >,1><>
PUBLIC	??$addressof@Vmutex@std@@@std@@YAPEAVmutex@0@AEAV10@@Z ; std::addressof<std::mutex>
PUBLIC	??$min@_K@std@@YAAEB_KAEB_K0@Z			; std::min<unsigned __int64>
PUBLIC	??$?0V?$function@$$A6AXXZ@std@@@?$allocator@PEAV?$function@$$A6AXXZ@std@@@std@@QEAA@AEBV?$allocator@V?$function@$$A6AXXZ@std@@@1@@Z ; std::allocator<std::function<void __cdecl(void)> *>::allocator<std::function<void __cdecl(void)> *><std::function<void __cdecl(void)> >
PUBLIC	??$_Destroy_in_place@PEAV?$function@$$A6AXXZ@std@@@std@@YAXAEAPEAV?$function@$$A6AXXZ@0@@Z ; std::_Destroy_in_place<std::function<void __cdecl(void)> *>
PUBLIC	??$_Emplace_back_internal@AEBV?$function@$$A6AXXZ@std@@@?$deque@V?$function@$$A6AXXZ@std@@V?$allocator@V?$function@$$A6AXXZ@std@@@2@@std@@AEAAXAEBV?$function@$$A6AXXZ@1@@Z ; std::deque<std::function<void __cdecl(void)>,std::allocator<std::function<void __cdecl(void)> > >::_Emplace_back_internal<std::function<void __cdecl(void)> const &>
PUBLIC	??$_Unfancy@V?$function@$$A6AXXZ@std@@@std@@YAPEAV?$function@$$A6AXXZ@0@PEAV10@@Z ; std::_Unfancy<std::function<void __cdecl(void)> >
PUBLIC	??$destroy@V?$function@$$A6AXXZ@std@@@?$_Default_allocator_traits@V?$allocator@V?$function@$$A6AXXZ@std@@@std@@@std@@SAXAEAV?$allocator@V?$function@$$A6AXXZ@std@@@1@QEAV?$function@$$A6AXXZ@1@@Z ; std::_Default_allocator_traits<std::allocator<std::function<void __cdecl(void)> > >::destroy<std::function<void __cdecl(void)> >
PUBLIC	??0?$_Deque_unchecked_const_iterator@V?$_Deque_val@U?$_Deque_simple_types@V?$function@$$A6AXXZ@std@@@std@@@std@@@std@@QEAA@_KPEBU_Container_base12@1@@Z ; std::_Deque_unchecked_const_iterator<std::_Deque_val<std::_Deque_simple_types<std::function<void __cdecl(void)> > > >::_Deque_unchecked_const_iterator<std::_Deque_val<std::_Deque_simple_types<std::function<void __cdecl(void)> > > >
PUBLIC	??D?$_Deque_unchecked_const_iterator@V?$_Deque_val@U?$_Deque_simple_types@V?$function@$$A6AXXZ@std@@@std@@@std@@@std@@QEBAAEBV?$function@$$A6AXXZ@1@XZ ; std::_Deque_unchecked_const_iterator<std::_Deque_val<std::_Deque_simple_types<std::function<void __cdecl(void)> > > >::operator*
PUBLIC	??D?$_Deque_unchecked_iterator@V?$_Deque_val@U?$_Deque_simple_types@V?$function@$$A6AXXZ@std@@@std@@@std@@@std@@QEBAAEAV?$function@$$A6AXXZ@1@XZ ; std::_Deque_unchecked_iterator<std::_Deque_val<std::_Deque_simple_types<std::function<void __cdecl(void)> > > >::operator*
PUBLIC	??0?$_Deque_unchecked_iterator@V?$_Deque_val@U?$_Deque_simple_types@V?$function@$$A6AXXZ@std@@@std@@@std@@@std@@QEAA@_KPEBU_Container_base12@1@@Z ; std::_Deque_unchecked_iterator<std::_Deque_val<std::_Deque_simple_types<std::function<void __cdecl(void)> > > >::_Deque_unchecked_iterator<std::_Deque_val<std::_Deque_simple_types<std::function<void __cdecl(void)> > > >
PUBLIC	??$_Destroy_range@V?$allocator@Vthread@std@@@std@@@std@@YAXPEAVthread@0@QEAV10@AEAV?$allocator@Vthread@std@@@0@@Z ; std::_Destroy_range<std::allocator<std::thread> >
PUBLIC	??$_Deallocate@$0BA@$0A@@std@@YAXPEAX_K@Z	; std::_Deallocate<16,0>
PUBLIC	??$addressof@V?$_Deque_val@U?$_Deque_simple_types@V?$function@$$A6AXXZ@std@@@std@@@std@@@std@@YAPEAV?$_Deque_val@U?$_Deque_simple_types@V?$function@$$A6AXXZ@std@@@std@@@0@AEAV10@@Z ; std::addressof<std::_Deque_val<std::_Deque_simple_types<std::function<void __cdecl(void)> > > >
PUBLIC	??$addressof@U_Container_proxy@std@@@std@@YAPEAU_Container_proxy@0@AEAU10@@Z ; std::addressof<std::_Container_proxy>
PUBLIC	??$construct_at@U_Container_proxy@std@@PEAU_Container_base12@2@$0A@@std@@YAPEAU_Container_proxy@0@QEAU10@$$QEAPEAU_Container_base12@0@@Z ; std::construct_at<std::_Container_proxy,std::_Container_base12 *,0>
PUBLIC	??$_Deallocate_plain@V?$allocator@U_Container_proxy@std@@@std@@@std@@YAXAEAV?$allocator@U_Container_proxy@std@@@0@QEAU_Container_proxy@0@@Z ; std::_Deallocate_plain<std::allocator<std::_Container_proxy> >
PUBLIC	??$_Unfancy@U_Container_proxy@std@@@std@@YAPEAU_Container_proxy@0@PEAU10@@Z ; std::_Unfancy<std::_Container_proxy>
PUBLIC	??$construct@V?$function@$$A6AXXZ@std@@AEBV12@@?$_Default_allocator_traits@V?$allocator@V?$function@$$A6AXXZ@std@@@std@@@std@@SAXAEAV?$allocator@V?$function@$$A6AXXZ@std@@@1@QEAV?$function@$$A6AXXZ@1@AEBV31@@Z ; std::_Default_allocator_traits<std::allocator<std::function<void __cdecl(void)> > >::construct<std::function<void __cdecl(void)>,std::function<void __cdecl(void)> const &>
PUBLIC	??$destroy_at@V?$function@$$A6AXXZ@std@@@std@@YAXQEAV?$function@$$A6AXXZ@0@@Z ; std::destroy_at<std::function<void __cdecl(void)> >
PUBLIC	??$_Unfancy@Vthread@std@@@std@@YAPEAVthread@0@PEAV10@@Z ; std::_Unfancy<std::thread>
PUBLIC	??$destroy@Vthread@std@@@?$_Default_allocator_traits@V?$allocator@Vthread@std@@@std@@@std@@SAXAEAV?$allocator@Vthread@std@@@1@QEAVthread@1@@Z ; std::_Default_allocator_traits<std::allocator<std::thread> >::destroy<std::thread>
PUBLIC	??$_Get_size_of_n@$0BA@@std@@YA_K_K@Z		; std::_Get_size_of_n<16>
PUBLIC	??$_Allocate@$0BA@U_Default_allocate_traits@std@@$0A@@std@@YAPEAX_K@Z ; std::_Allocate<16,std::_Default_allocate_traits,0>
PUBLIC	??$_Allocate_at_least_helper@V?$allocator@PEAV?$function@$$A6AXXZ@std@@@std@@@std@@YAPEAPEAV?$function@$$A6AXXZ@0@AEAV?$allocator@PEAV?$function@$$A6AXXZ@std@@@0@AEA_K@Z ; std::_Allocate_at_least_helper<std::allocator<std::function<void __cdecl(void)> *> >
PUBLIC	??$uninitialized_copy@PEAPEAV?$function@$$A6AXXZ@std@@PEAPEAV12@@std@@YAPEAPEAV?$function@$$A6AXXZ@0@QEAPEAV10@0PEAPEAV10@@Z ; std::uninitialized_copy<std::function<void __cdecl(void)> * *,std::function<void __cdecl(void)> * *>
PUBLIC	??$_Uninitialized_value_construct_n_unchecked1@PEAPEAV?$function@$$A6AXXZ@std@@_K@std@@YAPEAPEAV?$function@$$A6AXXZ@0@PEAPEAV10@_K@Z ; std::_Uninitialized_value_construct_n_unchecked1<std::function<void __cdecl(void)> * *,unsigned __int64>
PUBLIC	??$_Destroy_range@PEAPEAV?$function@$$A6AXXZ@std@@PEAPEAV12@@std@@YAXPEAPEAV?$function@$$A6AXXZ@0@QEAPEAV10@@Z ; std::_Destroy_range<std::function<void __cdecl(void)> * *,std::function<void __cdecl(void)> * *>
PUBLIC	??$_Get_size_of_n@$0EA@@std@@YA_K_K@Z		; std::_Get_size_of_n<64>
PUBLIC	??$_Allocate_at_least_helper@V?$allocator@Vthread@std@@@std@@@std@@YAPEAVthread@0@AEAV?$allocator@Vthread@std@@@0@AEA_K@Z ; std::_Allocate_at_least_helper<std::allocator<std::thread> >
PUBLIC	??$_Uninitialized_move@PEAVthread@std@@V?$allocator@Vthread@std@@@2@@std@@YAPEAVthread@0@QEAV10@0PEAV10@AEAV?$allocator@Vthread@std@@@0@@Z ; std::_Uninitialized_move<std::thread *,std::allocator<std::thread> >
PUBLIC	?deallocate@?$_Default_allocator_traits@V?$allocator@U_Container_proxy@std@@@std@@@std@@SAXAEAV?$allocator@U_Container_proxy@std@@@2@QEAU_Container_proxy@2@_K@Z ; std::_Default_allocator_traits<std::allocator<std::_Container_proxy> >::deallocate
PUBLIC	??$construct_at@V?$function@$$A6AXXZ@std@@AEBV12@$0A@@std@@YAPEAV?$function@$$A6AXXZ@0@QEAV10@AEBV10@@Z ; std::construct_at<std::function<void __cdecl(void)>,std::function<void __cdecl(void)> const &,0>
PUBLIC	??$destroy_at@Vthread@std@@@std@@YAXQEAVthread@0@@Z ; std::destroy_at<std::thread>
PUBLIC	??$_Allocate_manually_vector_aligned@U_Default_allocate_traits@std@@@std@@YAPEAX_K@Z ; std::_Allocate_manually_vector_aligned<std::_Default_allocate_traits>
PUBLIC	??$_Adl_verify_range@PEAPEAV?$function@$$A6AXXZ@std@@PEAPEAV12@@std@@YAXAEBQEAPEAV?$function@$$A6AXXZ@0@0@Z ; std::_Adl_verify_range<std::function<void __cdecl(void)> * *,std::function<void __cdecl(void)> * *>
PUBLIC	??$_Get_unwrapped@AEBQEAPEAV?$function@$$A6AXXZ@std@@@std@@YA?A_TAEBQEAPEAV?$function@$$A6AXXZ@0@@Z ; std::_Get_unwrapped<std::function<void __cdecl(void)> * * const &>
PUBLIC	??$_Idl_distance@PEAPEAV?$function@$$A6AXXZ@std@@PEAPEAV12@@std@@YA?A_PAEBQEAPEAV?$function@$$A6AXXZ@0@0@Z ; std::_Idl_distance<std::function<void __cdecl(void)> * *,std::function<void __cdecl(void)> * *>
PUBLIC	??$_Get_unwrapped_n@AEAPEAPEAV?$function@$$A6AXXZ@std@@_J@std@@YA?A_TAEAPEAPEAV?$function@$$A6AXXZ@0@_J@Z ; std::_Get_unwrapped_n<std::function<void __cdecl(void)> * * &,__int64>
PUBLIC	??$_Uninitialized_copy_unchecked@PEAPEAV?$function@$$A6AXXZ@std@@PEAPEAV12@@std@@YAPEAPEAV?$function@$$A6AXXZ@0@PEAPEAV10@QEAPEAV10@0@Z ; std::_Uninitialized_copy_unchecked<std::function<void __cdecl(void)> * *,std::function<void __cdecl(void)> * *>
PUBLIC	??$_Seek_wrapped@PEAPEAV?$function@$$A6AXXZ@std@@PEAPEAV12@@std@@YAXAEAPEAPEAV?$function@$$A6AXXZ@0@$$QEAPEAPEAV10@@Z ; std::_Seek_wrapped<std::function<void __cdecl(void)> * *,std::function<void __cdecl(void)> * *>
PUBLIC	??$_Zero_range@PEAPEAV?$function@$$A6AXXZ@std@@@std@@YAPEAPEAV?$function@$$A6AXXZ@0@QEAPEAV10@0@Z ; std::_Zero_range<std::function<void __cdecl(void)> * *>
PUBLIC	??$_Get_size_of_n@$07@std@@YA_K_K@Z		; std::_Get_size_of_n<8>
PUBLIC	??$_Get_unwrapped@AEBQEAVthread@std@@@std@@YA?A_TAEBQEAVthread@0@@Z ; std::_Get_unwrapped<std::thread * const &>
PUBLIC	??0?$_Uninitialized_backout_al@V?$allocator@Vthread@std@@@std@@@std@@QEAA@PEAVthread@1@AEAV?$allocator@Vthread@std@@@1@@Z ; std::_Uninitialized_backout_al<std::allocator<std::thread> >::_Uninitialized_backout_al<std::allocator<std::thread> >
PUBLIC	??1?$_Uninitialized_backout_al@V?$allocator@Vthread@std@@@std@@@std@@QEAA@XZ ; std::_Uninitialized_backout_al<std::allocator<std::thread> >::~_Uninitialized_backout_al<std::allocator<std::thread> >
PUBLIC	?_Release@?$_Uninitialized_backout_al@V?$allocator@Vthread@std@@@std@@@std@@QEAAPEAVthread@2@XZ ; std::_Uninitialized_backout_al<std::allocator<std::thread> >::_Release
PUBLIC	?__autoclassinit2@?$_Uninitialized_backout_al@V?$allocator@Vthread@std@@@std@@@std@@QEAAX_K@Z ; std::_Uninitialized_backout_al<std::allocator<std::thread> >::__autoclassinit2
PUBLIC	??$_Emplace_back@Vthread@std@@@?$_Uninitialized_backout_al@V?$allocator@Vthread@std@@@std@@@std@@QEAAX$$QEAVthread@1@@Z ; std::_Uninitialized_backout_al<std::allocator<std::thread> >::_Emplace_back<std::thread>
PUBLIC	??$_Verify_range@PEAV?$function@$$A6AXXZ@std@@@std@@YAXQEBQEAV?$function@$$A6AXXZ@0@0@Z ; std::_Verify_range<std::function<void __cdecl(void)> *>
PUBLIC	??$_Copy_memmove@PEAPEAV?$function@$$A6AXXZ@std@@PEAPEAV12@@std@@YAPEAPEAV?$function@$$A6AXXZ@0@PEAPEAV10@00@Z ; std::_Copy_memmove<std::function<void __cdecl(void)> * *,std::function<void __cdecl(void)> * *>
PUBLIC	??0?$_Uninitialized_backout@PEAPEAV?$function@$$A6AXXZ@std@@@std@@QEAA@PEAPEAV?$function@$$A6AXXZ@1@@Z ; std::_Uninitialized_backout<std::function<void __cdecl(void)> * *>::_Uninitialized_backout<std::function<void __cdecl(void)> * *>
PUBLIC	??1?$_Uninitialized_backout@PEAPEAV?$function@$$A6AXXZ@std@@@std@@QEAA@XZ ; std::_Uninitialized_backout<std::function<void __cdecl(void)> * *>::~_Uninitialized_backout<std::function<void __cdecl(void)> * *>
PUBLIC	?_Release@?$_Uninitialized_backout@PEAPEAV?$function@$$A6AXXZ@std@@@std@@QEAAPEAPEAV?$function@$$A6AXXZ@2@XZ ; std::_Uninitialized_backout<std::function<void __cdecl(void)> * *>::_Release
PUBLIC	??$_Emplace_back@AEAPEAV?$function@$$A6AXXZ@std@@@?$_Uninitialized_backout@PEAPEAV?$function@$$A6AXXZ@std@@@std@@QEAAXAEAPEAV?$function@$$A6AXXZ@1@@Z ; std::_Uninitialized_backout<std::function<void __cdecl(void)> * *>::_Emplace_back<std::function<void __cdecl(void)> * &>
PUBLIC	??$_To_address@PEAPEAV?$function@$$A6AXXZ@std@@@std@@YA?A_PAEBQEAPEAV?$function@$$A6AXXZ@0@@Z ; std::_To_address<std::function<void __cdecl(void)> * *>
PUBLIC	??$to_address@PEAV?$function@$$A6AXXZ@std@@@std@@YAPEAPEAV?$function@$$A6AXXZ@0@QEAPEAV10@@Z ; std::to_address<std::function<void __cdecl(void)> *>
PUBLIC	??$?0U_Exact_args_t@std@@$0A@@?$tuple@$$V@std@@QEAA@U_Exact_args_t@1@@Z ; std::tuple<>::tuple<><std::_Exact_args_t,0>
PUBLIC	??$construct@Vthread@std@@V12@@?$_Default_allocator_traits@V?$allocator@Vthread@std@@@std@@@std@@SAXAEAV?$allocator@Vthread@std@@@1@QEAVthread@1@$$QEAV31@@Z ; std::_Default_allocator_traits<std::allocator<std::thread> >::construct<std::thread,std::thread>
PUBLIC	??$_Construct_in_place@PEAV?$function@$$A6AXXZ@std@@AEAPEAV12@@std@@YAXAEAPEAV?$function@$$A6AXXZ@0@0@Z ; std::_Construct_in_place<std::function<void __cdecl(void)> *,std::function<void __cdecl(void)> * &>
PUBLIC	??$construct_at@Vthread@std@@V12@$0A@@std@@YAPEAVthread@0@QEAV10@$$QEAV10@@Z ; std::construct_at<std::thread,std::thread,0>
PUBLIC	??$addressof@PEAV?$function@$$A6AXXZ@std@@@std@@YAPEAPEAV?$function@$$A6AXXZ@0@AEAPEAV10@@Z ; std::addressof<std::function<void __cdecl(void)> *>
PUBLIC	??$construct_at@PEAV?$function@$$A6AXXZ@std@@AEAPEAV12@$0A@@std@@YAPEAPEAV?$function@$$A6AXXZ@0@QEAPEAV10@AEAPEAV10@@Z ; std::construct_at<std::function<void __cdecl(void)> *,std::function<void __cdecl(void)> * &,0>
PUBLIC	__JustMyCode_Default
PUBLIC	??_7exception@std@@6B@				; std::exception::`vftable'
PUBLIC	??_C@_0BC@EOODALEL@Unknown?5exception@		; `string'
PUBLIC	??_7bad_alloc@std@@6B@				; std::bad_alloc::`vftable'
PUBLIC	??_7bad_array_new_length@std@@6B@		; std::bad_array_new_length::`vftable'
PUBLIC	??_C@_0BF@KINCDENJ@bad?5array?5new?5length@	; `string'
PUBLIC	_TI3?AVbad_array_new_length@std@@
PUBLIC	_CTA3?AVbad_array_new_length@std@@
PUBLIC	??_R0?AVbad_array_new_length@std@@@8		; std::bad_array_new_length `RTTI Type Descriptor'
PUBLIC	_CT??_R0?AVbad_array_new_length@std@@@8??0bad_array_new_length@std@@QEAA@AEBV01@@Z24
PUBLIC	??_R0?AVbad_alloc@std@@@8			; std::bad_alloc `RTTI Type Descriptor'
PUBLIC	_CT??_R0?AVbad_alloc@std@@@8??0bad_alloc@std@@QEAA@AEBV01@@Z24
PUBLIC	??_R0?AVexception@std@@@8			; std::exception `RTTI Type Descriptor'
PUBLIC	_CT??_R0?AVexception@std@@@8??0exception@std@@QEAA@AEBV01@@Z24
PUBLIC	?__LINE__Var@?0??_Adjust_manually_vector_aligned@std@@YAXAEAPEAXAEA_K@Z@4JA ; `std::_Adjust_manually_vector_aligned'::`1'::__LINE__Var
PUBLIC	??_C@_0BB@FCMFBGOM@invalid?5argument@		; `string'
PUBLIC	??_C@_02DKCKIIND@?$CFs@				; `string'
PUBLIC	??_C@_0GC@MFPFMMDA@C?3?2Program?5Files?2Microsoft?5Visu@ ; `string'
PUBLIC	??_C@_1ME@HBHJKKLJ@?$AAC?$AA?3?$AA?2?$AAP?$AAr?$AAo?$AAg?$AAr?$AAa?$AAm?$AA?5?$AAF?$AAi?$AAl?$AAe@ ; `string'
PUBLIC	??_C@_11LOCGONAA@@				; `string'
PUBLIC	??_C@_1CG@JNLFBNGN@?$AA?$CC?$AAi?$AAn?$AAv?$AAa?$AAl?$AAi?$AAd?$AA?5?$AAa?$AAr?$AAg?$AAu?$AAm?$AAe@ ; `string'
PUBLIC	??_C@_0GC@GNDJPOJH@C?3?2Program?5Files?2Microsoft?5Visu@ ; `string'
PUBLIC	?__LINE__Var@?0??_Maklocwcs@std@@YAPEA_WPEB_W@Z@4JA ; `std::_Maklocwcs'::`1'::__LINE__Var
PUBLIC	??_C@_0GC@OOHEPMDG@C?3?2Program?5Files?2Microsoft?5Visu@ ; `string'
PUBLIC	??_C@_0BJ@HAJGEHKO@transposed?5pointer?5range@	; `string'
PUBLIC	??_C@_0GD@OFOHMBDA@C?3?2Program?5Files?2Microsoft?5Visu@ ; `string'
PUBLIC	??_C@_1MG@OMEADHM@?$AAC?$AA?3?$AA?2?$AAP?$AAr?$AAo?$AAg?$AAr?$AAa?$AAm?$AA?5?$AAF?$AAi?$AAl?$AAe@ ; `string'
PUBLIC	??_C@_1DG@FJIKMGFD@?$AA?$CC?$AAt?$AAr?$AAa?$AAn?$AAs?$AAp?$AAo?$AAs?$AAe?$AAd?$AA?5?$AAp?$AAo?$AAi@ ; `string'
PUBLIC	??_C@_0N@LPFKKEBD@?3AM?3am?3PM?3pm@		; `string'
PUBLIC	??_C@_0BH@EDKEEENI@deque?5empty?5before?5pop@	; `string'
PUBLIC	??_C@_0GA@OFLCKJGB@C?3?2Program?5Files?2Microsoft?5Visu@ ; `string'
PUBLIC	??_C@_1MA@KDLMHFEF@?$AAC?$AA?3?$AA?2?$AAP?$AAr?$AAo?$AAg?$AAr?$AAa?$AAm?$AA?5?$AAF?$AAi?$AAl?$AAe@ ; `string'
PUBLIC	??_C@_1DC@NJAACHCD@?$AA?$CC?$AAd?$AAe?$AAq?$AAu?$AAe?$AA?5?$AAe?$AAm?$AAp?$AAt?$AAy?$AA?5?$AAb?$AAe@ ; `string'
PUBLIC	??_C@_0BO@PEOHNLIM@front?$CI?$CJ?5called?5on?5empty?5deque@ ; `string'
PUBLIC	??_C@_1EA@EELNAHHD@?$AA?$CC?$AAf?$AAr?$AAo?$AAn?$AAt?$AA?$CI?$AA?$CJ?$AA?5?$AAc?$AAa?$AAl?$AAl?$AAe?$AAd@ ; `string'
PUBLIC	??_C@_0BA@FOIKENOD@vector?5too?5long@		; `string'
PUBLIC	??_C@_0DG@KGHKKGBC@null?5pointer?5cannot?5point?5to?5a?5@ ; `string'
PUBLIC	??_C@_1HA@FACCKGGH@?$AA?$CC?$AAn?$AAu?$AAl?$AAl?$AA?5?$AAp?$AAo?$AAi?$AAn?$AAt?$AAe?$AAr?$AA?5?$AAc@ ; `string'
PUBLIC	??_C@_1BK@MHIKGOKE@?$AA?3?$AAA?$AAM?$AA?3?$AAa?$AAm?$AA?3?$AAP?$AAM?$AA?3?$AAp?$AAm@ ; `string'
PUBLIC	??_C@_0BC@KBDMBKEH@deque?$DMT?$DO?5too?5long@	; `string'
PUBLIC	??_R4exception@std@@6B@				; std::exception::`RTTI Complete Object Locator'
PUBLIC	??_R3exception@std@@8				; std::exception::`RTTI Class Hierarchy Descriptor'
PUBLIC	??_R2exception@std@@8				; std::exception::`RTTI Base Class Array'
PUBLIC	??_R1A@?0A@EA@exception@std@@8			; std::exception::`RTTI Base Class Descriptor at (0,-1,0,64)'
PUBLIC	??_R4bad_alloc@std@@6B@				; std::bad_alloc::`RTTI Complete Object Locator'
PUBLIC	??_R3bad_alloc@std@@8				; std::bad_alloc::`RTTI Class Hierarchy Descriptor'
PUBLIC	??_R2bad_alloc@std@@8				; std::bad_alloc::`RTTI Base Class Array'
PUBLIC	??_R1A@?0A@EA@bad_alloc@std@@8			; std::bad_alloc::`RTTI Base Class Descriptor at (0,-1,0,64)'
PUBLIC	??_R4bad_array_new_length@std@@6B@		; std::bad_array_new_length::`RTTI Complete Object Locator'
PUBLIC	??_R3bad_array_new_length@std@@8		; std::bad_array_new_length::`RTTI Class Hierarchy Descriptor'
PUBLIC	??_R2bad_array_new_length@std@@8		; std::bad_array_new_length::`RTTI Base Class Array'
PUBLIC	??_R1A@?0A@EA@bad_array_new_length@std@@8	; std::bad_array_new_length::`RTTI Base Class Descriptor at (0,-1,0,64)'
EXTRN	??2@YAPEAX_K@Z:PROC				; operator new
EXTRN	??3@YAXPEAX@Z:PROC				; operator delete
EXTRN	??3@YAXPEAX_K@Z:PROC				; operator delete
EXTRN	__imp__invalid_parameter:PROC
EXTRN	__imp__calloc_dbg:PROC
EXTRN	__imp__CrtDbgReport:PROC
EXTRN	__imp_??0_Lockit@std@@QEAA@H@Z:PROC
EXTRN	__imp_??1_Lockit@std@@QEAA@XZ:PROC
EXTRN	__imp_terminate:PROC
EXTRN	__std_exception_copy:PROC
EXTRN	__std_exception_destroy:PROC
EXTRN	??_Eexception@std@@UEAAPEAXI@Z:PROC		; std::exception::`vector deleting destructor'
EXTRN	??_Ebad_alloc@std@@UEAAPEAXI@Z:PROC		; std::bad_alloc::`vector deleting destructor'
EXTRN	??_Ebad_array_new_length@std@@UEAAPEAXI@Z:PROC	; std::bad_array_new_length::`vector deleting destructor'
EXTRN	memcpy:PROC
EXTRN	memmove:PROC
EXTRN	memset:PROC
EXTRN	__imp_wcslen:PROC
EXTRN	strlen:PROC
EXTRN	?_Xbad_alloc@std@@YAXXZ:PROC			; std::_Xbad_alloc
EXTRN	?_Xlength_error@std@@YAXPEBD@Z:PROC		; std::_Xlength_error
EXTRN	_Thrd_join:PROC
EXTRN	_Thrd_id:PROC
EXTRN	_Mtx_init_in_situ:PROC
EXTRN	_Mtx_destroy_in_situ:PROC
EXTRN	_Mtx_lock:PROC
EXTRN	_Mtx_unlock:PROC
EXTRN	_Cnd_init_in_situ:PROC
EXTRN	_Cnd_destroy_in_situ:PROC
EXTRN	_Cnd_wait:PROC
EXTRN	_Cnd_broadcast:PROC
EXTRN	_Cnd_signal:PROC
EXTRN	_Cnd_do_broadcast_at_thread_exit:PROC
EXTRN	?_Throw_Cpp_error@std@@YAXH@Z:PROC		; std::_Throw_Cpp_error
EXTRN	_Mbrtowc:PROC
EXTRN	__imp_?_Getcvt@_Locinfo@std@@QEBA?AU_Cvtvec@@XZ:PROC
EXTRN	__imp_?_Getdays@_Locinfo@std@@QEBAPEBDXZ:PROC
EXTRN	__imp_?_Getmonths@_Locinfo@std@@QEBAPEBDXZ:PROC
EXTRN	__imp_?_W_Getdays@_Locinfo@std@@QEBAPEBGXZ:PROC
EXTRN	__imp_?_W_Getmonths@_Locinfo@std@@QEBAPEBGXZ:PROC
EXTRN	__imp__beginthreadex:PROC
EXTRN	?_Xbad_function_call@std@@YAXXZ:PROC		; std::_Xbad_function_call
EXTRN	_CxxThrowException:PROC
EXTRN	_RTC_CheckStackVars:PROC
EXTRN	_RTC_InitBase:PROC
EXTRN	_RTC_Shutdown:PROC
EXTRN	__CheckForDebuggerJustMyCode:PROC
EXTRN	__CxxFrameHandler4:PROC
EXTRN	__GSHandlerCheck:PROC
EXTRN	__GSHandlerCheck_EH4:PROC
EXTRN	__security_check_cookie:PROC
EXTRN	??_7type_info@@6B@:BYTE				; type_info::`vftable'
EXTRN	__security_cookie:QWORD
;	COMDAT pdata
pdata	SEGMENT
$pdata$?__empty_global_delete@@YAXPEAX@Z DD imagerel $LN3
	DD	imagerel $LN3+41
	DD	imagerel $unwind$?__empty_global_delete@@YAXPEAX@Z
pdata	ENDS
;	COMDAT pdata
pdata	SEGMENT
$pdata$?__empty_global_delete@@YAXPEAX_K@Z DD imagerel $LN3
	DD	imagerel $LN3+46
	DD	imagerel $unwind$?__empty_global_delete@@YAXPEAX_K@Z
pdata	ENDS
;	COMDAT pdata
pdata	SEGMENT
$pdata$?__empty_global_delete@@YAXPEAXW4align_val_t@std@@@Z DD imagerel $LN3
	DD	imagerel $LN3+46
	DD	imagerel $unwind$?__empty_global_delete@@YAXPEAXW4align_val_t@std@@@Z
pdata	ENDS
;	COMDAT pdata
pdata	SEGMENT
$pdata$?__empty_global_delete@@YAXPEAX_KW4align_val_t@std@@@Z DD imagerel $LN3
	DD	imagerel $LN3+51
	DD	imagerel $unwind$?__empty_global_delete@@YAXPEAX_KW4align_val_t@std@@@Z
pdata	ENDS
;	COMDAT pdata
pdata	SEGMENT
$pdata$??2@YAPEAX_KPEAX@Z DD imagerel $LN3
	DD	imagerel $LN3+53
	DD	imagerel $unwind$??2@YAPEAX_KPEAX@Z
pdata	ENDS
;	COMDAT pdata
pdata	SEGMENT
$pdata$?is_constant_evaluated@std@@YA_NXZ DD imagerel $LN3
	DD	imagerel $LN3+39
	DD	imagerel $unwind$?is_constant_evaluated@std@@YA_NXZ
pdata	ENDS
;	COMDAT pdata
pdata	SEGMENT
$pdata$??0exception@std@@QEAA@QEBDH@Z DD imagerel $LN3
	DD	imagerel $LN3+116
	DD	imagerel $unwind$??0exception@std@@QEAA@QEBDH@Z
pdata	ENDS
;	COMDAT pdata
pdata	SEGMENT
$pdata$??0exception@std@@QEAA@AEBV01@@Z DD imagerel $LN3
	DD	imagerel $LN3+123
	DD	imagerel $unwind$??0exception@std@@QEAA@AEBV01@@Z
pdata	ENDS
;	COMDAT pdata
pdata	SEGMENT
$pdata$??1exception@std@@UEAA@XZ DD imagerel $LN3
	DD	imagerel $LN3+77
	DD	imagerel $unwind$??1exception@std@@UEAA@XZ
pdata	ENDS
;	COMDAT pdata
pdata	SEGMENT
$pdata$?what@exception@std@@UEBAPEBDXZ DD imagerel $LN5
	DD	imagerel $LN5+96
	DD	imagerel $unwind$?what@exception@std@@UEBAPEBDXZ
pdata	ENDS
;	COMDAT pdata
pdata	SEGMENT
$pdata$??_Gexception@std@@UEAAPEAXI@Z DD imagerel $LN4
	DD	imagerel $LN4+82
	DD	imagerel $unwind$??_Gexception@std@@UEAAPEAXI@Z
pdata	ENDS
;	COMDAT pdata
pdata	SEGMENT
$pdata$??0bad_alloc@std@@AEAA@QEBD@Z DD imagerel $LN3
	DD	imagerel $LN3+95
	DD	imagerel $unwind$??0bad_alloc@std@@AEAA@QEBD@Z
pdata	ENDS
;	COMDAT pdata
pdata	SEGMENT
$pdata$??1bad_alloc@std@@UEAA@XZ DD imagerel $LN3
	DD	imagerel $LN3+41
	DD	imagerel $unwind$??1bad_alloc@std@@UEAA@XZ
pdata	ENDS
;	COMDAT pdata
pdata	SEGMENT
$pdata$??0bad_alloc@std@@QEAA@AEBV01@@Z DD imagerel $LN3
	DD	imagerel $LN3+77
	DD	imagerel $unwind$??0bad_alloc@std@@QEAA@AEBV01@@Z
pdata	ENDS
;	COMDAT pdata
pdata	SEGMENT
$pdata$??_Gbad_alloc@std@@UEAAPEAXI@Z DD imagerel $LN4
	DD	imagerel $LN4+82
	DD	imagerel $unwind$??_Gbad_alloc@std@@UEAAPEAXI@Z
pdata	ENDS
;	COMDAT pdata
pdata	SEGMENT
$pdata$??0bad_array_new_length@std@@QEAA@XZ DD imagerel $LN3
	DD	imagerel $LN3+84
	DD	imagerel $unwind$??0bad_array_new_length@std@@QEAA@XZ
pdata	ENDS
;	COMDAT pdata
pdata	SEGMENT
$pdata$??1bad_array_new_length@std@@UEAA@XZ DD imagerel $LN3
	DD	imagerel $LN3+41
	DD	imagerel $unwind$??1bad_array_new_length@std@@UEAA@XZ
pdata	ENDS
;	COMDAT pdata
pdata	SEGMENT
$pdata$??0bad_array_new_length@std@@QEAA@AEBV01@@Z DD imagerel $LN3
	DD	imagerel $LN3+77
	DD	imagerel $unwind$??0bad_array_new_length@std@@QEAA@AEBV01@@Z
pdata	ENDS
;	COMDAT pdata
pdata	SEGMENT
$pdata$??_Gbad_array_new_length@std@@UEAAPEAXI@Z DD imagerel $LN4
	DD	imagerel $LN4+82
	DD	imagerel $unwind$??_Gbad_array_new_length@std@@UEAAPEAXI@Z
pdata	ENDS
;	COMDAT pdata
pdata	SEGMENT
$pdata$?_Throw_bad_array_new_length@std@@YAXXZ DD imagerel $LN3
	DD	imagerel $LN3+68
	DD	imagerel $unwind$?_Throw_bad_array_new_length@std@@YAXXZ
pdata	ENDS
;	COMDAT pdata
pdata	SEGMENT
$pdata$wmemcpy DD imagerel $LN3
	DD	imagerel $LN3+83
	DD	imagerel $unwind$wmemcpy
pdata	ENDS
;	COMDAT pdata
pdata	SEGMENT
$pdata$?max@?$numeric_limits@_J@std@@SA_JXZ DD imagerel $LN3
	DD	imagerel $LN3+47
	DD	imagerel $unwind$?max@?$numeric_limits@_J@std@@SA_JXZ
pdata	ENDS
;	COMDAT pdata
pdata	SEGMENT
$pdata$?_Allocate@_Default_allocate_traits@std@@SAPEAX_K@Z DD imagerel $LN3
	DD	imagerel $LN3+53
	DD	imagerel $unwind$?_Allocate@_Default_allocate_traits@std@@SAPEAX_K@Z
pdata	ENDS
;	COMDAT pdata
pdata	SEGMENT
$pdata$?_Adjust_manually_vector_aligned@std@@YAXAEAPEAXAEA_K@Z DD imagerel $LN21
	DD	imagerel $LN21+453
	DD	imagerel $unwind$?_Adjust_manually_vector_aligned@std@@YAXAEAPEAXAEA_K@Z
pdata	ENDS
;	COMDAT pdata
pdata	SEGMENT
$pdata$??0_Container_proxy@std@@QEAA@PEAU_Container_base12@1@@Z DD imagerel $LN3
	DD	imagerel $LN3+85
	DD	imagerel $unwind$??0_Container_proxy@std@@QEAA@PEAU_Container_base12@1@@Z
pdata	ENDS
;	COMDAT pdata
pdata	SEGMENT
$pdata$??0_Container_base12@std@@QEAA@XZ DD imagerel $LN3
	DD	imagerel $LN3+62
	DD	imagerel $unwind$??0_Container_base12@std@@QEAA@XZ
pdata	ENDS
;	COMDAT pdata
pdata	SEGMENT
$pdata$?_Orphan_all@_Container_base12@std@@QEAAXXZ DD imagerel $LN5
	DD	imagerel $LN5+79
	DD	imagerel $unwind$?_Orphan_all@_Container_base12@std@@QEAAXXZ
pdata	ENDS
;	COMDAT pdata
pdata	SEGMENT
$pdata$?_Orphan_all_unlocked_v3@_Container_base12@std@@AEAAXXZ DD imagerel $LN7
	DD	imagerel $LN7+134
	DD	imagerel $unwind$?_Orphan_all_unlocked_v3@_Container_base12@std@@AEAAXXZ
pdata	ENDS
;	COMDAT pdata
pdata	SEGMENT
$pdata$?_Orphan_all_locked_v3@_Container_base12@std@@AEAAXXZ DD imagerel $LN3
	DD	imagerel $LN3+151
	DD	imagerel $unwind$?_Orphan_all_locked_v3@_Container_base12@std@@AEAAXXZ
pdata	ENDS
;	COMDAT pdata
pdata	SEGMENT
$pdata$??$exchange@PEAU_Iterator_base12@std@@$$T@std@@YAPEAU_Iterator_base12@0@AEAPEAU10@$$QEA$$T@Z DD imagerel $LN3
	DD	imagerel $LN3+84
	DD	imagerel $unwind$??$exchange@PEAU_Iterator_base12@std@@$$T@std@@YAPEAU_Iterator_base12@0@AEAPEAU10@$$QEA$$T@Z
pdata	ENDS
;	COMDAT pdata
pdata	SEGMENT
$pdata$??$_Construct_in_place@U_Container_proxy@std@@PEAU_Container_base12@2@@std@@YAXAEAU_Container_proxy@0@$$QEAPEAU_Container_base12@0@@Z DD imagerel $LN5
	DD	imagerel $LN5+141
	DD	imagerel $unwind$??$_Construct_in_place@U_Container_proxy@std@@PEAU_Container_base12@2@@std@@YAXAEAU_Container_proxy@0@$$QEAPEAU_Container_base12@0@@Z
pdata	ENDS
;	COMDAT pdata
pdata	SEGMENT
$pdata$??$_Maklocstr@_W@std@@YAPEA_WPEBDPEA_WAEBU_Cvtvec@@@Z DD imagerel $LN12
	DD	imagerel $LN12+586
	DD	imagerel $unwind$??$_Maklocstr@_W@std@@YAPEA_WPEBDPEA_WAEBU_Cvtvec@@@Z
pdata	ENDS
;	COMDAT pdata
pdata	SEGMENT
$pdata$?_Maklocwcs@std@@YAPEA_WPEB_W@Z DD imagerel $LN4
	DD	imagerel $LN4+142
	DD	imagerel $unwind$?_Maklocwcs@std@@YAPEA_WPEB_W@Z
pdata	ENDS
;	COMDAT pdata
pdata	SEGMENT
$pdata$??$_Maklocstr@D@std@@YAPEADPEBDPEADAEBU_Cvtvec@@@Z DD imagerel $LN7
	DD	imagerel $LN7+200
	DD	imagerel $unwind$??$_Maklocstr@D@std@@YAPEADPEBDPEADAEBU_Cvtvec@@@Z
pdata	ENDS
;	COMDAT pdata
pdata	SEGMENT
$pdata$??$_Getvals@_W@?$time_get@DV?$istreambuf_iterator@DU?$char_traits@D@std@@@std@@@std@@IEAAX_WAEBV_Locinfo@1@@Z DD imagerel $LN5
	DD	imagerel $LN5+356
	DD	imagerel $unwind$??$_Getvals@_W@?$time_get@DV?$istreambuf_iterator@DU?$char_traits@D@std@@@std@@@std@@IEAAX_WAEBV_Locinfo@1@@Z
pdata	ENDS
;	COMDAT pdata
pdata	SEGMENT
$pdata$??$_Getvals@_W@?$time_get@_WV?$istreambuf_iterator@_WU?$char_traits@_W@std@@@std@@@std@@IEAAX_WAEBV_Locinfo@1@@Z DD imagerel $LN5
	DD	imagerel $LN5+356
	DD	imagerel $unwind$??$_Getvals@_W@?$time_get@_WV?$istreambuf_iterator@_WU?$char_traits@_W@std@@@std@@@std@@IEAAX_WAEBV_Locinfo@1@@Z
pdata	ENDS
;	COMDAT pdata
pdata	SEGMENT
$pdata$??1thread@std@@QEAA@XZ DD imagerel $LN4
	DD	imagerel $LN4+66
	DD	imagerel $unwind$??1thread@std@@QEAA@XZ
pdata	ENDS
;	COMDAT pdata
pdata	SEGMENT
$pdata$??0thread@std@@QEAA@$$QEAV01@@Z DD imagerel $LN3
	DD	imagerel $LN3+120
	DD	imagerel $unwind$??0thread@std@@QEAA@$$QEAV01@@Z
pdata	ENDS
;	COMDAT pdata
pdata	SEGMENT
$pdata$?joinable@thread@std@@QEBA_NXZ DD imagerel $LN5
	DD	imagerel $LN5+83
	DD	imagerel $unwind$?joinable@thread@std@@QEBA_NXZ
pdata	ENDS
;	COMDAT pdata
pdata	SEGMENT
$pdata$?join@thread@std@@QEAAXXZ DD imagerel $LN6
	DD	imagerel $LN6+194
	DD	imagerel $unwind$?join@thread@std@@QEAAXXZ
pdata	ENDS
;	COMDAT pdata
pdata	SEGMENT
$pdata$??_Gthread@std@@QEAAPEAXI@Z DD imagerel $LN4
	DD	imagerel $LN4+82
	DD	imagerel $unwind$??_Gthread@std@@QEAAPEAXI@Z
pdata	ENDS
;	COMDAT pdata
pdata	SEGMENT
$pdata$??$exchange@U_Thrd_t@@U1@@std@@YA?AU_Thrd_t@@AEAU1@$$QEAU1@@Z DD imagerel $LN3
	DD	imagerel $LN3+149
	DD	imagerel $unwind$??$exchange@U_Thrd_t@@U1@@std@@YA?AU_Thrd_t@@AEAU1@$$QEAU1@@Z
pdata	ENDS
;	COMDAT pdata
pdata	SEGMENT
$pdata$??0_Mutex_base@std@@QEAA@H@Z DD imagerel $LN3
	DD	imagerel $LN3+189
	DD	imagerel $unwind$??0_Mutex_base@std@@QEAA@H@Z
pdata	ENDS
;	COMDAT pdata
pdata	SEGMENT
$pdata$??1_Mutex_base@std@@QEAA@XZ DD imagerel $LN3
	DD	imagerel $LN3+61
	DD	imagerel $unwind$??1_Mutex_base@std@@QEAA@XZ
pdata	ENDS
;	COMDAT pdata
pdata	SEGMENT
$pdata$?lock@_Mutex_base@std@@QEAAXXZ DD imagerel $LN5
	DD	imagerel $LN5+104
	DD	imagerel $unwind$?lock@_Mutex_base@std@@QEAAXXZ
pdata	ENDS
;	COMDAT pdata
pdata	SEGMENT
$pdata$?unlock@_Mutex_base@std@@QEAAXXZ DD imagerel $LN3
	DD	imagerel $LN3+61
	DD	imagerel $unwind$?unlock@_Mutex_base@std@@QEAAXXZ
pdata	ENDS
;	COMDAT pdata
pdata	SEGMENT
$pdata$?_Verify_ownership_levels@_Mutex_base@std@@IEAA_NXZ DD imagerel $LN4
	DD	imagerel $LN4+85
	DD	imagerel $unwind$?_Verify_ownership_levels@_Mutex_base@std@@IEAA_NXZ
pdata	ENDS
;	COMDAT pdata
pdata	SEGMENT
$pdata$?_Mymtx@_Mutex_base@std@@AEAAPEAU_Mtx_internal_imp_t@@XZ DD imagerel $LN3
	DD	imagerel $LN3+48
	DD	imagerel $unwind$?_Mymtx@_Mutex_base@std@@AEAAPEAU_Mtx_internal_imp_t@@XZ
pdata	ENDS
;	COMDAT pdata
pdata	SEGMENT
$pdata$??0mutex@std@@QEAA@XZ DD imagerel $LN3
	DD	imagerel $LN3+62
	DD	imagerel $unwind$??0mutex@std@@QEAA@XZ
pdata	ENDS
;	COMDAT pdata
pdata	SEGMENT
$pdata$??1mutex@std@@QEAA@XZ DD imagerel $LN3
	DD	imagerel $LN3+41
	DD	imagerel $unwind$??1mutex@std@@QEAA@XZ
pdata	ENDS
;	COMDAT pdata
pdata	SEGMENT
$pdata$??0condition_variable@std@@QEAA@XZ DD imagerel $LN3
	DD	imagerel $LN3+68
	DD	imagerel $unwind$??0condition_variable@std@@QEAA@XZ
pdata	ENDS
;	COMDAT pdata
pdata	SEGMENT
$pdata$??1condition_variable@std@@QEAA@XZ DD imagerel $LN3
	DD	imagerel $LN3+61
	DD	imagerel $unwind$??1condition_variable@std@@QEAA@XZ
pdata	ENDS
;	COMDAT pdata
pdata	SEGMENT
$pdata$?notify_one@condition_variable@std@@QEAAXXZ DD imagerel $LN3
	DD	imagerel $LN3+61
	DD	imagerel $unwind$?notify_one@condition_variable@std@@QEAAXXZ
pdata	ENDS
;	COMDAT pdata
pdata	SEGMENT
$pdata$?notify_all@condition_variable@std@@QEAAXXZ DD imagerel $LN3
	DD	imagerel $LN3+61
	DD	imagerel $unwind$?notify_all@condition_variable@std@@QEAAXXZ
pdata	ENDS
;	COMDAT pdata
pdata	SEGMENT
$pdata$?wait@condition_variable@std@@QEAAXAEAV?$unique_lock@Vmutex@std@@@2@@Z DD imagerel $LN3
	DD	imagerel $LN3+111
	DD	imagerel $unwind$?wait@condition_variable@std@@QEAAXAEAV?$unique_lock@Vmutex@std@@@2@@Z
pdata	ENDS
;	COMDAT pdata
pdata	SEGMENT
$pdata$?_Mycnd@condition_variable@std@@AEAAPEAU_Cnd_internal_imp_t@@XZ DD imagerel $LN3
	DD	imagerel $LN3+48
	DD	imagerel $unwind$?_Mycnd@condition_variable@std@@AEAAPEAU_Cnd_internal_imp_t@@XZ
pdata	ENDS
;	COMDAT pdata
pdata	SEGMENT
$pdata$??0?$unique_lock@Vmutex@std@@@std@@QEAA@AEAVmutex@1@@Z DD imagerel $LN3
	DD	imagerel $LN3+112
	DD	imagerel $unwind$??0?$unique_lock@Vmutex@std@@@std@@QEAA@AEAVmutex@1@@Z
pdata	ENDS
;	COMDAT pdata
pdata	SEGMENT
$pdata$??1?$unique_lock@Vmutex@std@@@std@@QEAA@XZ DD imagerel $LN4
	DD	imagerel $LN4+71
	DD	imagerel $unwind$??1?$unique_lock@Vmutex@std@@@std@@QEAA@XZ
pdata	ENDS
;	COMDAT pdata
pdata	SEGMENT
$pdata$?mutex@?$unique_lock@Vmutex@std@@@std@@QEBAPEAV02@XZ DD imagerel $LN3
	DD	imagerel $LN3+51
	DD	imagerel $unwind$?mutex@?$unique_lock@Vmutex@std@@@std@@QEBAPEAV02@XZ
pdata	ENDS
;	COMDAT pdata
pdata	SEGMENT
$pdata$?__autoclassinit2@?$unique_lock@Vmutex@std@@@std@@QEAAX_K@Z DD imagerel $LN3
	DD	imagerel $LN3+50
	DD	imagerel $unwind$?__autoclassinit2@?$unique_lock@Vmutex@std@@@std@@QEAAX_K@Z
pdata	ENDS
;	COMDAT pdata
pdata	SEGMENT
$pdata$??0thread_pool@@QEAA@_K@Z DD imagerel $LN10
	DD	imagerel $LN10+229
	DD	imagerel $unwind$??0thread_pool@@QEAA@_K@Z
pdata	ENDS
;	COMDAT pdata
pdata	SEGMENT
$pdata$?dtor$0@?0???0thread_pool@@QEAA@_K@Z@4HA DD imagerel ?dtor$0@?0???0thread_pool@@QEAA@_K@Z@4HA
	DD	imagerel ?dtor$0@?0???0thread_pool@@QEAA@_K@Z@4HA+39
	DD	imagerel $unwind$?dtor$0@?0???0thread_pool@@QEAA@_K@Z@4HA
pdata	ENDS
;	COMDAT pdata
pdata	SEGMENT
$pdata$?dtor$1@?0???0thread_pool@@QEAA@_K@Z@4HA DD imagerel ?dtor$1@?0???0thread_pool@@QEAA@_K@Z@4HA
	DD	imagerel ?dtor$1@?0???0thread_pool@@QEAA@_K@Z@4HA+43
	DD	imagerel $unwind$?dtor$1@?0???0thread_pool@@QEAA@_K@Z@4HA
pdata	ENDS
;	COMDAT pdata
pdata	SEGMENT
$pdata$?dtor$2@?0???0thread_pool@@QEAA@_K@Z@4HA DD imagerel ?dtor$2@?0???0thread_pool@@QEAA@_K@Z@4HA
	DD	imagerel ?dtor$2@?0???0thread_pool@@QEAA@_K@Z@4HA+43
	DD	imagerel $unwind$?dtor$2@?0???0thread_pool@@QEAA@_K@Z@4HA
pdata	ENDS
;	COMDAT pdata
pdata	SEGMENT
$pdata$?dtor$3@?0???0thread_pool@@QEAA@_K@Z@4HA DD imagerel ?dtor$3@?0???0thread_pool@@QEAA@_K@Z@4HA
	DD	imagerel ?dtor$3@?0???0thread_pool@@QEAA@_K@Z@4HA+46
	DD	imagerel $unwind$?dtor$3@?0???0thread_pool@@QEAA@_K@Z@4HA
pdata	ENDS
;	COMDAT pdata
pdata	SEGMENT
$pdata$??1thread_pool@@QEAA@XZ DD imagerel $LN7
	DD	imagerel $LN7+375
	DD	imagerel $unwind$??1thread_pool@@QEAA@XZ
pdata	ENDS
;	COMDAT pdata
pdata	SEGMENT
$pdata$?enqueue@thread_pool@@QEAAXV?$function@$$A6AXXZ@std@@@Z DD imagerel $LN5
	DD	imagerel $LN5+238
	DD	imagerel $unwind$?enqueue@thread_pool@@QEAAXV?$function@$$A6AXXZ@std@@@Z
pdata	ENDS
;	COMDAT pdata
pdata	SEGMENT
$pdata$?dtor$0@?0??enqueue@thread_pool@@QEAAXV?$function@$$A6AXXZ@std@@@Z@4HA DD imagerel ?dtor$0@?0??enqueue@thread_pool@@QEAAXV?$function@$$A6AXXZ@std@@@Z@4HA
	DD	imagerel ?dtor$0@?0??enqueue@thread_pool@@QEAAXV?$function@$$A6AXXZ@std@@@Z@4HA+39
	DD	imagerel $unwind$?dtor$0@?0??enqueue@thread_pool@@QEAAXV?$function@$$A6AXXZ@std@@@Z@4HA
pdata	ENDS
;	COMDAT pdata
pdata	SEGMENT
$pdata$?dtor$1@?0??enqueue@thread_pool@@QEAAXV?$function@$$A6AXXZ@std@@@Z@4HA DD imagerel ?dtor$1@?0??enqueue@thread_pool@@QEAAXV?$function@$$A6AXXZ@std@@@Z@4HA
	DD	imagerel ?dtor$1@?0??enqueue@thread_pool@@QEAAXV?$function@$$A6AXXZ@std@@@Z@4HA+36
	DD	imagerel $unwind$?dtor$1@?0??enqueue@thread_pool@@QEAAXV?$function@$$A6AXXZ@std@@@Z@4HA
pdata	ENDS
;	COMDAT pdata
pdata	SEGMENT
$pdata$??0?$allocator@Vthread@std@@@std@@QEAA@XZ DD imagerel $LN3
	DD	imagerel $LN3+48
	DD	imagerel $unwind$??0?$allocator@Vthread@std@@@std@@QEAA@XZ
pdata	ENDS
;	COMDAT pdata
pdata	SEGMENT
$pdata$?deallocate@?$allocator@Vthread@std@@@std@@QEAAXQEAVthread@2@_K@Z DD imagerel $LN13
	DD	imagerel $LN13+213
	DD	imagerel $unwind$?deallocate@?$allocator@Vthread@std@@@std@@QEAAXQEAVthread@2@_K@Z
pdata	ENDS
;	COMDAT pdata
pdata	SEGMENT
$pdata$?allocate@?$allocator@Vthread@std@@@std@@QEAAPEAVthread@2@_K@Z DD imagerel $LN3
	DD	imagerel $LN3+66
	DD	imagerel $unwind$?allocate@?$allocator@Vthread@std@@@std@@QEAAPEAVthread@2@_K@Z
pdata	ENDS
;	COMDAT pdata
pdata	SEGMENT
$pdata$?max_size@?$_Default_allocator_traits@V?$allocator@Vthread@std@@@std@@@std@@SA_KAEBV?$allocator@Vthread@std@@@2@@Z DD imagerel $LN3
	DD	imagerel $LN3+51
	DD	imagerel $unwind$?max_size@?$_Default_allocator_traits@V?$allocator@Vthread@std@@@std@@@std@@SA_KAEBV?$allocator@Vthread@std@@@2@@Z
pdata	ENDS
;	COMDAT pdata
pdata	SEGMENT
$pdata$??0?$vector@Vthread@std@@V?$allocator@Vthread@std@@@2@@std@@QEAA@XZ DD imagerel $LN3
	DD	imagerel $LN3+137
	DD	imagerel $unwind$??0?$vector@Vthread@std@@V?$allocator@Vthread@std@@@2@@std@@QEAA@XZ
pdata	ENDS
;	COMDAT pdata
pdata	SEGMENT
$pdata$??1?$vector@Vthread@std@@V?$allocator@Vthread@std@@@2@@std@@QEAA@XZ DD imagerel $LN3
	DD	imagerel $LN3+203
	DD	imagerel $unwind$??1?$vector@Vthread@std@@V?$allocator@Vthread@std@@@2@@std@@QEAA@XZ
pdata	ENDS
;	COMDAT pdata
pdata	SEGMENT
$pdata$?_Unchecked_begin@?$vector@Vthread@std@@V?$allocator@Vthread@std@@@2@@std@@QEAAPEAVthread@2@XZ DD imagerel $LN3
	DD	imagerel $LN3+52
	DD	imagerel $unwind$?_Unchecked_begin@?$vector@Vthread@std@@V?$allocator@Vthread@std@@@2@@std@@QEAAPEAVthread@2@XZ
pdata	ENDS
;	COMDAT pdata
pdata	SEGMENT
$pdata$?_Unchecked_end@?$vector@Vthread@std@@V?$allocator@Vthread@std@@@2@@std@@QEAAPEAVthread@2@XZ DD imagerel $LN3
	DD	imagerel $LN3+52
	DD	imagerel $unwind$?_Unchecked_end@?$vector@Vthread@std@@V?$allocator@Vthread@std@@@2@@std@@QEAAPEAVthread@2@XZ
pdata	ENDS
;	COMDAT pdata
pdata	SEGMENT
$pdata$?max_size@?$vector@Vthread@std@@V?$allocator@Vthread@std@@@2@@std@@QEBA_KXZ DD imagerel $LN3
	DD	imagerel $LN3+102
	DD	imagerel $unwind$?max_size@?$vector@Vthread@std@@V?$allocator@Vthread@std@@@2@@std@@QEBA_KXZ
pdata	ENDS
;	COMDAT pdata
pdata	SEGMENT
$pdata$?capacity@?$vector@Vthread@std@@V?$allocator@Vthread@std@@@2@@std@@QEBA_KXZ DD imagerel $LN3
	DD	imagerel $LN3+75
	DD	imagerel $unwind$?capacity@?$vector@Vthread@std@@V?$allocator@Vthread@std@@@2@@std@@QEBA_KXZ
pdata	ENDS
;	COMDAT pdata
pdata	SEGMENT
$pdata$?_Calculate_growth@?$vector@Vthread@std@@V?$allocator@Vthread@std@@@2@@std@@AEBA_K_K@Z DD imagerel $LN5
	DD	imagerel $LN5+168
	DD	imagerel $unwind$?_Calculate_growth@?$vector@Vthread@std@@V?$allocator@Vthread@std@@@2@@std@@AEBA_K_K@Z
pdata	ENDS
;	COMDAT pdata
pdata	SEGMENT
$pdata$?_Change_array@?$vector@Vthread@std@@V?$allocator@Vthread@std@@@2@@std@@AEAAXQEAVthread@2@_K1@Z DD imagerel $LN4
	DD	imagerel $LN4+280
	DD	imagerel $unwind$?_Change_array@?$vector@Vthread@std@@V?$allocator@Vthread@std@@@2@@std@@AEAAXQEAVthread@2@_K1@Z
pdata	ENDS
;	COMDAT pdata
pdata	SEGMENT
$pdata$?_Tidy@?$vector@Vthread@std@@V?$allocator@Vthread@std@@@2@@std@@AEAAXXZ DD imagerel $LN4
	DD	imagerel $LN4+228
	DD	imagerel $unwind$?_Tidy@?$vector@Vthread@std@@V?$allocator@Vthread@std@@@2@@std@@AEAAXXZ
pdata	ENDS
;	COMDAT pdata
pdata	SEGMENT
$pdata$?_Xlength@?$vector@Vthread@std@@V?$allocator@Vthread@std@@@2@@std@@CAXXZ DD imagerel $LN3
	DD	imagerel $LN3+49
	DD	imagerel $unwind$?_Xlength@?$vector@Vthread@std@@V?$allocator@Vthread@std@@@2@@std@@CAXXZ
pdata	ENDS
;	COMDAT pdata
pdata	SEGMENT
$pdata$?_Orphan_range_unlocked@?$vector@Vthread@std@@V?$allocator@Vthread@std@@@2@@std@@AEBAXPEAVthread@2@0@Z DD imagerel $LN8
	DD	imagerel $LN8+173
	DD	imagerel $unwind$?_Orphan_range_unlocked@?$vector@Vthread@std@@V?$allocator@Vthread@std@@@2@@std@@AEBAXPEAVthread@2@0@Z
pdata	ENDS
;	COMDAT pdata
pdata	SEGMENT
$pdata$?_Orphan_range_locked@?$vector@Vthread@std@@V?$allocator@Vthread@std@@@2@@std@@AEBAXPEAVthread@2@0@Z DD imagerel $LN4
	DD	imagerel $LN4+177
	DD	imagerel $unwind$?_Orphan_range_locked@?$vector@Vthread@std@@V?$allocator@Vthread@std@@@2@@std@@AEBAXPEAVthread@2@0@Z
pdata	ENDS
;	COMDAT pdata
pdata	SEGMENT
$pdata$?dtor$0@?0??_Orphan_range_locked@?$vector@Vthread@std@@V?$allocator@Vthread@std@@@2@@std@@AEBAXPEAVthread@2@0@Z@4HA DD imagerel ?dtor$0@?0??_Orphan_range_locked@?$vector@Vthread@std@@V?$allocator@Vthread@std@@@2@@std@@AEBAXPEAVthread@2@0@Z@4HA
	DD	imagerel ?dtor$0@?0??_Orphan_range_locked@?$vector@Vthread@std@@V?$allocator@Vthread@std@@@2@@std@@AEBAXPEAVthread@2@0@Z@4HA+37
	DD	imagerel $unwind$?dtor$0@?0??_Orphan_range_locked@?$vector@Vthread@std@@V?$allocator@Vthread@std@@@2@@std@@AEBAXPEAVthread@2@0@Z@4HA
pdata	ENDS
;	COMDAT pdata
pdata	SEGMENT
$pdata$?_Orphan_range@?$vector@Vthread@std@@V?$allocator@Vthread@std@@@2@@std@@AEBAXPEAVthread@2@0@Z DD imagerel $LN5
	DD	imagerel $LN5+117
	DD	imagerel $unwind$?_Orphan_range@?$vector@Vthread@std@@V?$allocator@Vthread@std@@@2@@std@@AEBAXPEAVthread@2@0@Z
pdata	ENDS
;	COMDAT pdata
pdata	SEGMENT
$pdata$?_Getal@?$vector@Vthread@std@@V?$allocator@Vthread@std@@@2@@std@@AEAAAEAV?$allocator@Vthread@std@@@2@XZ DD imagerel $LN3
	DD	imagerel $LN3+56
	DD	imagerel $unwind$?_Getal@?$vector@Vthread@std@@V?$allocator@Vthread@std@@@2@@std@@AEAAAEAV?$allocator@Vthread@std@@@2@XZ
pdata	ENDS
;	COMDAT pdata
pdata	SEGMENT
$pdata$?_Getal@?$vector@Vthread@std@@V?$allocator@Vthread@std@@@2@@std@@AEBAAEBV?$allocator@Vthread@std@@@2@XZ DD imagerel $LN3
	DD	imagerel $LN3+56
	DD	imagerel $unwind$?_Getal@?$vector@Vthread@std@@V?$allocator@Vthread@std@@@2@@std@@AEBAAEBV?$allocator@Vthread@std@@@2@XZ
pdata	ENDS
;	COMDAT pdata
pdata	SEGMENT
$pdata$??0?$_Vector_val@U?$_Simple_types@Vthread@std@@@std@@@std@@QEAA@XZ DD imagerel $LN3
	DD	imagerel $LN3+105
	DD	imagerel $unwind$??0?$_Vector_val@U?$_Simple_types@Vthread@std@@@std@@@std@@QEAA@XZ
pdata	ENDS
;	COMDAT pdata
pdata	SEGMENT
$pdata$?_Get_first@?$_Compressed_pair@V?$allocator@Vthread@std@@@std@@V?$_Vector_val@U?$_Simple_types@Vthread@std@@@std@@@2@$00@std@@QEAAAEAV?$allocator@Vthread@std@@@2@XZ DD imagerel $LN3
	DD	imagerel $LN3+48
	DD	imagerel $unwind$?_Get_first@?$_Compressed_pair@V?$allocator@Vthread@std@@@std@@V?$_Vector_val@U?$_Simple_types@Vthread@std@@@std@@@2@$00@std@@QEAAAEAV?$allocator@Vthread@std@@@2@XZ
pdata	ENDS
;	COMDAT pdata
pdata	SEGMENT
$pdata$?_Get_first@?$_Compressed_pair@V?$allocator@Vthread@std@@@std@@V?$_Vector_val@U?$_Simple_types@Vthread@std@@@std@@@2@$00@std@@QEBAAEBV?$allocator@Vthread@std@@@2@XZ DD imagerel $LN3
	DD	imagerel $LN3+48
	DD	imagerel $unwind$?_Get_first@?$_Compressed_pair@V?$allocator@Vthread@std@@@std@@V?$_Vector_val@U?$_Simple_types@Vthread@std@@@std@@@2@$00@std@@QEBAAEBV?$allocator@Vthread@std@@@2@XZ
pdata	ENDS
;	COMDAT pdata
pdata	SEGMENT
$pdata$??0?$allocator@V?$function@$$A6AXXZ@std@@@std@@QEAA@XZ DD imagerel $LN3
	DD	imagerel $LN3+48
	DD	imagerel $unwind$??0?$allocator@V?$function@$$A6AXXZ@std@@@std@@QEAA@XZ
pdata	ENDS
;	COMDAT pdata
pdata	SEGMENT
$pdata$?deallocate@?$allocator@V?$function@$$A6AXXZ@std@@@std@@QEAAXQEAV?$function@$$A6AXXZ@2@_K@Z DD imagerel $LN13
	DD	imagerel $LN13+213
	DD	imagerel $unwind$?deallocate@?$allocator@V?$function@$$A6AXXZ@std@@@std@@QEAAXQEAV?$function@$$A6AXXZ@2@_K@Z
pdata	ENDS
;	COMDAT pdata
pdata	SEGMENT
$pdata$?allocate@?$allocator@V?$function@$$A6AXXZ@std@@@std@@QEAAPEAV?$function@$$A6AXXZ@2@_K@Z DD imagerel $LN3
	DD	imagerel $LN3+66
	DD	imagerel $unwind$?allocate@?$allocator@V?$function@$$A6AXXZ@std@@@std@@QEAAPEAV?$function@$$A6AXXZ@2@_K@Z
pdata	ENDS
;	COMDAT pdata
pdata	SEGMENT
$pdata$?max_size@?$_Default_allocator_traits@V?$allocator@V?$function@$$A6AXXZ@std@@@std@@@std@@SA_KAEBV?$allocator@V?$function@$$A6AXXZ@std@@@2@@Z DD imagerel $LN3
	DD	imagerel $LN3+51
	DD	imagerel $unwind$?max_size@?$_Default_allocator_traits@V?$allocator@V?$function@$$A6AXXZ@std@@@std@@@std@@SA_KAEBV?$allocator@V?$function@$$A6AXXZ@std@@@2@@Z
pdata	ENDS
;	COMDAT pdata
pdata	SEGMENT
$pdata$?deallocate@?$allocator@PEAV?$function@$$A6AXXZ@std@@@std@@QEAAXQEAPEAV?$function@$$A6AXXZ@2@_K@Z DD imagerel $LN13
	DD	imagerel $LN13+216
	DD	imagerel $unwind$?deallocate@?$allocator@PEAV?$function@$$A6AXXZ@std@@@std@@QEAAXQEAPEAV?$function@$$A6AXXZ@2@_K@Z
pdata	ENDS
;	COMDAT pdata
pdata	SEGMENT
$pdata$?allocate@?$allocator@PEAV?$function@$$A6AXXZ@std@@@std@@QEAAPEAPEAV?$function@$$A6AXXZ@2@_K@Z DD imagerel $LN3
	DD	imagerel $LN3+66
	DD	imagerel $unwind$?allocate@?$allocator@PEAV?$function@$$A6AXXZ@std@@@std@@QEAAPEAPEAV?$function@$$A6AXXZ@2@_K@Z
pdata	ENDS
;	COMDAT pdata
pdata	SEGMENT
$pdata$??0?$_Func_class@X$$V@std@@QEAA@XZ DD imagerel $LN3
	DD	imagerel $LN3+62
	DD	imagerel $unwind$??0?$_Func_class@X$$V@std@@QEAA@XZ
pdata	ENDS
;	COMDAT pdata
pdata	SEGMENT
$pdata$??R?$_Func_class@X$$V@std@@QEBAXXZ DD imagerel $LN4
	DD	imagerel $LN4+95
	DD	imagerel $unwind$??R?$_Func_class@X$$V@std@@QEBAXXZ
pdata	ENDS
;	COMDAT pdata
pdata	SEGMENT
$pdata$??1?$_Func_class@X$$V@std@@QEAA@XZ DD imagerel $LN3
	DD	imagerel $LN3+53
	DD	imagerel $unwind$??1?$_Func_class@X$$V@std@@QEAA@XZ
pdata	ENDS
;	COMDAT pdata
pdata	SEGMENT
$pdata$?_Empty@?$_Func_class@X$$V@std@@IEBA_NXZ DD imagerel $LN5
	DD	imagerel $LN5+87
	DD	imagerel $unwind$?_Empty@?$_Func_class@X$$V@std@@IEBA_NXZ
pdata	ENDS
;	COMDAT pdata
pdata	SEGMENT
$pdata$?_Reset_copy@?$_Func_class@X$$V@std@@IEAAXAEBV12@@Z DD imagerel $LN4
	DD	imagerel $LN4+142
	DD	imagerel $unwind$?_Reset_copy@?$_Func_class@X$$V@std@@IEAAXAEBV12@@Z
pdata	ENDS
;	COMDAT pdata
pdata	SEGMENT
$pdata$?_Reset_move@?$_Func_class@X$$V@std@@IEAAX$$QEAV12@@Z DD imagerel $LN6
	DD	imagerel $LN6+221
	DD	imagerel $unwind$?_Reset_move@?$_Func_class@X$$V@std@@IEAAX$$QEAV12@@Z
pdata	ENDS
;	COMDAT pdata
pdata	SEGMENT
$pdata$?_Tidy@?$_Func_class@X$$V@std@@IEAAXXZ DD imagerel $LN6
	DD	imagerel $LN6+169
	DD	imagerel $unwind$?_Tidy@?$_Func_class@X$$V@std@@IEAAXXZ
pdata	ENDS
;	COMDAT pdata
pdata	SEGMENT
$pdata$?_Local@?$_Func_class@X$$V@std@@AEBA_NXZ DD imagerel $LN5
	DD	imagerel $LN5+94
	DD	imagerel $unwind$?_Local@?$_Func_class@X$$V@std@@AEBA_NXZ
pdata	ENDS
;	COMDAT pdata
pdata	SEGMENT
$pdata$?_Getimpl@?$_Func_class@X$$V@std@@AEBAPEAV?$_Func_base@X$$V@2@XZ DD imagerel $LN3
	DD	imagerel $LN3+61
	DD	imagerel $unwind$?_Getimpl@?$_Func_class@X$$V@std@@AEBAPEAV?$_Func_base@X$$V@2@XZ
pdata	ENDS
;	COMDAT pdata
pdata	SEGMENT
$pdata$?_Set@?$_Func_class@X$$V@std@@AEAAXPEAV?$_Func_base@X$$V@2@@Z DD imagerel $LN3
	DD	imagerel $LN3+73
	DD	imagerel $unwind$?_Set@?$_Func_class@X$$V@std@@AEAAXPEAV?$_Func_base@X$$V@2@@Z
pdata	ENDS
;	COMDAT pdata
pdata	SEGMENT
$pdata$??0?$function@$$A6AXXZ@std@@QEAA@XZ DD imagerel $LN3
	DD	imagerel $LN3+60
	DD	imagerel $unwind$??0?$function@$$A6AXXZ@std@@QEAA@XZ
pdata	ENDS
;	COMDAT pdata
pdata	SEGMENT
$pdata$??0?$function@$$A6AXXZ@std@@QEAA@AEBV01@@Z DD imagerel $LN4
	DD	imagerel $LN4+86
	DD	imagerel $unwind$??0?$function@$$A6AXXZ@std@@QEAA@AEBV01@@Z
pdata	ENDS
;	COMDAT pdata
pdata	SEGMENT
$pdata$?dtor$0@?0???0?$function@$$A6AXXZ@std@@QEAA@AEBV01@@Z@4HA DD imagerel ?dtor$0@?0???0?$function@$$A6AXXZ@std@@QEAA@AEBV01@@Z@4HA
	DD	imagerel ?dtor$0@?0???0?$function@$$A6AXXZ@std@@QEAA@AEBV01@@Z@4HA+39
	DD	imagerel $unwind$?dtor$0@?0???0?$function@$$A6AXXZ@std@@QEAA@AEBV01@@Z@4HA
pdata	ENDS
;	COMDAT pdata
pdata	SEGMENT
$pdata$??4?$function@$$A6AXXZ@std@@QEAAAEAV01@$$QEAV01@@Z DD imagerel $LN4
	DD	imagerel $LN4+105
	DD	imagerel $unwind$??4?$function@$$A6AXXZ@std@@QEAAAEAV01@$$QEAV01@@Z
pdata	ENDS
;	COMDAT pdata
pdata	SEGMENT
$pdata$??1?$function@$$A6AXXZ@std@@QEAA@XZ DD imagerel $LN3
	DD	imagerel $LN3+41
	DD	imagerel $unwind$??1?$function@$$A6AXXZ@std@@QEAA@XZ
pdata	ENDS
;	COMDAT pdata
pdata	SEGMENT
$pdata$??_G?$function@$$A6AXXZ@std@@QEAAPEAXI@Z DD imagerel $LN4
	DD	imagerel $LN4+82
	DD	imagerel $unwind$??_G?$function@$$A6AXXZ@std@@QEAAPEAXI@Z
pdata	ENDS
;	COMDAT pdata
pdata	SEGMENT
$pdata$??0?$_Deque_val@U?$_Deque_simple_types@V?$function@$$A6AXXZ@std@@@std@@@std@@QEAA@XZ DD imagerel $LN3
	DD	imagerel $LN3+120
	DD	imagerel $unwind$??0?$_Deque_val@U?$_Deque_simple_types@V?$function@$$A6AXXZ@std@@@std@@@std@@QEAA@XZ
pdata	ENDS
;	COMDAT pdata
pdata	SEGMENT
$pdata$?_Getblock@?$_Deque_val@U?$_Deque_simple_types@V?$function@$$A6AXXZ@std@@@std@@@std@@QEBA_K_K@Z DD imagerel $LN3
	DD	imagerel $LN3+73
	DD	imagerel $unwind$?_Getblock@?$_Deque_val@U?$_Deque_simple_types@V?$function@$$A6AXXZ@std@@@std@@@std@@QEBA_K_K@Z
pdata	ENDS
;	COMDAT pdata
pdata	SEGMENT
$pdata$??0?$deque@V?$function@$$A6AXXZ@std@@V?$allocator@V?$function@$$A6AXXZ@std@@@2@@std@@QEAA@XZ DD imagerel $LN3
	DD	imagerel $LN3+153
	DD	imagerel $unwind$??0?$deque@V?$function@$$A6AXXZ@std@@V?$allocator@V?$function@$$A6AXXZ@std@@@2@@std@@QEAA@XZ
pdata	ENDS
;	COMDAT pdata
pdata	SEGMENT
$pdata$??1?$deque@V?$function@$$A6AXXZ@std@@V?$allocator@V?$function@$$A6AXXZ@std@@@2@@std@@QEAA@XZ DD imagerel $LN3
	DD	imagerel $LN3+200
	DD	imagerel $unwind$??1?$deque@V?$function@$$A6AXXZ@std@@V?$allocator@V?$function@$$A6AXXZ@std@@@2@@std@@QEAA@XZ
pdata	ENDS
;	COMDAT pdata
pdata	SEGMENT
$pdata$?_Unchecked_begin@?$deque@V?$function@$$A6AXXZ@std@@V?$allocator@V?$function@$$A6AXXZ@std@@@2@@std@@QEAA?AV?$_Deque_unchecked_iterator@V?$_Deque_val@U?$_Deque_simple_types@V?$function@$$A6AXXZ@std@@@std@@@std@@@2@XZ DD imagerel $LN3
	DD	imagerel $LN3+128
	DD	imagerel $unwind$?_Unchecked_begin@?$deque@V?$function@$$A6AXXZ@std@@V?$allocator@V?$function@$$A6AXXZ@std@@@2@@std@@QEAA?AV?$_Deque_unchecked_iterator@V?$_Deque_val@U?$_Deque_simple_types@V?$function@$$A6AXXZ@std@@@std@@@std@@@2@XZ
pdata	ENDS
;	COMDAT pdata
pdata	SEGMENT
$pdata$?max_size@?$deque@V?$function@$$A6AXXZ@std@@V?$allocator@V?$function@$$A6AXXZ@std@@@2@@std@@QEBA_KXZ DD imagerel $LN3
	DD	imagerel $LN3+102
	DD	imagerel $unwind$?max_size@?$deque@V?$function@$$A6AXXZ@std@@V?$allocator@V?$function@$$A6AXXZ@std@@@2@@std@@QEBA_KXZ
pdata	ENDS
;	COMDAT pdata
pdata	SEGMENT
$pdata$?empty@?$deque@V?$function@$$A6AXXZ@std@@V?$allocator@V?$function@$$A6AXXZ@std@@@2@@std@@QEBA_NXZ DD imagerel $LN5
	DD	imagerel $LN5+88
	DD	imagerel $unwind$?empty@?$deque@V?$function@$$A6AXXZ@std@@V?$allocator@V?$function@$$A6AXXZ@std@@@2@@std@@QEBA_NXZ
pdata	ENDS
;	COMDAT pdata
pdata	SEGMENT
$pdata$?front@?$deque@V?$function@$$A6AXXZ@std@@V?$allocator@V?$function@$$A6AXXZ@std@@@2@@std@@QEAAAEAV?$function@$$A6AXXZ@2@XZ DD imagerel $LN12
	DD	imagerel $LN12+206
	DD	imagerel $unwind$?front@?$deque@V?$function@$$A6AXXZ@std@@V?$allocator@V?$function@$$A6AXXZ@std@@@2@@std@@QEAAAEAV?$function@$$A6AXXZ@2@XZ
pdata	ENDS
;	COMDAT pdata
pdata	SEGMENT
$pdata$?pop_front@?$deque@V?$function@$$A6AXXZ@std@@V?$allocator@V?$function@$$A6AXXZ@std@@@2@@std@@QEAAXXZ DD imagerel $LN11
	DD	imagerel $LN11+456
	DD	imagerel $unwind$?pop_front@?$deque@V?$function@$$A6AXXZ@std@@V?$allocator@V?$function@$$A6AXXZ@std@@@2@@std@@QEAAXXZ
pdata	ENDS
;	COMDAT pdata
pdata	SEGMENT
$pdata$?push_back@?$deque@V?$function@$$A6AXXZ@std@@V?$allocator@V?$function@$$A6AXXZ@std@@@2@@std@@QEAAXAEBV?$function@$$A6AXXZ@2@@Z DD imagerel $LN3
	DD	imagerel $LN3+77
	DD	imagerel $unwind$?push_back@?$deque@V?$function@$$A6AXXZ@std@@V?$allocator@V?$function@$$A6AXXZ@std@@@2@@std@@QEAAXAEBV?$function@$$A6AXXZ@2@@Z
pdata	ENDS
;	COMDAT pdata
pdata	SEGMENT
$pdata$?pop_back@?$deque@V?$function@$$A6AXXZ@std@@V?$allocator@V?$function@$$A6AXXZ@std@@@2@@std@@QEAAXXZ DD imagerel $LN10
	DD	imagerel $LN10+420
	DD	imagerel $unwind$?pop_back@?$deque@V?$function@$$A6AXXZ@std@@V?$allocator@V?$function@$$A6AXXZ@std@@@2@@std@@QEAAXXZ
pdata	ENDS
;	COMDAT pdata
pdata	SEGMENT
$pdata$?_Xlen@?$deque@V?$function@$$A6AXXZ@std@@V?$allocator@V?$function@$$A6AXXZ@std@@@2@@std@@CAXXZ DD imagerel $LN3
	DD	imagerel $LN3+49
	DD	imagerel $unwind$?_Xlen@?$deque@V?$function@$$A6AXXZ@std@@V?$allocator@V?$function@$$A6AXXZ@std@@@2@@std@@CAXXZ
pdata	ENDS
;	COMDAT pdata
pdata	SEGMENT
$pdata$?_Growmap@?$deque@V?$function@$$A6AXXZ@std@@V?$allocator@V?$function@$$A6AXXZ@std@@@2@@std@@AEAAX_K@Z DD imagerel $LN12
	DD	imagerel $LN12+1088
	DD	imagerel $unwind$?_Growmap@?$deque@V?$function@$$A6AXXZ@std@@V?$allocator@V?$function@$$A6AXXZ@std@@@2@@std@@AEAAX_K@Z
pdata	ENDS
;	COMDAT pdata
pdata	SEGMENT
$pdata$?_Tidy@?$deque@V?$function@$$A6AXXZ@std@@V?$allocator@V?$function@$$A6AXXZ@std@@@2@@std@@AEAAXXZ DD imagerel $LN10
	DD	imagerel $LN10+488
	DD	imagerel $unwind$?_Tidy@?$deque@V?$function@$$A6AXXZ@std@@V?$allocator@V?$function@$$A6AXXZ@std@@@2@@std@@AEAAXXZ
pdata	ENDS
;	COMDAT pdata
pdata	SEGMENT
$pdata$?_Orphan_off@?$deque@V?$function@$$A6AXXZ@std@@V?$allocator@V?$function@$$A6AXXZ@std@@@2@@std@@AEBAX_K@Z DD imagerel $LN11
	DD	imagerel $LN11+401
	DD	imagerel $unwind$?_Orphan_off@?$deque@V?$function@$$A6AXXZ@std@@V?$allocator@V?$function@$$A6AXXZ@std@@@2@@std@@AEBAX_K@Z
pdata	ENDS
;	COMDAT pdata
pdata	SEGMENT
$pdata$?_Getblock@?$deque@V?$function@$$A6AXXZ@std@@V?$allocator@V?$function@$$A6AXXZ@std@@@2@@std@@AEBA_K_K@Z DD imagerel $LN3
	DD	imagerel $LN3+84
	DD	imagerel $unwind$?_Getblock@?$deque@V?$function@$$A6AXXZ@std@@V?$allocator@V?$function@$$A6AXXZ@std@@@2@@std@@AEBA_K_K@Z
pdata	ENDS
;	COMDAT pdata
pdata	SEGMENT
$pdata$?_Orphan_all@?$deque@V?$function@$$A6AXXZ@std@@V?$allocator@V?$function@$$A6AXXZ@std@@@2@@std@@AEAAXXZ DD imagerel $LN3
	DD	imagerel $LN3+61
	DD	imagerel $unwind$?_Orphan_all@?$deque@V?$function@$$A6AXXZ@std@@V?$allocator@V?$function@$$A6AXXZ@std@@@2@@std@@AEAAXXZ
pdata	ENDS
;	COMDAT pdata
pdata	SEGMENT
$pdata$?_Getal@?$deque@V?$function@$$A6AXXZ@std@@V?$allocator@V?$function@$$A6AXXZ@std@@@2@@std@@AEAAAEAV?$allocator@V?$function@$$A6AXXZ@std@@@2@XZ DD imagerel $LN3
	DD	imagerel $LN3+56
	DD	imagerel $unwind$?_Getal@?$deque@V?$function@$$A6AXXZ@std@@V?$allocator@V?$function@$$A6AXXZ@std@@@2@@std@@AEAAAEAV?$allocator@V?$function@$$A6AXXZ@std@@@2@XZ
pdata	ENDS
;	COMDAT pdata
pdata	SEGMENT
$pdata$?_Getal@?$deque@V?$function@$$A6AXXZ@std@@V?$allocator@V?$function@$$A6AXXZ@std@@@2@@std@@AEBAAEBV?$allocator@V?$function@$$A6AXXZ@std@@@2@XZ DD imagerel $LN3
	DD	imagerel $LN3+56
	DD	imagerel $unwind$?_Getal@?$deque@V?$function@$$A6AXXZ@std@@V?$allocator@V?$function@$$A6AXXZ@std@@@2@@std@@AEBAAEBV?$allocator@V?$function@$$A6AXXZ@std@@@2@XZ
pdata	ENDS
;	COMDAT pdata
pdata	SEGMENT
$pdata$?_Get_data@?$deque@V?$function@$$A6AXXZ@std@@V?$allocator@V?$function@$$A6AXXZ@std@@@2@@std@@AEAAAEAV?$_Deque_val@U?$_Deque_simple_types@V?$function@$$A6AXXZ@std@@@std@@@2@XZ DD imagerel $LN3
	DD	imagerel $LN3+48
	DD	imagerel $unwind$?_Get_data@?$deque@V?$function@$$A6AXXZ@std@@V?$allocator@V?$function@$$A6AXXZ@std@@@2@@std@@AEAAAEAV?$_Deque_val@U?$_Deque_simple_types@V?$function@$$A6AXXZ@std@@@std@@@2@XZ
pdata	ENDS
;	COMDAT pdata
pdata	SEGMENT
$pdata$?_Get_data@?$deque@V?$function@$$A6AXXZ@std@@V?$allocator@V?$function@$$A6AXXZ@std@@@2@@std@@AEBAAEBV?$_Deque_val@U?$_Deque_simple_types@V?$function@$$A6AXXZ@std@@@std@@@2@XZ DD imagerel $LN3
	DD	imagerel $LN3+48
	DD	imagerel $unwind$?_Get_data@?$deque@V?$function@$$A6AXXZ@std@@V?$allocator@V?$function@$$A6AXXZ@std@@@2@@std@@AEBAAEBV?$_Deque_val@U?$_Deque_simple_types@V?$function@$$A6AXXZ@std@@@std@@@2@XZ
pdata	ENDS
;	COMDAT pdata
pdata	SEGMENT
$pdata$?_Map@?$deque@V?$function@$$A6AXXZ@std@@V?$allocator@V?$function@$$A6AXXZ@std@@@2@@std@@AEAAAEAPEAPEAV?$function@$$A6AXXZ@2@XZ DD imagerel $LN3
	DD	imagerel $LN3+57
	DD	imagerel $unwind$?_Map@?$deque@V?$function@$$A6AXXZ@std@@V?$allocator@V?$function@$$A6AXXZ@std@@@2@@std@@AEAAAEAPEAPEAV?$function@$$A6AXXZ@2@XZ
pdata	ENDS
;	COMDAT pdata
pdata	SEGMENT
$pdata$?_Mapsize@?$deque@V?$function@$$A6AXXZ@std@@V?$allocator@V?$function@$$A6AXXZ@std@@@2@@std@@AEAAAEA_KXZ DD imagerel $LN3
	DD	imagerel $LN3+57
	DD	imagerel $unwind$?_Mapsize@?$deque@V?$function@$$A6AXXZ@std@@V?$allocator@V?$function@$$A6AXXZ@std@@@2@@std@@AEAAAEA_KXZ
pdata	ENDS
;	COMDAT pdata
pdata	SEGMENT
$pdata$?_Myoff@?$deque@V?$function@$$A6AXXZ@std@@V?$allocator@V?$function@$$A6AXXZ@std@@@2@@std@@AEAAAEA_KXZ DD imagerel $LN3
	DD	imagerel $LN3+57
	DD	imagerel $unwind$?_Myoff@?$deque@V?$function@$$A6AXXZ@std@@V?$allocator@V?$function@$$A6AXXZ@std@@@2@@std@@AEAAAEA_KXZ
pdata	ENDS
;	COMDAT pdata
pdata	SEGMENT
$pdata$?_Myoff@?$deque@V?$function@$$A6AXXZ@std@@V?$allocator@V?$function@$$A6AXXZ@std@@@2@@std@@AEBAAEB_KXZ DD imagerel $LN3
	DD	imagerel $LN3+57
	DD	imagerel $unwind$?_Myoff@?$deque@V?$function@$$A6AXXZ@std@@V?$allocator@V?$function@$$A6AXXZ@std@@@2@@std@@AEBAAEB_KXZ
pdata	ENDS
;	COMDAT pdata
pdata	SEGMENT
$pdata$?_Mysize@?$deque@V?$function@$$A6AXXZ@std@@V?$allocator@V?$function@$$A6AXXZ@std@@@2@@std@@AEAAAEA_KXZ DD imagerel $LN3
	DD	imagerel $LN3+57
	DD	imagerel $unwind$?_Mysize@?$deque@V?$function@$$A6AXXZ@std@@V?$allocator@V?$function@$$A6AXXZ@std@@@2@@std@@AEAAAEA_KXZ
pdata	ENDS
;	COMDAT pdata
pdata	SEGMENT
$pdata$?_Mysize@?$deque@V?$function@$$A6AXXZ@std@@V?$allocator@V?$function@$$A6AXXZ@std@@@2@@std@@AEBAAEB_KXZ DD imagerel $LN3
	DD	imagerel $LN3+57
	DD	imagerel $unwind$?_Mysize@?$deque@V?$function@$$A6AXXZ@std@@V?$allocator@V?$function@$$A6AXXZ@std@@@2@@std@@AEBAAEB_KXZ
pdata	ENDS
;	COMDAT pdata
pdata	SEGMENT
$pdata$?_Get_first@?$_Compressed_pair@V?$allocator@V?$function@$$A6AXXZ@std@@@std@@V?$_Deque_val@U?$_Deque_simple_types@V?$function@$$A6AXXZ@std@@@std@@@2@$00@std@@QEAAAEAV?$allocator@V?$function@$$A6AXXZ@std@@@2@XZ DD imagerel $LN3
	DD	imagerel $LN3+48
	DD	imagerel $unwind$?_Get_first@?$_Compressed_pair@V?$allocator@V?$function@$$A6AXXZ@std@@@std@@V?$_Deque_val@U?$_Deque_simple_types@V?$function@$$A6AXXZ@std@@@std@@@2@$00@std@@QEAAAEAV?$allocator@V?$function@$$A6AXXZ@std@@@2@XZ
pdata	ENDS
;	COMDAT pdata
pdata	SEGMENT
$pdata$?_Get_first@?$_Compressed_pair@V?$allocator@V?$function@$$A6AXXZ@std@@@std@@V?$_Deque_val@U?$_Deque_simple_types@V?$function@$$A6AXXZ@std@@@std@@@2@$00@std@@QEBAAEBV?$allocator@V?$function@$$A6AXXZ@std@@@2@XZ DD imagerel $LN3
	DD	imagerel $LN3+48
	DD	imagerel $unwind$?_Get_first@?$_Compressed_pair@V?$allocator@V?$function@$$A6AXXZ@std@@@std@@V?$_Deque_val@U?$_Deque_simple_types@V?$function@$$A6AXXZ@std@@@std@@@2@$00@std@@QEBAAEBV?$allocator@V?$function@$$A6AXXZ@std@@@2@XZ
pdata	ENDS
;	COMDAT pdata
pdata	SEGMENT
$pdata$??0?$queue@V?$function@$$A6AXXZ@std@@V?$deque@V?$function@$$A6AXXZ@std@@V?$allocator@V?$function@$$A6AXXZ@std@@@2@@2@@std@@QEAA@XZ DD imagerel $LN4
	DD	imagerel $LN4+63
	DD	imagerel $unwind$??0?$queue@V?$function@$$A6AXXZ@std@@V?$deque@V?$function@$$A6AXXZ@std@@V?$allocator@V?$function@$$A6AXXZ@std@@@2@@2@@std@@QEAA@XZ
pdata	ENDS
;	COMDAT pdata
pdata	SEGMENT
$pdata$?empty@?$queue@V?$function@$$A6AXXZ@std@@V?$deque@V?$function@$$A6AXXZ@std@@V?$allocator@V?$function@$$A6AXXZ@std@@@2@@2@@std@@QEBA_NXZ DD imagerel $LN3
	DD	imagerel $LN3+56
	DD	imagerel $unwind$?empty@?$queue@V?$function@$$A6AXXZ@std@@V?$deque@V?$function@$$A6AXXZ@std@@V?$allocator@V?$function@$$A6AXXZ@std@@@2@@2@@std@@QEBA_NXZ
pdata	ENDS
;	COMDAT pdata
pdata	SEGMENT
$pdata$?front@?$queue@V?$function@$$A6AXXZ@std@@V?$deque@V?$function@$$A6AXXZ@std@@V?$allocator@V?$function@$$A6AXXZ@std@@@2@@2@@std@@QEAAAEAV?$function@$$A6AXXZ@2@XZ DD imagerel $LN3
	DD	imagerel $LN3+56
	DD	imagerel $unwind$?front@?$queue@V?$function@$$A6AXXZ@std@@V?$deque@V?$function@$$A6AXXZ@std@@V?$allocator@V?$function@$$A6AXXZ@std@@@2@@2@@std@@QEAAAEAV?$function@$$A6AXXZ@2@XZ
pdata	ENDS
;	COMDAT pdata
pdata	SEGMENT
$pdata$?push@?$queue@V?$function@$$A6AXXZ@std@@V?$deque@V?$function@$$A6AXXZ@std@@V?$allocator@V?$function@$$A6AXXZ@std@@@2@@2@@std@@QEAAXAEBV?$function@$$A6AXXZ@2@@Z DD imagerel $LN3
	DD	imagerel $LN3+79
	DD	imagerel $unwind$?push@?$queue@V?$function@$$A6AXXZ@std@@V?$deque@V?$function@$$A6AXXZ@std@@V?$allocator@V?$function@$$A6AXXZ@std@@@2@@2@@std@@QEAAXAEBV?$function@$$A6AXXZ@2@@Z
pdata	ENDS
;	COMDAT pdata
pdata	SEGMENT
$pdata$?pop@?$queue@V?$function@$$A6AXXZ@std@@V?$deque@V?$function@$$A6AXXZ@std@@V?$allocator@V?$function@$$A6AXXZ@std@@@2@@2@@std@@QEAAXXZ DD imagerel $LN3
	DD	imagerel $LN3+56
	DD	imagerel $unwind$?pop@?$queue@V?$function@$$A6AXXZ@std@@V?$deque@V?$function@$$A6AXXZ@std@@V?$allocator@V?$function@$$A6AXXZ@std@@@2@@2@@std@@QEAAXXZ
pdata	ENDS
;	COMDAT pdata
pdata	SEGMENT
$pdata$??1?$queue@V?$function@$$A6AXXZ@std@@V?$deque@V?$function@$$A6AXXZ@std@@V?$allocator@V?$function@$$A6AXXZ@std@@@2@@2@@std@@QEAA@XZ DD imagerel $LN3
	DD	imagerel $LN3+44
	DD	imagerel $unwind$??1?$queue@V?$function@$$A6AXXZ@std@@V?$deque@V?$function@$$A6AXXZ@std@@V?$allocator@V?$function@$$A6AXXZ@std@@@2@@2@@std@@QEAA@XZ
pdata	ENDS
;	COMDAT pdata
pdata	SEGMENT
$pdata$?worker@thread_pool@@AEAAXXZ DD imagerel $LN8
	DD	imagerel $LN8+380
	DD	imagerel $unwind$?worker@thread_pool@@AEAAXXZ
pdata	ENDS
;	COMDAT pdata
pdata	SEGMENT
$pdata$?dtor$0@?0??worker@thread_pool@@AEAAXXZ@4HA DD imagerel ?dtor$0@?0??worker@thread_pool@@AEAAXXZ@4HA
	DD	imagerel ?dtor$0@?0??worker@thread_pool@@AEAAXXZ@4HA+36
	DD	imagerel $unwind$?dtor$0@?0??worker@thread_pool@@AEAAXXZ@4HA
pdata	ENDS
;	COMDAT pdata
pdata	SEGMENT
$pdata$?dtor$1@?0??worker@thread_pool@@AEAAXXZ@4HA DD imagerel ?dtor$1@?0??worker@thread_pool@@AEAAXXZ@4HA
	DD	imagerel ?dtor$1@?0??worker@thread_pool@@AEAAXXZ@4HA+36
	DD	imagerel $unwind$?dtor$1@?0??worker@thread_pool@@AEAAXXZ@4HA
pdata	ENDS
;	COMDAT pdata
pdata	SEGMENT
$pdata$??R<lambda_1>@?3???0thread_pool@@QEAA@_K@Z@QEBA@XZ DD imagerel ??R<lambda_1>@?3???0thread_pool@@QEAA@_K@Z@QEBA@XZ
	DD	imagerel ??R<lambda_1>@?3???0thread_pool@@QEAA@_K@Z@QEBA@XZ+56
	DD	imagerel $unwind$??R<lambda_1>@?3???0thread_pool@@QEAA@_K@Z@QEBA@XZ
pdata	ENDS
;	COMDAT pdata
pdata	SEGMENT
$pdata$??0<lambda_1>@?3???0thread_pool@@QEAA@_K@Z@QEAA@PEAV1@@Z DD imagerel ??0<lambda_1>@?3???0thread_pool@@QEAA@_K@Z@QEAA@PEAV1@@Z
	DD	imagerel ??0<lambda_1>@?3???0thread_pool@@QEAA@_K@Z@QEAA@PEAV1@@Z+70
	DD	imagerel $unwind$??0<lambda_1>@?3???0thread_pool@@QEAA@_K@Z@QEAA@PEAV1@@Z
pdata	ENDS
;	COMDAT pdata
pdata	SEGMENT
$pdata$??$emplace_back@V<lambda_1>@?3???0thread_pool@@QEAA@_K@Z@@?$vector@Vthread@std@@V?$allocator@Vthread@std@@@2@@std@@QEAA?A_T$$QEAV<lambda_1>@?3???0thread_pool@@QEAA@_K@Z@@Z DD imagerel ??$emplace_back@V<lambda_1>@?3???0thread_pool@@QEAA@_K@Z@@?$vector@Vthread@std@@V?$allocator@Vthread@std@@@2@@std@@QEAA?A_T$$QEAV<lambda_1>@?3???0thread_pool@@QEAA@_K@Z@@Z
	DD	imagerel ??$emplace_back@V<lambda_1>@?3???0thread_pool@@QEAA@_K@Z@@?$vector@Vthread@std@@V?$allocator@Vthread@std@@@2@@std@@QEAA?A_T$$QEAV<lambda_1>@?3???0thread_pool@@QEAA@_K@Z@@Z+73
	DD	imagerel $unwind$??$emplace_back@V<lambda_1>@?3???0thread_pool@@QEAA@_K@Z@@?$vector@Vthread@std@@V?$allocator@Vthread@std@@@2@@std@@QEAA?A_T$$QEAV<lambda_1>@?3???0thread_pool@@QEAA@_K@Z@@Z
pdata	ENDS
;	COMDAT pdata
pdata	SEGMENT
$pdata$??$_Emplace_one_at_back@V<lambda_1>@?3???0thread_pool@@QEAA@_K@Z@@?$vector@Vthread@std@@V?$allocator@Vthread@std@@@2@@std@@AEAAAEAVthread@1@$$QEAV<lambda_1>@?3???0thread_pool@@QEAA@_K@Z@@Z DD imagerel ??$_Emplace_one_at_back@V<lambda_1>@?3???0thread_pool@@QEAA@_K@Z@@?$vector@Vthread@std@@V?$allocator@Vthread@std@@@2@@std@@AEAAAEAVthread@1@$$QEAV<lambda_1>@?3???0thread_pool@@QEAA@_K@Z@@Z
	DD	imagerel ??$_Emplace_one_at_back@V<lambda_1>@?3???0thread_pool@@QEAA@_K@Z@@?$vector@Vthread@std@@V?$allocator@Vthread@std@@@2@@std@@AEAAAEAVthread@1@$$QEAV<lambda_1>@?3???0thread_pool@@QEAA@_K@Z@@Z+133
	DD	imagerel $unwind$??$_Emplace_one_at_back@V<lambda_1>@?3???0thread_pool@@QEAA@_K@Z@@?$vector@Vthread@std@@V?$allocator@Vthread@std@@@2@@std@@AEAAAEAVthread@1@$$QEAV<lambda_1>@?3???0thread_pool@@QEAA@_K@Z@@Z
pdata	ENDS
;	COMDAT pdata
pdata	SEGMENT
$pdata$??R<lambda_1>@?4??worker@thread_pool@@AEAAXXZ@QEBA@XZ DD imagerel ??R<lambda_1>@?4??worker@thread_pool@@AEAAXXZ@QEBA@XZ
	DD	imagerel ??R<lambda_1>@?4??worker@thread_pool@@AEAAXXZ@QEBA@XZ+120
	DD	imagerel $unwind$??R<lambda_1>@?4??worker@thread_pool@@AEAAXXZ@QEBA@XZ
pdata	ENDS
;	COMDAT pdata
pdata	SEGMENT
$pdata$??0<lambda_1>@?4??worker@thread_pool@@AEAAXXZ@QEAA@PEAV2@@Z DD imagerel ??0<lambda_1>@?4??worker@thread_pool@@AEAAXXZ@QEAA@PEAV2@@Z
	DD	imagerel ??0<lambda_1>@?4??worker@thread_pool@@AEAAXXZ@QEAA@PEAV2@@Z+70
	DD	imagerel $unwind$??0<lambda_1>@?4??worker@thread_pool@@AEAAXXZ@QEAA@PEAV2@@Z
pdata	ENDS
;	COMDAT pdata
pdata	SEGMENT
$pdata$??$wait@V<lambda_1>@?4??worker@thread_pool@@AEAAXXZ@@condition_variable@std@@QEAAXAEAV?$unique_lock@Vmutex@std@@@1@V<lambda_1>@?4??worker@thread_pool@@AEAAXXZ@@Z DD imagerel ??$wait@V<lambda_1>@?4??worker@thread_pool@@AEAAXXZ@@condition_variable@std@@QEAAXAEAV?$unique_lock@Vmutex@std@@@1@V<lambda_1>@?4??worker@thread_pool@@AEAAXXZ@@Z
	DD	imagerel ??$wait@V<lambda_1>@?4??worker@thread_pool@@AEAAXXZ@@condition_variable@std@@QEAAXAEAV?$unique_lock@Vmutex@std@@@1@V<lambda_1>@?4??worker@thread_pool@@AEAAXXZ@@Z+91
	DD	imagerel $unwind$??$wait@V<lambda_1>@?4??worker@thread_pool@@AEAAXXZ@@condition_variable@std@@QEAAXAEAV?$unique_lock@Vmutex@std@@@1@V<lambda_1>@?4??worker@thread_pool@@AEAAXXZ@@Z
pdata	ENDS
;	COMDAT pdata
pdata	SEGMENT
$pdata$?deallocate@?$allocator@U_Container_proxy@std@@@std@@QEAAXQEAU_Container_proxy@2@_K@Z DD imagerel $LN13
	DD	imagerel $LN13+213
	DD	imagerel $unwind$?deallocate@?$allocator@U_Container_proxy@std@@@std@@QEAAXQEAU_Container_proxy@2@_K@Z
pdata	ENDS
;	COMDAT pdata
pdata	SEGMENT
$pdata$?allocate@?$allocator@U_Container_proxy@std@@@std@@QEAAPEAU_Container_proxy@2@_K@Z DD imagerel $LN3
	DD	imagerel $LN3+66
	DD	imagerel $unwind$?allocate@?$allocator@U_Container_proxy@std@@@std@@QEAAPEAU_Container_proxy@2@_K@Z
pdata	ENDS
;	COMDAT pdata
pdata	SEGMENT
$pdata$??$?0V?$function@$$A6AXXZ@std@@@?$allocator@U_Container_proxy@std@@@std@@QEAA@AEBV?$allocator@V?$function@$$A6AXXZ@std@@@1@@Z DD imagerel $LN3
	DD	imagerel $LN3+53
	DD	imagerel $unwind$??$?0V?$function@$$A6AXXZ@std@@@?$allocator@U_Container_proxy@std@@@std@@QEAA@AEBV?$allocator@V?$function@$$A6AXXZ@std@@@1@@Z
pdata	ENDS
;	COMDAT pdata
pdata	SEGMENT
$pdata$??$exchange@PEAU_Container_proxy@std@@$$T@std@@YAPEAU_Container_proxy@0@AEAPEAU10@$$QEA$$T@Z DD imagerel $LN3
	DD	imagerel $LN3+84
	DD	imagerel $unwind$??$exchange@PEAU_Container_proxy@std@@$$T@std@@YAPEAU_Container_proxy@0@AEAPEAU10@$$QEA$$T@Z
pdata	ENDS
;	COMDAT pdata
pdata	SEGMENT
$pdata$??$_Delete_plain_internal@V?$allocator@U_Container_proxy@std@@@std@@@std@@YAXAEAV?$allocator@U_Container_proxy@std@@@0@QEAU_Container_proxy@0@@Z DD imagerel $LN3
	DD	imagerel $LN3+65
	DD	imagerel $unwind$??$_Delete_plain_internal@V?$allocator@U_Container_proxy@std@@@std@@@std@@YAXAEAV?$allocator@U_Container_proxy@std@@@0@QEAU_Container_proxy@0@@Z
pdata	ENDS
;	COMDAT pdata
pdata	SEGMENT
$pdata$??$?0$$V@?$_Compressed_pair@V?$allocator@V?$function@$$A6AXXZ@std@@@std@@V?$_Deque_val@U?$_Deque_simple_types@V?$function@$$A6AXXZ@std@@@std@@@2@$00@std@@QEAA@U_Zero_then_variadic_args_t@1@@Z DD imagerel $LN3
	DD	imagerel $LN3+79
	DD	imagerel $unwind$??$?0$$V@?$_Compressed_pair@V?$allocator@V?$function@$$A6AXXZ@std@@@std@@V?$_Deque_val@U?$_Deque_simple_types@V?$function@$$A6AXXZ@std@@@std@@@2@$00@std@@QEAA@U_Zero_then_variadic_args_t@1@@Z
pdata	ENDS
;	COMDAT pdata
pdata	SEGMENT
$pdata$??$_Alloc_proxy@V?$allocator@U_Container_proxy@std@@@std@@@_Container_base12@std@@QEAAX$$QEAV?$allocator@U_Container_proxy@std@@@1@@Z DD imagerel $LN3
	DD	imagerel $LN3+133
	DD	imagerel $unwind$??$_Alloc_proxy@V?$allocator@U_Container_proxy@std@@@std@@@_Container_base12@std@@QEAAX$$QEAV?$allocator@U_Container_proxy@std@@@1@@Z
pdata	ENDS
;	COMDAT pdata
pdata	SEGMENT
$pdata$??$addressof@V?$function@$$A6AXXZ@std@@@std@@YAPEAV?$function@$$A6AXXZ@0@AEAV10@@Z DD imagerel $LN3
	DD	imagerel $LN3+48
	DD	imagerel $unwind$??$addressof@V?$function@$$A6AXXZ@std@@@std@@YAPEAV?$function@$$A6AXXZ@0@AEAV10@@Z
pdata	ENDS
;	COMDAT pdata
pdata	SEGMENT
$pdata$??$?0Vthread@std@@@?$allocator@U_Container_proxy@std@@@std@@QEAA@AEBV?$allocator@Vthread@std@@@1@@Z DD imagerel $LN3
	DD	imagerel $LN3+53
	DD	imagerel $unwind$??$?0Vthread@std@@@?$allocator@U_Container_proxy@std@@@std@@QEAA@AEBV?$allocator@Vthread@std@@@1@@Z
pdata	ENDS
;	COMDAT pdata
pdata	SEGMENT
$pdata$??$?0$$V@?$_Compressed_pair@V?$allocator@Vthread@std@@@std@@V?$_Vector_val@U?$_Simple_types@Vthread@std@@@std@@@2@$00@std@@QEAA@U_Zero_then_variadic_args_t@1@@Z DD imagerel $LN3
	DD	imagerel $LN3+79
	DD	imagerel $unwind$??$?0$$V@?$_Compressed_pair@V?$allocator@Vthread@std@@@std@@V?$_Vector_val@U?$_Simple_types@Vthread@std@@@std@@@2@$00@std@@QEAA@U_Zero_then_variadic_args_t@1@@Z
pdata	ENDS
;	COMDAT pdata
pdata	SEGMENT
$pdata$??$addressof@Vmutex@std@@@std@@YAPEAVmutex@0@AEAV10@@Z DD imagerel $LN3
	DD	imagerel $LN3+48
	DD	imagerel $unwind$??$addressof@Vmutex@std@@@std@@YAPEAVmutex@0@AEAV10@@Z
pdata	ENDS
;	COMDAT pdata
pdata	SEGMENT
$pdata$??$min@_K@std@@YAAEB_KAEB_K0@Z DD imagerel $LN5
	DD	imagerel $LN5+119
	DD	imagerel $unwind$??$min@_K@std@@YAAEB_KAEB_K0@Z
pdata	ENDS
;	COMDAT pdata
pdata	SEGMENT
$pdata$??$?0V?$function@$$A6AXXZ@std@@@?$allocator@PEAV?$function@$$A6AXXZ@std@@@std@@QEAA@AEBV?$allocator@V?$function@$$A6AXXZ@std@@@1@@Z DD imagerel $LN3
	DD	imagerel $LN3+53
	DD	imagerel $unwind$??$?0V?$function@$$A6AXXZ@std@@@?$allocator@PEAV?$function@$$A6AXXZ@std@@@std@@QEAA@AEBV?$allocator@V?$function@$$A6AXXZ@std@@@1@@Z
pdata	ENDS
;	COMDAT pdata
pdata	SEGMENT
$pdata$??$_Destroy_in_place@PEAV?$function@$$A6AXXZ@std@@@std@@YAXAEAPEAV?$function@$$A6AXXZ@0@@Z DD imagerel $LN3
	DD	imagerel $LN3+41
	DD	imagerel $unwind$??$_Destroy_in_place@PEAV?$function@$$A6AXXZ@std@@@std@@YAXAEAPEAV?$function@$$A6AXXZ@0@@Z
pdata	ENDS
;	COMDAT pdata
pdata	SEGMENT
$pdata$??$_Emplace_back_internal@AEBV?$function@$$A6AXXZ@std@@@?$deque@V?$function@$$A6AXXZ@std@@V?$allocator@V?$function@$$A6AXXZ@std@@@2@@std@@AEAAXAEBV?$function@$$A6AXXZ@1@@Z DD imagerel $LN5
	DD	imagerel $LN5+561
	DD	imagerel $unwind$??$_Emplace_back_internal@AEBV?$function@$$A6AXXZ@std@@@?$deque@V?$function@$$A6AXXZ@std@@V?$allocator@V?$function@$$A6AXXZ@std@@@2@@std@@AEAAXAEBV?$function@$$A6AXXZ@1@@Z
pdata	ENDS
;	COMDAT pdata
pdata	SEGMENT
$pdata$??$_Unfancy@V?$function@$$A6AXXZ@std@@@std@@YAPEAV?$function@$$A6AXXZ@0@PEAV10@@Z DD imagerel $LN3
	DD	imagerel $LN3+48
	DD	imagerel $unwind$??$_Unfancy@V?$function@$$A6AXXZ@std@@@std@@YAPEAV?$function@$$A6AXXZ@0@PEAV10@@Z
pdata	ENDS
;	COMDAT pdata
pdata	SEGMENT
$pdata$??$destroy@V?$function@$$A6AXXZ@std@@@?$_Default_allocator_traits@V?$allocator@V?$function@$$A6AXXZ@std@@@std@@@std@@SAXAEAV?$allocator@V?$function@$$A6AXXZ@std@@@1@QEAV?$function@$$A6AXXZ@1@@Z DD imagerel $LN3
	DD	imagerel $LN3+58
	DD	imagerel $unwind$??$destroy@V?$function@$$A6AXXZ@std@@@?$_Default_allocator_traits@V?$allocator@V?$function@$$A6AXXZ@std@@@std@@@std@@SAXAEAV?$allocator@V?$function@$$A6AXXZ@std@@@1@QEAV?$function@$$A6AXXZ@1@@Z
pdata	ENDS
;	COMDAT pdata
pdata	SEGMENT
$pdata$??0?$_Deque_unchecked_const_iterator@V?$_Deque_val@U?$_Deque_simple_types@V?$function@$$A6AXXZ@std@@@std@@@std@@@std@@QEAA@_KPEBU_Container_base12@1@@Z DD imagerel $LN3
	DD	imagerel $LN3+93
	DD	imagerel $unwind$??0?$_Deque_unchecked_const_iterator@V?$_Deque_val@U?$_Deque_simple_types@V?$function@$$A6AXXZ@std@@@std@@@std@@@std@@QEAA@_KPEBU_Container_base12@1@@Z
pdata	ENDS
;	COMDAT pdata
pdata	SEGMENT
$pdata$??D?$_Deque_unchecked_const_iterator@V?$_Deque_val@U?$_Deque_simple_types@V?$function@$$A6AXXZ@std@@@std@@@std@@@std@@QEBAAEBV?$function@$$A6AXXZ@1@XZ DD imagerel $LN3
	DD	imagerel $LN3+121
	DD	imagerel $unwind$??D?$_Deque_unchecked_const_iterator@V?$_Deque_val@U?$_Deque_simple_types@V?$function@$$A6AXXZ@std@@@std@@@std@@@std@@QEBAAEBV?$function@$$A6AXXZ@1@XZ
pdata	ENDS
;	COMDAT pdata
pdata	SEGMENT
$pdata$??D?$_Deque_unchecked_iterator@V?$_Deque_val@U?$_Deque_simple_types@V?$function@$$A6AXXZ@std@@@std@@@std@@@std@@QEBAAEAV?$function@$$A6AXXZ@1@XZ DD imagerel $LN3
	DD	imagerel $LN3+53
	DD	imagerel $unwind$??D?$_Deque_unchecked_iterator@V?$_Deque_val@U?$_Deque_simple_types@V?$function@$$A6AXXZ@std@@@std@@@std@@@std@@QEBAAEAV?$function@$$A6AXXZ@1@XZ
pdata	ENDS
;	COMDAT pdata
pdata	SEGMENT
$pdata$??0?$_Deque_unchecked_iterator@V?$_Deque_val@U?$_Deque_simple_types@V?$function@$$A6AXXZ@std@@@std@@@std@@@std@@QEAA@_KPEBU_Container_base12@1@@Z DD imagerel $LN3
	DD	imagerel $LN3+72
	DD	imagerel $unwind$??0?$_Deque_unchecked_iterator@V?$_Deque_val@U?$_Deque_simple_types@V?$function@$$A6AXXZ@std@@@std@@@std@@@std@@QEAA@_KPEBU_Container_base12@1@@Z
pdata	ENDS
;	COMDAT pdata
pdata	SEGMENT
$pdata$??$_Destroy_range@V?$allocator@Vthread@std@@@std@@@std@@YAXPEAVthread@0@QEAV10@AEAV?$allocator@Vthread@std@@@0@@Z DD imagerel $LN6
	DD	imagerel $LN6+116
	DD	imagerel $unwind$??$_Destroy_range@V?$allocator@Vthread@std@@@std@@@std@@YAXPEAVthread@0@QEAV10@AEAV?$allocator@Vthread@std@@@0@@Z
pdata	ENDS
;	COMDAT pdata
pdata	SEGMENT
$pdata$??$_Deallocate@$0BA@$0A@@std@@YAXPEAX_K@Z DD imagerel $LN6
	DD	imagerel $LN6+124
	DD	imagerel $unwind$??$_Deallocate@$0BA@$0A@@std@@YAXPEAX_K@Z
pdata	ENDS
;	COMDAT pdata
pdata	SEGMENT
$pdata$??$addressof@V?$_Deque_val@U?$_Deque_simple_types@V?$function@$$A6AXXZ@std@@@std@@@std@@@std@@YAPEAV?$_Deque_val@U?$_Deque_simple_types@V?$function@$$A6AXXZ@std@@@std@@@0@AEAV10@@Z DD imagerel $LN3
	DD	imagerel $LN3+48
	DD	imagerel $unwind$??$addressof@V?$_Deque_val@U?$_Deque_simple_types@V?$function@$$A6AXXZ@std@@@std@@@std@@@std@@YAPEAV?$_Deque_val@U?$_Deque_simple_types@V?$function@$$A6AXXZ@std@@@std@@@0@AEAV10@@Z
pdata	ENDS
;	COMDAT pdata
pdata	SEGMENT
$pdata$??$addressof@U_Container_proxy@std@@@std@@YAPEAU_Container_proxy@0@AEAU10@@Z DD imagerel $LN3
	DD	imagerel $LN3+48
	DD	imagerel $unwind$??$addressof@U_Container_proxy@std@@@std@@YAPEAU_Container_proxy@0@AEAU10@@Z
pdata	ENDS
;	COMDAT pdata
pdata	SEGMENT
$pdata$??$construct_at@U_Container_proxy@std@@PEAU_Container_base12@2@$0A@@std@@YAPEAU_Container_proxy@0@QEAU10@$$QEAPEAU_Container_base12@0@@Z DD imagerel $LN3
	DD	imagerel $LN3+92
	DD	imagerel $unwind$??$construct_at@U_Container_proxy@std@@PEAU_Container_base12@2@$0A@@std@@YAPEAU_Container_proxy@0@QEAU10@$$QEAPEAU_Container_base12@0@@Z
pdata	ENDS
;	COMDAT pdata
pdata	SEGMENT
$pdata$??$_Emplace_back_with_unused_capacity@V<lambda_1>@?3???0thread_pool@@QEAA@_K@Z@@?$vector@Vthread@std@@V?$allocator@Vthread@std@@@2@@std@@AEAAAEAVthread@1@$$QEAV<lambda_1>@?3???0thread_pool@@QEAA@_K@Z@@Z DD imagerel ??$_Emplace_back_with_unused_capacity@V<lambda_1>@?3???0thread_pool@@QEAA@_K@Z@@?$vector@Vthread@std@@V?$allocator@Vthread@std@@@2@@std@@AEAAAEAVthread@1@$$QEAV<lambda_1>@?3???0thread_pool@@QEAA@_K@Z@@Z
	DD	imagerel ??$_Emplace_back_with_unused_capacity@V<lambda_1>@?3???0thread_pool@@QEAA@_K@Z@@?$vector@Vthread@std@@V?$allocator@Vthread@std@@@2@@std@@AEAAAEAVthread@1@$$QEAV<lambda_1>@?3???0thread_pool@@QEAA@_K@Z@@Z+192
	DD	imagerel $unwind$??$_Emplace_back_with_unused_capacity@V<lambda_1>@?3???0thread_pool@@QEAA@_K@Z@@?$vector@Vthread@std@@V?$allocator@Vthread@std@@@2@@std@@AEAAAEAVthread@1@$$QEAV<lambda_1>@?3???0thread_pool@@QEAA@_K@Z@@Z
pdata	ENDS
;	COMDAT pdata
pdata	SEGMENT
$pdata$??$_Emplace_reallocate@V<lambda_1>@?3???0thread_pool@@QEAA@_K@Z@@?$vector@Vthread@std@@V?$allocator@Vthread@std@@@2@@std@@AEAAPEAVthread@1@QEAV21@$$QEAV<lambda_1>@?3???0thread_pool@@QEAA@_K@Z@@Z DD imagerel ??$_Emplace_reallocate@V<lambda_1>@?3???0thread_pool@@QEAA@_K@Z@@?$vector@Vthread@std@@V?$allocator@Vthread@std@@@2@@std@@AEAAPEAVthread@1@QEAV21@$$QEAV<lambda_1>@?3???0thread_pool@@QEAA@_K@Z@@Z
	DD	imagerel ??$_Emplace_reallocate@V<lambda_1>@?3???0thread_pool@@QEAA@_K@Z@@?$vector@Vthread@std@@V?$allocator@Vthread@std@@@2@@std@@AEAAPEAVthread@1@QEAV21@$$QEAV<lambda_1>@?3???0thread_pool@@QEAA@_K@Z@@Z+644
	DD	imagerel $unwind$??$_Emplace_reallocate@V<lambda_1>@?3???0thread_pool@@QEAA@_K@Z@@?$vector@Vthread@std@@V?$allocator@Vthread@std@@@2@@std@@AEAAPEAVthread@1@QEAV21@$$QEAV<lambda_1>@?3???0thread_pool@@QEAA@_K@Z@@Z
pdata	ENDS
;	COMDAT pdata
pdata	SEGMENT
$pdata$?catch$0@?0???$_Emplace_reallocate@V<lambda_1>@?3???0thread_pool@@QEAA@_K@Z@@?$vector@Vthread@std@@V?$allocator@Vthread@std@@@2@@std@@AEAAPEAVthread@1@QEAV21@$$QEAV<lambda_1>@?3???0thread_pool@@QEAA@_K@Z@@Z@4HA DD imagerel ?catch$0@?0???$_Emplace_reallocate@V<lambda_1>@?3???0thread_pool@@QEAA@_K@Z@@?$vector@Vthread@std@@V?$allocator@Vthread@std@@@2@@std@@AEAAPEAVthread@1@QEAV21@$$QEAV<lambda_1>@?3???0thread_pool@@QEAA@_K@Z@@Z@4HA
	DD	imagerel ?catch$0@?0???$_Emplace_reallocate@V<lambda_1>@?3???0thread_pool@@QEAA@_K@Z@@?$vector@Vthread@std@@V?$allocator@Vthread@std@@@2@@std@@AEAAPEAVthread@1@QEAV21@$$QEAV<lambda_1>@?3???0thread_pool@@QEAA@_K@Z@@Z@4HA+91
	DD	imagerel $unwind$?catch$0@?0???$_Emplace_reallocate@V<lambda_1>@?3???0thread_pool@@QEAA@_K@Z@@?$vector@Vthread@std@@V?$allocator@Vthread@std@@@2@@std@@AEAAPEAVthread@1@QEAV21@$$QEAV<lambda_1>@?3???0thread_pool@@QEAA@_K@Z@@Z@4HA
pdata	ENDS
;	COMDAT pdata
pdata	SEGMENT
$pdata$??$_Deallocate_plain@V?$allocator@U_Container_proxy@std@@@std@@@std@@YAXAEAV?$allocator@U_Container_proxy@std@@@0@QEAU_Container_proxy@0@@Z DD imagerel $LN3
	DD	imagerel $LN3+72
	DD	imagerel $unwind$??$_Deallocate_plain@V?$allocator@U_Container_proxy@std@@@std@@@std@@YAXAEAV?$allocator@U_Container_proxy@std@@@0@QEAU_Container_proxy@0@@Z
pdata	ENDS
;	COMDAT pdata
pdata	SEGMENT
$pdata$??$_Unfancy@U_Container_proxy@std@@@std@@YAPEAU_Container_proxy@0@PEAU10@@Z DD imagerel $LN3
	DD	imagerel $LN3+48
	DD	imagerel $unwind$??$_Unfancy@U_Container_proxy@std@@@std@@YAPEAU_Container_proxy@0@PEAU10@@Z
pdata	ENDS
;	COMDAT pdata
pdata	SEGMENT
$pdata$??$construct@V?$function@$$A6AXXZ@std@@AEBV12@@?$_Default_allocator_traits@V?$allocator@V?$function@$$A6AXXZ@std@@@std@@@std@@SAXAEAV?$allocator@V?$function@$$A6AXXZ@std@@@1@QEAV?$function@$$A6AXXZ@1@AEBV31@@Z DD imagerel $LN3
	DD	imagerel $LN3+70
	DD	imagerel $unwind$??$construct@V?$function@$$A6AXXZ@std@@AEBV12@@?$_Default_allocator_traits@V?$allocator@V?$function@$$A6AXXZ@std@@@std@@@std@@SAXAEAV?$allocator@V?$function@$$A6AXXZ@std@@@1@QEAV?$function@$$A6AXXZ@1@AEBV31@@Z
pdata	ENDS
;	COMDAT pdata
pdata	SEGMENT
$pdata$??$destroy_at@V?$function@$$A6AXXZ@std@@@std@@YAXQEAV?$function@$$A6AXXZ@0@@Z DD imagerel $LN3
	DD	imagerel $LN3+55
	DD	imagerel $unwind$??$destroy_at@V?$function@$$A6AXXZ@std@@@std@@YAXQEAV?$function@$$A6AXXZ@0@@Z
pdata	ENDS
;	COMDAT pdata
pdata	SEGMENT
$pdata$??$_Unfancy@Vthread@std@@@std@@YAPEAVthread@0@PEAV10@@Z DD imagerel $LN3
	DD	imagerel $LN3+48
	DD	imagerel $unwind$??$_Unfancy@Vthread@std@@@std@@YAPEAVthread@0@PEAV10@@Z
pdata	ENDS
;	COMDAT pdata
pdata	SEGMENT
$pdata$??$destroy@Vthread@std@@@?$_Default_allocator_traits@V?$allocator@Vthread@std@@@std@@@std@@SAXAEAV?$allocator@Vthread@std@@@1@QEAVthread@1@@Z DD imagerel $LN3
	DD	imagerel $LN3+58
	DD	imagerel $unwind$??$destroy@Vthread@std@@@?$_Default_allocator_traits@V?$allocator@Vthread@std@@@std@@@std@@SAXAEAV?$allocator@Vthread@std@@@1@QEAVthread@1@@Z
pdata	ENDS
;	COMDAT pdata
pdata	SEGMENT
$pdata$??$_Get_size_of_n@$0BA@@std@@YA_K_K@Z DD imagerel $LN4
	DD	imagerel $LN4+91
	DD	imagerel $unwind$??$_Get_size_of_n@$0BA@@std@@YA_K_K@Z
pdata	ENDS
;	COMDAT pdata
pdata	SEGMENT
$pdata$??$_Allocate@$0BA@U_Default_allocate_traits@std@@$0A@@std@@YAPEAX_K@Z DD imagerel $LN6
	DD	imagerel $LN6+106
	DD	imagerel $unwind$??$_Allocate@$0BA@U_Default_allocate_traits@std@@$0A@@std@@YAPEAX_K@Z
pdata	ENDS
;	COMDAT pdata
pdata	SEGMENT
$pdata$??$_Allocate_at_least_helper@V?$allocator@PEAV?$function@$$A6AXXZ@std@@@std@@@std@@YAPEAPEAV?$function@$$A6AXXZ@0@AEAV?$allocator@PEAV?$function@$$A6AXXZ@std@@@0@AEA_K@Z DD imagerel $LN3
	DD	imagerel $LN3+68
	DD	imagerel $unwind$??$_Allocate_at_least_helper@V?$allocator@PEAV?$function@$$A6AXXZ@std@@@std@@@std@@YAPEAPEAV?$function@$$A6AXXZ@0@AEAV?$allocator@PEAV?$function@$$A6AXXZ@std@@@0@AEA_K@Z
pdata	ENDS
;	COMDAT pdata
pdata	SEGMENT
$pdata$??$uninitialized_copy@PEAPEAV?$function@$$A6AXXZ@std@@PEAPEAV12@@std@@YAPEAPEAV?$function@$$A6AXXZ@0@QEAPEAV10@0PEAPEAV10@@Z DD imagerel $LN3
	DD	imagerel $LN3+263
	DD	imagerel $unwind$??$uninitialized_copy@PEAPEAV?$function@$$A6AXXZ@std@@PEAPEAV12@@std@@YAPEAPEAV?$function@$$A6AXXZ@0@QEAPEAV10@0PEAPEAV10@@Z
pdata	ENDS
;	COMDAT pdata
pdata	SEGMENT
$pdata$??$_Uninitialized_value_construct_n_unchecked1@PEAPEAV?$function@$$A6AXXZ@std@@_K@std@@YAPEAPEAV?$function@$$A6AXXZ@0@PEAPEAV10@_K@Z DD imagerel $LN3
	DD	imagerel $LN3+79
	DD	imagerel $unwind$??$_Uninitialized_value_construct_n_unchecked1@PEAPEAV?$function@$$A6AXXZ@std@@_K@std@@YAPEAPEAV?$function@$$A6AXXZ@0@PEAPEAV10@_K@Z
pdata	ENDS
;	COMDAT pdata
pdata	SEGMENT
$pdata$??$_Destroy_range@PEAPEAV?$function@$$A6AXXZ@std@@PEAPEAV12@@std@@YAXPEAPEAV?$function@$$A6AXXZ@0@QEAPEAV10@@Z DD imagerel $LN3
	DD	imagerel $LN3+46
	DD	imagerel $unwind$??$_Destroy_range@PEAPEAV?$function@$$A6AXXZ@std@@PEAPEAV12@@std@@YAXPEAPEAV?$function@$$A6AXXZ@0@QEAPEAV10@@Z
pdata	ENDS
;	COMDAT pdata
pdata	SEGMENT
$pdata$??$_Get_size_of_n@$0EA@@std@@YA_K_K@Z DD imagerel $LN4
	DD	imagerel $LN4+91
	DD	imagerel $unwind$??$_Get_size_of_n@$0EA@@std@@YA_K_K@Z
pdata	ENDS
;	COMDAT pdata
pdata	SEGMENT
$pdata$??$?0V<lambda_1>@?3???0thread_pool@@QEAA@_K@Z@$$V$0A@@thread@std@@QEAA@$$QEAV<lambda_1>@?3???0thread_pool@@QEAA@_K@Z@@Z DD imagerel ??$?0V<lambda_1>@?3???0thread_pool@@QEAA@_K@Z@$$V$0A@@thread@std@@QEAA@$$QEAV<lambda_1>@?3???0thread_pool@@QEAA@_K@Z@@Z
	DD	imagerel ??$?0V<lambda_1>@?3???0thread_pool@@QEAA@_K@Z@$$V$0A@@thread@std@@QEAA@$$QEAV<lambda_1>@?3???0thread_pool@@QEAA@_K@Z@@Z+72
	DD	imagerel $unwind$??$?0V<lambda_1>@?3???0thread_pool@@QEAA@_K@Z@$$V$0A@@thread@std@@QEAA@$$QEAV<lambda_1>@?3???0thread_pool@@QEAA@_K@Z@@Z
pdata	ENDS
;	COMDAT pdata
pdata	SEGMENT
$pdata$??$construct@Vthread@std@@V<lambda_1>@?3???0thread_pool@@QEAA@_K@Z@@?$_Default_allocator_traits@V?$allocator@Vthread@std@@@std@@@std@@SAXAEAV?$allocator@Vthread@std@@@1@QEAVthread@1@$$QEAV<lambda_1>@?3???0thread_pool@@QEAA@_K@Z@@Z DD imagerel ??$construct@Vthread@std@@V<lambda_1>@?3???0thread_pool@@QEAA@_K@Z@@?$_Default_allocator_traits@V?$allocator@Vthread@std@@@std@@@std@@SAXAEAV?$allocator@Vthread@std@@@1@QEAVthread@1@$$QEAV<lambda_1>@?3???0thread_pool@@QEAA@_K@Z@@Z
	DD	imagerel ??$construct@Vthread@std@@V<lambda_1>@?3???0thread_pool@@QEAA@_K@Z@@?$_Default_allocator_traits@V?$allocator@Vthread@std@@@std@@@std@@SAXAEAV?$allocator@Vthread@std@@@1@QEAVthread@1@$$QEAV<lambda_1>@?3???0thread_pool@@QEAA@_K@Z@@Z+70
	DD	imagerel $unwind$??$construct@Vthread@std@@V<lambda_1>@?3???0thread_pool@@QEAA@_K@Z@@?$_Default_allocator_traits@V?$allocator@Vthread@std@@@std@@@std@@SAXAEAV?$allocator@Vthread@std@@@1@QEAVthread@1@$$QEAV<lambda_1>@?3???0thread_pool@@QEAA@_K@Z@@Z
pdata	ENDS
;	COMDAT pdata
pdata	SEGMENT
$pdata$??$_Allocate_at_least_helper@V?$allocator@Vthread@std@@@std@@@std@@YAPEAVthread@0@AEAV?$allocator@Vthread@std@@@0@AEA_K@Z DD imagerel $LN3
	DD	imagerel $LN3+68
	DD	imagerel $unwind$??$_Allocate_at_least_helper@V?$allocator@Vthread@std@@@std@@@std@@YAPEAVthread@0@AEAV?$allocator@Vthread@std@@@0@AEA_K@Z
pdata	ENDS
;	COMDAT pdata
pdata	SEGMENT
$pdata$??$_Uninitialized_move@PEAVthread@std@@V?$allocator@Vthread@std@@@2@@std@@YAPEAVthread@0@QEAV10@0PEAV10@AEAV?$allocator@Vthread@std@@@0@@Z DD imagerel $LN7
	DD	imagerel $LN7+276
	DD	imagerel $unwind$??$_Uninitialized_move@PEAVthread@std@@V?$allocator@Vthread@std@@@2@@std@@YAPEAVthread@0@QEAV10@0PEAV10@AEAV?$allocator@Vthread@std@@@0@@Z
pdata	ENDS
;	COMDAT pdata
pdata	SEGMENT
$pdata$?dtor$0@?0???$_Uninitialized_move@PEAVthread@std@@V?$allocator@Vthread@std@@@2@@std@@YAPEAVthread@0@QEAV10@0PEAV10@AEAV?$allocator@Vthread@std@@@0@@Z@4HA DD imagerel ?dtor$0@?0???$_Uninitialized_move@PEAVthread@std@@V?$allocator@Vthread@std@@@2@@std@@YAPEAVthread@0@QEAV10@0PEAV10@AEAV?$allocator@Vthread@std@@@0@@Z@4HA
	DD	imagerel ?dtor$0@?0???$_Uninitialized_move@PEAVthread@std@@V?$allocator@Vthread@std@@@2@@std@@YAPEAVthread@0@QEAV10@0PEAV10@AEAV?$allocator@Vthread@std@@@0@@Z@4HA+36
	DD	imagerel $unwind$?dtor$0@?0???$_Uninitialized_move@PEAVthread@std@@V?$allocator@Vthread@std@@@2@@std@@YAPEAVthread@0@QEAV10@0PEAV10@AEAV?$allocator@Vthread@std@@@0@@Z@4HA
pdata	ENDS
;	COMDAT pdata
pdata	SEGMENT
$pdata$?deallocate@?$_Default_allocator_traits@V?$allocator@U_Container_proxy@std@@@std@@@std@@SAXAEAV?$allocator@U_Container_proxy@std@@@2@QEAU_Container_proxy@2@_K@Z DD imagerel $LN5
	DD	imagerel $LN5+114
	DD	imagerel $unwind$?deallocate@?$_Default_allocator_traits@V?$allocator@U_Container_proxy@std@@@std@@@std@@SAXAEAV?$allocator@U_Container_proxy@std@@@2@QEAU_Container_proxy@2@_K@Z
pdata	ENDS
;	COMDAT pdata
pdata	SEGMENT
$pdata$??$construct_at@V?$function@$$A6AXXZ@std@@AEBV12@$0A@@std@@YAPEAV?$function@$$A6AXXZ@0@QEAV10@AEBV10@@Z DD imagerel $LN3
	DD	imagerel $LN3+89
	DD	imagerel $unwind$??$construct_at@V?$function@$$A6AXXZ@std@@AEBV12@$0A@@std@@YAPEAV?$function@$$A6AXXZ@0@QEAV10@AEBV10@@Z
pdata	ENDS
;	COMDAT pdata
pdata	SEGMENT
$pdata$??$destroy_at@Vthread@std@@@std@@YAXQEAVthread@0@@Z DD imagerel $LN3
	DD	imagerel $LN3+55
	DD	imagerel $unwind$??$destroy_at@Vthread@std@@@std@@YAXQEAVthread@0@@Z
pdata	ENDS
;	COMDAT pdata
pdata	SEGMENT
$pdata$??$_Allocate_manually_vector_aligned@U_Default_allocate_traits@std@@@std@@YAPEAX_K@Z DD imagerel $LN13
	DD	imagerel $LN13+277
	DD	imagerel $unwind$??$_Allocate_manually_vector_aligned@U_Default_allocate_traits@std@@@std@@YAPEAX_K@Z
pdata	ENDS
;	COMDAT pdata
pdata	SEGMENT
$pdata$??$_Adl_verify_range@PEAPEAV?$function@$$A6AXXZ@std@@PEAPEAV12@@std@@YAXAEBQEAPEAV?$function@$$A6AXXZ@0@0@Z DD imagerel $LN3
	DD	imagerel $LN3+71
	DD	imagerel $unwind$??$_Adl_verify_range@PEAPEAV?$function@$$A6AXXZ@std@@PEAPEAV12@@std@@YAXAEBQEAPEAV?$function@$$A6AXXZ@0@0@Z
pdata	ENDS
;	COMDAT pdata
pdata	SEGMENT
$pdata$??$_Get_unwrapped@AEBQEAPEAV?$function@$$A6AXXZ@std@@@std@@YA?A_TAEBQEAPEAV?$function@$$A6AXXZ@0@@Z DD imagerel $LN3
	DD	imagerel $LN3+51
	DD	imagerel $unwind$??$_Get_unwrapped@AEBQEAPEAV?$function@$$A6AXXZ@std@@@std@@YA?A_TAEBQEAPEAV?$function@$$A6AXXZ@0@@Z
pdata	ENDS
;	COMDAT pdata
pdata	SEGMENT
$pdata$??$_Idl_distance@PEAPEAV?$function@$$A6AXXZ@std@@PEAPEAV12@@std@@YA?A_PAEBQEAPEAV?$function@$$A6AXXZ@0@0@Z DD imagerel $LN3
	DD	imagerel $LN3+73
	DD	imagerel $unwind$??$_Idl_distance@PEAPEAV?$function@$$A6AXXZ@std@@PEAPEAV12@@std@@YA?A_PAEBQEAPEAV?$function@$$A6AXXZ@0@0@Z
pdata	ENDS
;	COMDAT pdata
pdata	SEGMENT
$pdata$??$_Get_unwrapped_n@AEAPEAPEAV?$function@$$A6AXXZ@std@@_J@std@@YA?A_TAEAPEAPEAV?$function@$$A6AXXZ@0@_J@Z DD imagerel $LN3
	DD	imagerel $LN3+56
	DD	imagerel $unwind$??$_Get_unwrapped_n@AEAPEAPEAV?$function@$$A6AXXZ@std@@_J@std@@YA?A_TAEAPEAPEAV?$function@$$A6AXXZ@0@_J@Z
pdata	ENDS
;	COMDAT pdata
pdata	SEGMENT
$pdata$??$_Uninitialized_copy_unchecked@PEAPEAV?$function@$$A6AXXZ@std@@PEAPEAV12@@std@@YAPEAPEAV?$function@$$A6AXXZ@0@PEAPEAV10@QEAPEAV10@0@Z DD imagerel $LN8
	DD	imagerel $LN8+273
	DD	imagerel $unwind$??$_Uninitialized_copy_unchecked@PEAPEAV?$function@$$A6AXXZ@std@@PEAPEAV12@@std@@YAPEAPEAV?$function@$$A6AXXZ@0@PEAPEAV10@QEAPEAV10@0@Z
pdata	ENDS
;	COMDAT pdata
pdata	SEGMENT
$pdata$?dtor$0@?0???$_Uninitialized_copy_unchecked@PEAPEAV?$function@$$A6AXXZ@std@@PEAPEAV12@@std@@YAPEAPEAV?$function@$$A6AXXZ@0@PEAPEAV10@QEAPEAV10@0@Z@4HA DD imagerel ?dtor$0@?0???$_Uninitialized_copy_unchecked@PEAPEAV?$function@$$A6AXXZ@std@@PEAPEAV12@@std@@YAPEAPEAV?$function@$$A6AXXZ@0@PEAPEAV10@QEAPEAV10@0@Z@4HA
	DD	imagerel ?dtor$0@?0???$_Uninitialized_copy_unchecked@PEAPEAV?$function@$$A6AXXZ@std@@PEAPEAV12@@std@@YAPEAPEAV?$function@$$A6AXXZ@0@PEAPEAV10@QEAPEAV10@0@Z@4HA+36
	DD	imagerel $unwind$?dtor$0@?0???$_Uninitialized_copy_unchecked@PEAPEAV?$function@$$A6AXXZ@std@@PEAPEAV12@@std@@YAPEAPEAV?$function@$$A6AXXZ@0@PEAPEAV10@QEAPEAV10@0@Z@4HA
pdata	ENDS
;	COMDAT pdata
pdata	SEGMENT
$pdata$??$_Seek_wrapped@PEAPEAV?$function@$$A6AXXZ@std@@PEAPEAV12@@std@@YAXAEAPEAPEAV?$function@$$A6AXXZ@0@$$QEAPEAPEAV10@@Z DD imagerel $LN3
	DD	imagerel $LN3+66
	DD	imagerel $unwind$??$_Seek_wrapped@PEAPEAV?$function@$$A6AXXZ@std@@PEAPEAV12@@std@@YAXAEAPEAPEAV?$function@$$A6AXXZ@0@$$QEAPEAPEAV10@@Z
pdata	ENDS
;	COMDAT pdata
pdata	SEGMENT
$pdata$??$_Zero_range@PEAPEAV?$function@$$A6AXXZ@std@@@std@@YAPEAPEAV?$function@$$A6AXXZ@0@QEAPEAV10@0@Z DD imagerel $LN3
	DD	imagerel $LN3+113
	DD	imagerel $unwind$??$_Zero_range@PEAPEAV?$function@$$A6AXXZ@std@@@std@@YAPEAPEAV?$function@$$A6AXXZ@0@QEAPEAV10@0@Z
pdata	ENDS
;	COMDAT pdata
pdata	SEGMENT
$pdata$??$_Get_size_of_n@$07@std@@YA_K_K@Z DD imagerel $LN4
	DD	imagerel $LN4+94
	DD	imagerel $unwind$??$_Get_size_of_n@$07@std@@YA_K_K@Z
pdata	ENDS
;	COMDAT pdata
pdata	SEGMENT
$pdata$??$construct_at@Vthread@std@@V<lambda_1>@?3???0thread_pool@@QEAA@_K@Z@$0A@@std@@YAPEAVthread@0@QEAV10@$$QEAV<lambda_1>@?3???0thread_pool@@QEAA@_K@Z@@Z DD imagerel ??$construct_at@Vthread@std@@V<lambda_1>@?3???0thread_pool@@QEAA@_K@Z@$0A@@std@@YAPEAVthread@0@QEAV10@$$QEAV<lambda_1>@?3???0thread_pool@@QEAA@_K@Z@@Z
	DD	imagerel ??$construct_at@Vthread@std@@V<lambda_1>@?3???0thread_pool@@QEAA@_K@Z@$0A@@std@@YAPEAVthread@0@QEAV10@$$QEAV<lambda_1>@?3???0thread_pool@@QEAA@_K@Z@@Z+89
	DD	imagerel $unwind$??$construct_at@Vthread@std@@V<lambda_1>@?3???0thread_pool@@QEAA@_K@Z@$0A@@std@@YAPEAVthread@0@QEAV10@$$QEAV<lambda_1>@?3???0thread_pool@@QEAA@_K@Z@@Z
pdata	ENDS
;	COMDAT pdata
pdata	SEGMENT
$pdata$??$_Get_unwrapped@AEBQEAVthread@std@@@std@@YA?A_TAEBQEAVthread@0@@Z DD imagerel $LN3
	DD	imagerel $LN3+51
	DD	imagerel $unwind$??$_Get_unwrapped@AEBQEAVthread@std@@@std@@YA?A_TAEBQEAVthread@0@@Z
pdata	ENDS
;	COMDAT pdata
pdata	SEGMENT
$pdata$??0?$_Uninitialized_backout_al@V?$allocator@Vthread@std@@@std@@@std@@QEAA@PEAVthread@1@AEAV?$allocator@Vthread@std@@@1@@Z DD imagerel $LN3
	DD	imagerel $LN3+111
	DD	imagerel $unwind$??0?$_Uninitialized_backout_al@V?$allocator@Vthread@std@@@std@@@std@@QEAA@PEAVthread@1@AEAV?$allocator@Vthread@std@@@1@@Z
pdata	ENDS
;	COMDAT pdata
pdata	SEGMENT
$pdata$??1?$_Uninitialized_backout_al@V?$allocator@Vthread@std@@@std@@@std@@QEAA@XZ DD imagerel $LN3
	DD	imagerel $LN3+78
	DD	imagerel $unwind$??1?$_Uninitialized_backout_al@V?$allocator@Vthread@std@@@std@@@std@@QEAA@XZ
pdata	ENDS
;	COMDAT pdata
pdata	SEGMENT
$pdata$?_Release@?$_Uninitialized_backout_al@V?$allocator@Vthread@std@@@std@@@std@@QEAAPEAVthread@2@XZ DD imagerel $LN3
	DD	imagerel $LN3+73
	DD	imagerel $unwind$?_Release@?$_Uninitialized_backout_al@V?$allocator@Vthread@std@@@std@@@std@@QEAAPEAVthread@2@XZ
pdata	ENDS
;	COMDAT pdata
pdata	SEGMENT
$pdata$?__autoclassinit2@?$_Uninitialized_backout_al@V?$allocator@Vthread@std@@@std@@@std@@QEAAX_K@Z DD imagerel $LN3
	DD	imagerel $LN3+50
	DD	imagerel $unwind$?__autoclassinit2@?$_Uninitialized_backout_al@V?$allocator@Vthread@std@@@std@@@std@@QEAAX_K@Z
pdata	ENDS
;	COMDAT pdata
pdata	SEGMENT
$pdata$??$_Emplace_back@Vthread@std@@@?$_Uninitialized_backout_al@V?$allocator@Vthread@std@@@std@@@std@@QEAAX$$QEAVthread@1@@Z DD imagerel $LN3
	DD	imagerel $LN3+139
	DD	imagerel $unwind$??$_Emplace_back@Vthread@std@@@?$_Uninitialized_backout_al@V?$allocator@Vthread@std@@@std@@@std@@QEAAX$$QEAVthread@1@@Z
pdata	ENDS
;	COMDAT pdata
pdata	SEGMENT
$pdata$??$_Verify_range@PEAV?$function@$$A6AXXZ@std@@@std@@YAXQEBQEAV?$function@$$A6AXXZ@0@0@Z DD imagerel $LN12
	DD	imagerel $LN12+181
	DD	imagerel $unwind$??$_Verify_range@PEAV?$function@$$A6AXXZ@std@@@std@@YAXQEBQEAV?$function@$$A6AXXZ@0@0@Z
pdata	ENDS
;	COMDAT pdata
pdata	SEGMENT
$pdata$??$_Copy_memmove@PEAPEAV?$function@$$A6AXXZ@std@@PEAPEAV12@@std@@YAPEAPEAV?$function@$$A6AXXZ@0@PEAPEAV10@00@Z DD imagerel $LN3
	DD	imagerel $LN3+196
	DD	imagerel $unwind$??$_Copy_memmove@PEAPEAV?$function@$$A6AXXZ@std@@PEAPEAV12@@std@@YAPEAPEAV?$function@$$A6AXXZ@0@PEAPEAV10@00@Z
pdata	ENDS
;	COMDAT pdata
pdata	SEGMENT
$pdata$??0?$_Uninitialized_backout@PEAPEAV?$function@$$A6AXXZ@std@@@std@@QEAA@PEAPEAV?$function@$$A6AXXZ@1@@Z DD imagerel $LN3
	DD	imagerel $LN3+88
	DD	imagerel $unwind$??0?$_Uninitialized_backout@PEAPEAV?$function@$$A6AXXZ@std@@@std@@QEAA@PEAPEAV?$function@$$A6AXXZ@1@@Z
pdata	ENDS
;	COMDAT pdata
pdata	SEGMENT
$pdata$??1?$_Uninitialized_backout@PEAPEAV?$function@$$A6AXXZ@std@@@std@@QEAA@XZ DD imagerel $LN3
	DD	imagerel $LN3+67
	DD	imagerel $unwind$??1?$_Uninitialized_backout@PEAPEAV?$function@$$A6AXXZ@std@@@std@@QEAA@XZ
pdata	ENDS
;	COMDAT pdata
pdata	SEGMENT
$pdata$?_Release@?$_Uninitialized_backout@PEAPEAV?$function@$$A6AXXZ@std@@@std@@QEAAPEAPEAV?$function@$$A6AXXZ@2@XZ DD imagerel $LN3
	DD	imagerel $LN3+73
	DD	imagerel $unwind$?_Release@?$_Uninitialized_backout@PEAPEAV?$function@$$A6AXXZ@std@@@std@@QEAAPEAPEAV?$function@$$A6AXXZ@2@XZ
pdata	ENDS
;	COMDAT pdata
pdata	SEGMENT
$pdata$??$_Emplace_back@AEAPEAV?$function@$$A6AXXZ@std@@@?$_Uninitialized_backout@PEAPEAV?$function@$$A6AXXZ@std@@@std@@QEAAXAEAPEAV?$function@$$A6AXXZ@1@@Z DD imagerel $LN3
	DD	imagerel $LN3+95
	DD	imagerel $unwind$??$_Emplace_back@AEAPEAV?$function@$$A6AXXZ@std@@@?$_Uninitialized_backout@PEAPEAV?$function@$$A6AXXZ@std@@@std@@QEAAXAEAPEAV?$function@$$A6AXXZ@1@@Z
pdata	ENDS
;	COMDAT pdata
pdata	SEGMENT
$pdata$??$_To_address@PEAPEAV?$function@$$A6AXXZ@std@@@std@@YA?A_PAEBQEAPEAV?$function@$$A6AXXZ@0@@Z DD imagerel $LN3
	DD	imagerel $LN3+56
	DD	imagerel $unwind$??$_To_address@PEAPEAV?$function@$$A6AXXZ@std@@@std@@YA?A_PAEBQEAPEAV?$function@$$A6AXXZ@0@@Z
pdata	ENDS
;	COMDAT pdata
pdata	SEGMENT
$pdata$??$to_address@PEAV?$function@$$A6AXXZ@std@@@std@@YAPEAPEAV?$function@$$A6AXXZ@0@QEAPEAV10@@Z DD imagerel $LN3
	DD	imagerel $LN3+48
	DD	imagerel $unwind$??$to_address@PEAV?$function@$$A6AXXZ@std@@@std@@YAPEAPEAV?$function@$$A6AXXZ@0@QEAPEAV10@@Z
pdata	ENDS
;	COMDAT pdata
pdata	SEGMENT
$pdata$??$?0U_Exact_args_t@std@@$0A@@?$tuple@$$V@std@@QEAA@U_Exact_args_t@1@@Z DD imagerel $LN3
	DD	imagerel $LN3+52
	DD	imagerel $unwind$??$?0U_Exact_args_t@std@@$0A@@?$tuple@$$V@std@@QEAA@U_Exact_args_t@1@@Z
pdata	ENDS
;	COMDAT pdata
pdata	SEGMENT
$pdata$??$construct@Vthread@std@@V12@@?$_Default_allocator_traits@V?$allocator@Vthread@std@@@std@@@std@@SAXAEAV?$allocator@Vthread@std@@@1@QEAVthread@1@$$QEAV31@@Z DD imagerel $LN3
	DD	imagerel $LN3+70
	DD	imagerel $unwind$??$construct@Vthread@std@@V12@@?$_Default_allocator_traits@V?$allocator@Vthread@std@@@std@@@std@@SAXAEAV?$allocator@Vthread@std@@@1@QEAVthread@1@$$QEAV31@@Z
pdata	ENDS
;	COMDAT pdata
pdata	SEGMENT
$pdata$??$_Construct_in_place@PEAV?$function@$$A6AXXZ@std@@AEAPEAV12@@std@@YAXAEAPEAV?$function@$$A6AXXZ@0@0@Z DD imagerel $LN5
	DD	imagerel $LN5+139
	DD	imagerel $unwind$??$_Construct_in_place@PEAV?$function@$$A6AXXZ@std@@AEAPEAV12@@std@@YAXAEAPEAV?$function@$$A6AXXZ@0@0@Z
pdata	ENDS
;	COMDAT pdata
pdata	SEGMENT
$pdata$??$_Start@V<lambda_1>@?3???0thread_pool@@QEAA@_K@Z@$$V@thread@std@@AEAAX$$QEAV<lambda_1>@?3???0thread_pool@@QEAA@_K@Z@@Z DD imagerel ??$_Start@V<lambda_1>@?3???0thread_pool@@QEAA@_K@Z@$$V@thread@std@@AEAAX$$QEAV<lambda_1>@?3???0thread_pool@@QEAA@_K@Z@@Z
	DD	imagerel ??$_Start@V<lambda_1>@?3???0thread_pool@@QEAA@_K@Z@$$V@thread@std@@AEAAX$$QEAV<lambda_1>@?3???0thread_pool@@QEAA@_K@Z@@Z+293
	DD	imagerel $unwind$??$_Start@V<lambda_1>@?3???0thread_pool@@QEAA@_K@Z@$$V@thread@std@@AEAAX$$QEAV<lambda_1>@?3???0thread_pool@@QEAA@_K@Z@@Z
pdata	ENDS
;	COMDAT pdata
pdata	SEGMENT
$pdata$?dtor$0@?0???$_Start@V<lambda_1>@?3???0thread_pool@@QEAA@_K@Z@$$V@thread@std@@AEAAX$$QEAV<lambda_1>@?3???0thread_pool@@QEAA@_K@Z@@Z@4HA DD imagerel ?dtor$0@?0???$_Start@V<lambda_1>@?3???0thread_pool@@QEAA@_K@Z@$$V@thread@std@@AEAAX$$QEAV<lambda_1>@?3???0thread_pool@@QEAA@_K@Z@@Z@4HA
	DD	imagerel ?dtor$0@?0???$_Start@V<lambda_1>@?3???0thread_pool@@QEAA@_K@Z@$$V@thread@std@@AEAAX$$QEAV<lambda_1>@?3???0thread_pool@@QEAA@_K@Z@@Z@4HA+36
	DD	imagerel $unwind$?dtor$0@?0???$_Start@V<lambda_1>@?3???0thread_pool@@QEAA@_K@Z@$$V@thread@std@@AEAAX$$QEAV<lambda_1>@?3???0thread_pool@@QEAA@_K@Z@@Z@4HA
pdata	ENDS
;	COMDAT pdata
pdata	SEGMENT
$pdata$??$construct_at@Vthread@std@@V12@$0A@@std@@YAPEAVthread@0@QEAV10@$$QEAV10@@Z DD imagerel $LN3
	DD	imagerel $LN3+89
	DD	imagerel $unwind$??$construct_at@Vthread@std@@V12@$0A@@std@@YAPEAVthread@0@QEAV10@$$QEAV10@@Z
pdata	ENDS
;	COMDAT pdata
pdata	SEGMENT
$pdata$??$addressof@PEAV?$function@$$A6AXXZ@std@@@std@@YAPEAPEAV?$function@$$A6AXXZ@0@AEAPEAV10@@Z DD imagerel $LN3
	DD	imagerel $LN3+48
	DD	imagerel $unwind$??$addressof@PEAV?$function@$$A6AXXZ@std@@@std@@YAPEAPEAV?$function@$$A6AXXZ@0@AEAPEAV10@@Z
pdata	ENDS
;	COMDAT pdata
pdata	SEGMENT
$pdata$??$construct_at@PEAV?$function@$$A6AXXZ@std@@AEAPEAV12@$0A@@std@@YAPEAPEAV?$function@$$A6AXXZ@0@QEAPEAV10@AEAPEAV10@@Z DD imagerel $LN3
	DD	imagerel $LN3+97
	DD	imagerel $unwind$??$construct_at@PEAV?$function@$$A6AXXZ@std@@AEAPEAV12@$0A@@std@@YAPEAPEAV?$function@$$A6AXXZ@0@QEAPEAV10@AEAPEAV10@@Z
pdata	ENDS
;	COMDAT pdata
pdata	SEGMENT
$pdata$??$make_unique@V?$tuple@V<lambda_1>@?3???0thread_pool@@QEAA@_K@Z@@std@@V<lambda_1>@?3???0thread_pool@@QEAA@_K@Z@$0A@@std@@YA?AV?$unique_ptr@V?$tuple@V<lambda_1>@?3???0thread_pool@@QEAA@_K@Z@@std@@U?$default_delete@V?$tuple@V<lambda_1>@?3???0thread_pool@@QEAA@_K@Z@@std@@@2@@0@$$QEAV<lambda_1>@?3???0thread_pool@@QEAA@_K@Z@@Z DD imagerel ??$make_unique@V?$tuple@V<lambda_1>@?3???0thread_pool@@QEAA@_K@Z@@std@@V<lambda_1>@?3???0thread_pool@@QEAA@_K@Z@$0A@@std@@YA?AV?$unique_ptr@V?$tuple@V<lambda_1>@?3???0thread_pool@@QEAA@_K@Z@@std@@U?$default_delete@V?$tuple@V<lambda_1>@?3???0thread_pool@@QEAA@_K@Z@@std@@@2@@0@$$QEAV<lambda_1>@?3???0thread_pool@@QEAA@_K@Z@@Z
	DD	imagerel ??$make_unique@V?$tuple@V<lambda_1>@?3???0thread_pool@@QEAA@_K@Z@@std@@V<lambda_1>@?3???0thread_pool@@QEAA@_K@Z@$0A@@std@@YA?AV?$unique_ptr@V?$tuple@V<lambda_1>@?3???0thread_pool@@QEAA@_K@Z@@std@@U?$default_delete@V?$tuple@V<lambda_1>@?3???0thread_pool@@QEAA@_K@Z@@std@@@2@@0@$$QEAV<lambda_1>@?3???0thread_pool@@QEAA@_K@Z@@Z+163
	DD	imagerel $unwind$??$make_unique@V?$tuple@V<lambda_1>@?3???0thread_pool@@QEAA@_K@Z@@std@@V<lambda_1>@?3???0thread_pool@@QEAA@_K@Z@$0A@@std@@YA?AV?$unique_ptr@V?$tuple@V<lambda_1>@?3???0thread_pool@@QEAA@_K@Z@@std@@U?$default_delete@V?$tuple@V<lambda_1>@?3???0thread_pool@@QEAA@_K@Z@@std@@@2@@0@$$QEAV<lambda_1>@?3???0thread_pool@@QEAA@_K@Z@@Z
pdata	ENDS
;	COMDAT pdata
pdata	SEGMENT
$pdata$??R?$default_delete@V?$tuple@V<lambda_1>@?3???0thread_pool@@QEAA@_K@Z@@std@@@std@@QEBAXPEAV?$tuple@V<lambda_1>@?3???0thread_pool@@QEAA@_K@Z@@1@@Z DD imagerel ??R?$default_delete@V?$tuple@V<lambda_1>@?3???0thread_pool@@QEAA@_K@Z@@std@@@std@@QEBAXPEAV?$tuple@V<lambda_1>@?3???0thread_pool@@QEAA@_K@Z@@1@@Z
	DD	imagerel ??R?$default_delete@V?$tuple@V<lambda_1>@?3???0thread_pool@@QEAA@_K@Z@@std@@@std@@QEBAXPEAV?$tuple@V<lambda_1>@?3???0thread_pool@@QEAA@_K@Z@@1@@Z+125
	DD	imagerel $unwind$??R?$default_delete@V?$tuple@V<lambda_1>@?3???0thread_pool@@QEAA@_K@Z@@std@@@std@@QEBAXPEAV?$tuple@V<lambda_1>@?3???0thread_pool@@QEAA@_K@Z@@1@@Z
pdata	ENDS
;	COMDAT pdata
pdata	SEGMENT
$pdata$??1?$unique_ptr@V?$tuple@V<lambda_1>@?3???0thread_pool@@QEAA@_K@Z@@std@@U?$default_delete@V?$tuple@V<lambda_1>@?3???0thread_pool@@QEAA@_K@Z@@std@@@2@@std@@QEAA@XZ DD imagerel ??1?$unique_ptr@V?$tuple@V<lambda_1>@?3???0thread_pool@@QEAA@_K@Z@@std@@U?$default_delete@V?$tuple@V<lambda_1>@?3???0thread_pool@@QEAA@_K@Z@@std@@@2@@std@@QEAA@XZ
	DD	imagerel ??1?$unique_ptr@V?$tuple@V<lambda_1>@?3???0thread_pool@@QEAA@_K@Z@@std@@U?$default_delete@V?$tuple@V<lambda_1>@?3???0thread_pool@@QEAA@_K@Z@@std@@@2@@std@@QEAA@XZ+112
	DD	imagerel $unwind$??1?$unique_ptr@V?$tuple@V<lambda_1>@?3???0thread_pool@@QEAA@_K@Z@@std@@U?$default_delete@V?$tuple@V<lambda_1>@?3???0thread_pool@@QEAA@_K@Z@@std@@@2@@std@@QEAA@XZ
pdata	ENDS
;	COMDAT pdata
pdata	SEGMENT
$pdata$?get@?$unique_ptr@V?$tuple@V<lambda_1>@?3???0thread_pool@@QEAA@_K@Z@@std@@U?$default_delete@V?$tuple@V<lambda_1>@?3???0thread_pool@@QEAA@_K@Z@@std@@@2@@std@@QEBAPEAV?$tuple@V<lambda_1>@?3???0thread_pool@@QEAA@_K@Z@@2@XZ DD imagerel ?get@?$unique_ptr@V?$tuple@V<lambda_1>@?3???0thread_pool@@QEAA@_K@Z@@std@@U?$default_delete@V?$tuple@V<lambda_1>@?3???0thread_pool@@QEAA@_K@Z@@std@@@2@@std@@QEBAPEAV?$tuple@V<lambda_1>@?3???0thread_pool@@QEAA@_K@Z@@2@XZ
	DD	imagerel ?get@?$unique_ptr@V?$tuple@V<lambda_1>@?3???0thread_pool@@QEAA@_K@Z@@std@@U?$default_delete@V?$tuple@V<lambda_1>@?3???0thread_pool@@QEAA@_K@Z@@std@@@2@@std@@QEBAPEAV?$tuple@V<lambda_1>@?3???0thread_pool@@QEAA@_K@Z@@2@XZ+51
	DD	imagerel $unwind$?get@?$unique_ptr@V?$tuple@V<lambda_1>@?3???0thread_pool@@QEAA@_K@Z@@std@@U?$default_delete@V?$tuple@V<lambda_1>@?3???0thread_pool@@QEAA@_K@Z@@std@@@2@@std@@QEBAPEAV?$tuple@V<lambda_1>@?3???0thread_pool@@QEAA@_K@Z@@2@XZ
pdata	ENDS
;	COMDAT pdata
pdata	SEGMENT
$pdata$?release@?$unique_ptr@V?$tuple@V<lambda_1>@?3???0thread_pool@@QEAA@_K@Z@@std@@U?$default_delete@V?$tuple@V<lambda_1>@?3???0thread_pool@@QEAA@_K@Z@@std@@@2@@std@@QEAAPEAV?$tuple@V<lambda_1>@?3???0thread_pool@@QEAA@_K@Z@@2@XZ DD imagerel ?release@?$unique_ptr@V?$tuple@V<lambda_1>@?3???0thread_pool@@QEAA@_K@Z@@std@@U?$default_delete@V?$tuple@V<lambda_1>@?3???0thread_pool@@QEAA@_K@Z@@std@@@2@@std@@QEAAPEAV?$tuple@V<lambda_1>@?3???0thread_pool@@QEAA@_K@Z@@2@XZ
	DD	imagerel ?release@?$unique_ptr@V?$tuple@V<lambda_1>@?3???0thread_pool@@QEAA@_K@Z@@std@@U?$default_delete@V?$tuple@V<lambda_1>@?3???0thread_pool@@QEAA@_K@Z@@std@@@2@@std@@QEAAPEAV?$tuple@V<lambda_1>@?3???0thread_pool@@QEAA@_K@Z@@2@XZ+74
	DD	imagerel $unwind$?release@?$unique_ptr@V?$tuple@V<lambda_1>@?3???0thread_pool@@QEAA@_K@Z@@std@@U?$default_delete@V?$tuple@V<lambda_1>@?3???0thread_pool@@QEAA@_K@Z@@std@@@2@@std@@QEAAPEAV?$tuple@V<lambda_1>@?3???0thread_pool@@QEAA@_K@Z@@2@XZ
pdata	ENDS
;	COMDAT pdata
pdata	SEGMENT
$pdata$?_Get_first@?$_Compressed_pair@U?$default_delete@V?$tuple@V<lambda_1>@?3???0thread_pool@@QEAA@_K@Z@@std@@@std@@PEAV?$tuple@V<lambda_1>@?3???0thread_pool@@QEAA@_K@Z@@2@$00@std@@QEAAAEAU?$default_delete@V?$tuple@V<lambda_1>@?3???0thread_pool@@QEAA@_K@Z@@std@@@2@XZ DD imagerel ?_Get_first@?$_Compressed_pair@U?$default_delete@V?$tuple@V<lambda_1>@?3???0thread_pool@@QEAA@_K@Z@@std@@@std@@PEAV?$tuple@V<lambda_1>@?3???0thread_pool@@QEAA@_K@Z@@2@$00@std@@QEAAAEAU?$default_delete@V?$tuple@V<lambda_1>@?3???0thread_pool@@QEAA@_K@Z@@std@@@2@XZ
	DD	imagerel ?_Get_first@?$_Compressed_pair@U?$default_delete@V?$tuple@V<lambda_1>@?3???0thread_pool@@QEAA@_K@Z@@std@@@std@@PEAV?$tuple@V<lambda_1>@?3???0thread_pool@@QEAA@_K@Z@@2@$00@std@@QEAAAEAU?$default_delete@V?$tuple@V<lambda_1>@?3???0thread_pool@@QEAA@_K@Z@@std@@@2@XZ+48
	DD	imagerel $unwind$?_Get_first@?$_Compressed_pair@U?$default_delete@V?$tuple@V<lambda_1>@?3???0thread_pool@@QEAA@_K@Z@@std@@@std@@PEAV?$tuple@V<lambda_1>@?3???0thread_pool@@QEAA@_K@Z@@2@$00@std@@QEAAAEAU?$default_delete@V?$tuple@V<lambda_1>@?3???0thread_pool@@QEAA@_K@Z@@std@@@2@XZ
pdata	ENDS
;	COMDAT pdata
pdata	SEGMENT
$pdata$?__autoclassinit2@?$unique_ptr@V?$tuple@V<lambda_1>@?3???0thread_pool@@QEAA@_K@Z@@std@@U?$default_delete@V?$tuple@V<lambda_1>@?3???0thread_pool@@QEAA@_K@Z@@std@@@2@@std@@QEAAX_K@Z DD imagerel ?__autoclassinit2@?$unique_ptr@V?$tuple@V<lambda_1>@?3???0thread_pool@@QEAA@_K@Z@@std@@U?$default_delete@V?$tuple@V<lambda_1>@?3???0thread_pool@@QEAA@_K@Z@@std@@@2@@std@@QEAAX_K@Z
	DD	imagerel ?__autoclassinit2@?$unique_ptr@V?$tuple@V<lambda_1>@?3???0thread_pool@@QEAA@_K@Z@@std@@U?$default_delete@V?$tuple@V<lambda_1>@?3???0thread_pool@@QEAA@_K@Z@@std@@@2@@std@@QEAAX_K@Z+50
	DD	imagerel $unwind$?__autoclassinit2@?$unique_ptr@V?$tuple@V<lambda_1>@?3???0thread_pool@@QEAA@_K@Z@@std@@U?$default_delete@V?$tuple@V<lambda_1>@?3???0thread_pool@@QEAA@_K@Z@@std@@@2@@std@@QEAAX_K@Z
pdata	ENDS
;	COMDAT pdata
pdata	SEGMENT
$pdata$??$_Invoke@V?$tuple@V<lambda_1>@?3???0thread_pool@@QEAA@_K@Z@@std@@$0A@@thread@std@@CAIPEAX@Z DD imagerel ??$_Invoke@V?$tuple@V<lambda_1>@?3???0thread_pool@@QEAA@_K@Z@@std@@$0A@@thread@std@@CAIPEAX@Z
	DD	imagerel ??$_Invoke@V?$tuple@V<lambda_1>@?3???0thread_pool@@QEAA@_K@Z@@std@@$0A@@thread@std@@CAIPEAX@Z+208
	DD	imagerel $unwind$??$_Invoke@V?$tuple@V<lambda_1>@?3???0thread_pool@@QEAA@_K@Z@@std@@$0A@@thread@std@@CAIPEAX@Z
pdata	ENDS
;	COMDAT pdata
pdata	SEGMENT
$pdata$??$exchange@PEAV?$tuple@V<lambda_1>@?3???0thread_pool@@QEAA@_K@Z@@std@@$$T@std@@YAPEAV?$tuple@V<lambda_1>@?3???0thread_pool@@QEAA@_K@Z@@0@AEAPEAV10@$$QEA$$T@Z DD imagerel ??$exchange@PEAV?$tuple@V<lambda_1>@?3???0thread_pool@@QEAA@_K@Z@@std@@$$T@std@@YAPEAV?$tuple@V<lambda_1>@?3???0thread_pool@@QEAA@_K@Z@@0@AEAPEAV10@$$QEA$$T@Z
	DD	imagerel ??$exchange@PEAV?$tuple@V<lambda_1>@?3???0thread_pool@@QEAA@_K@Z@@std@@$$T@std@@YAPEAV?$tuple@V<lambda_1>@?3???0thread_pool@@QEAA@_K@Z@@0@AEAPEAV10@$$QEA$$T@Z+84
	DD	imagerel $unwind$??$exchange@PEAV?$tuple@V<lambda_1>@?3???0thread_pool@@QEAA@_K@Z@@std@@$$T@std@@YAPEAV?$tuple@V<lambda_1>@?3???0thread_pool@@QEAA@_K@Z@@0@AEAPEAV10@$$QEA$$T@Z
pdata	ENDS
;	COMDAT pdata
pdata	SEGMENT
$pdata$??$?0V<lambda_1>@?3???0thread_pool@@QEAA@_K@Z@$$V$0A@@?$tuple@V<lambda_1>@?3???0thread_pool@@QEAA@_K@Z@@std@@QEAA@$$QEAV<lambda_1>@?3???0thread_pool@@QEAA@_K@Z@@Z DD imagerel ??$?0V<lambda_1>@?3???0thread_pool@@QEAA@_K@Z@$$V$0A@@?$tuple@V<lambda_1>@?3???0thread_pool@@QEAA@_K@Z@@std@@QEAA@$$QEAV<lambda_1>@?3???0thread_pool@@QEAA@_K@Z@@Z
	DD	imagerel ??$?0V<lambda_1>@?3???0thread_pool@@QEAA@_K@Z@$$V$0A@@?$tuple@V<lambda_1>@?3???0thread_pool@@QEAA@_K@Z@@std@@QEAA@$$QEAV<lambda_1>@?3???0thread_pool@@QEAA@_K@Z@@Z+79
	DD	imagerel $unwind$??$?0V<lambda_1>@?3???0thread_pool@@QEAA@_K@Z@$$V$0A@@?$tuple@V<lambda_1>@?3???0thread_pool@@QEAA@_K@Z@@std@@QEAA@$$QEAV<lambda_1>@?3???0thread_pool@@QEAA@_K@Z@@Z
pdata	ENDS
;	COMDAT pdata
pdata	SEGMENT
$pdata$??$?0U?$default_delete@V?$tuple@V<lambda_1>@?3???0thread_pool@@QEAA@_K@Z@@std@@@std@@$0A@@?$unique_ptr@V?$tuple@V<lambda_1>@?3???0thread_pool@@QEAA@_K@Z@@std@@U?$default_delete@V?$tuple@V<lambda_1>@?3???0thread_pool@@QEAA@_K@Z@@std@@@2@@std@@QEAA@PEAV?$tuple@V<lambda_1>@?3???0thread_pool@@QEAA@_K@Z@@1@@Z DD imagerel ??$?0U?$default_delete@V?$tuple@V<lambda_1>@?3???0thread_pool@@QEAA@_K@Z@@std@@@std@@$0A@@?$unique_ptr@V?$tuple@V<lambda_1>@?3???0thread_pool@@QEAA@_K@Z@@std@@U?$default_delete@V?$tuple@V<lambda_1>@?3???0thread_pool@@QEAA@_K@Z@@std@@@2@@std@@QEAA@PEAV?$tuple@V<lambda_1>@?3???0thread_pool@@QEAA@_K@Z@@1@@Z
	DD	imagerel ??$?0U?$default_delete@V?$tuple@V<lambda_1>@?3???0thread_pool@@QEAA@_K@Z@@std@@@std@@$0A@@?$unique_ptr@V?$tuple@V<lambda_1>@?3???0thread_pool@@QEAA@_K@Z@@std@@U?$default_delete@V?$tuple@V<lambda_1>@?3???0thread_pool@@QEAA@_K@Z@@std@@@2@@std@@QEAA@PEAV?$tuple@V<lambda_1>@?3???0thread_pool@@QEAA@_K@Z@@1@@Z+93
	DD	imagerel $unwind$??$?0U?$default_delete@V?$tuple@V<lambda_1>@?3???0thread_pool@@QEAA@_K@Z@@std@@@std@@$0A@@?$unique_ptr@V?$tuple@V<lambda_1>@?3???0thread_pool@@QEAA@_K@Z@@std@@U?$default_delete@V?$tuple@V<lambda_1>@?3???0thread_pool@@QEAA@_K@Z@@std@@@2@@std@@QEAA@PEAV?$tuple@V<lambda_1>@?3???0thread_pool@@QEAA@_K@Z@@1@@Z
pdata	ENDS
;	COMDAT pdata
pdata	SEGMENT
$pdata$??$get@$0A@V<lambda_1>@?3???0thread_pool@@QEAA@_K@Z@@std@@YAAEAV<lambda_1>@?3???0thread_pool@@QEAA@_K@Z@AEAV?$tuple@V<lambda_1>@?3???0thread_pool@@QEAA@_K@Z@@0@@Z DD imagerel ??$get@$0A@V<lambda_1>@?3???0thread_pool@@QEAA@_K@Z@@std@@YAAEAV<lambda_1>@?3???0thread_pool@@QEAA@_K@Z@AEAV?$tuple@V<lambda_1>@?3???0thread_pool@@QEAA@_K@Z@@0@@Z
	DD	imagerel ??$get@$0A@V<lambda_1>@?3???0thread_pool@@QEAA@_K@Z@@std@@YAAEAV<lambda_1>@?3???0thread_pool@@QEAA@_K@Z@AEAV?$tuple@V<lambda_1>@?3???0thread_pool@@QEAA@_K@Z@@0@@Z+48
	DD	imagerel $unwind$??$get@$0A@V<lambda_1>@?3???0thread_pool@@QEAA@_K@Z@@std@@YAAEAV<lambda_1>@?3???0thread_pool@@QEAA@_K@Z@AEAV?$tuple@V<lambda_1>@?3???0thread_pool@@QEAA@_K@Z@@0@@Z
pdata	ENDS
;	COMDAT pdata
pdata	SEGMENT
$pdata$??$invoke@V<lambda_1>@?3???0thread_pool@@QEAA@_K@Z@@std@@YAX$$QEAV<lambda_1>@?3???0thread_pool@@QEAA@_K@Z@@Z DD imagerel ??$invoke@V<lambda_1>@?3???0thread_pool@@QEAA@_K@Z@@std@@YAX$$QEAV<lambda_1>@?3???0thread_pool@@QEAA@_K@Z@@Z
	DD	imagerel ??$invoke@V<lambda_1>@?3???0thread_pool@@QEAA@_K@Z@@std@@YAX$$QEAV<lambda_1>@?3???0thread_pool@@QEAA@_K@Z@@Z+53
	DD	imagerel $unwind$??$invoke@V<lambda_1>@?3???0thread_pool@@QEAA@_K@Z@@std@@YAX$$QEAV<lambda_1>@?3???0thread_pool@@QEAA@_K@Z@@Z
pdata	ENDS
;	COMDAT pdata
pdata	SEGMENT
$pdata$??$?0U_Exact_args_t@std@@V<lambda_1>@?3???0thread_pool@@QEAA@_K@Z@$$V$0A@@?$tuple@V<lambda_1>@?3???0thread_pool@@QEAA@_K@Z@@std@@QEAA@U_Exact_args_t@1@$$QEAV<lambda_1>@?3???0thread_pool@@QEAA@_K@Z@@Z DD imagerel ??$?0U_Exact_args_t@std@@V<lambda_1>@?3???0thread_pool@@QEAA@_K@Z@$$V$0A@@?$tuple@V<lambda_1>@?3???0thread_pool@@QEAA@_K@Z@@std@@QEAA@U_Exact_args_t@1@$$QEAV<lambda_1>@?3???0thread_pool@@QEAA@_K@Z@@Z
	DD	imagerel ??$?0U_Exact_args_t@std@@V<lambda_1>@?3???0thread_pool@@QEAA@_K@Z@$$V$0A@@?$tuple@V<lambda_1>@?3???0thread_pool@@QEAA@_K@Z@@std@@QEAA@U_Exact_args_t@1@$$QEAV<lambda_1>@?3???0thread_pool@@QEAA@_K@Z@@Z+109
	DD	imagerel $unwind$??$?0U_Exact_args_t@std@@V<lambda_1>@?3???0thread_pool@@QEAA@_K@Z@$$V$0A@@?$tuple@V<lambda_1>@?3???0thread_pool@@QEAA@_K@Z@@std@@QEAA@U_Exact_args_t@1@$$QEAV<lambda_1>@?3???0thread_pool@@QEAA@_K@Z@@Z
pdata	ENDS
;	COMDAT pdata
pdata	SEGMENT
$pdata$??$?0AEAPEAV?$tuple@V<lambda_1>@?3???0thread_pool@@QEAA@_K@Z@@std@@@?$_Compressed_pair@U?$default_delete@V?$tuple@V<lambda_1>@?3???0thread_pool@@QEAA@_K@Z@@std@@@std@@PEAV?$tuple@V<lambda_1>@?3???0thread_pool@@QEAA@_K@Z@@2@$00@std@@QEAA@U_Zero_then_variadic_args_t@1@AEAPEAV?$tuple@V<lambda_1>@?3???0thread_pool@@QEAA@_K@Z@@1@@Z DD imagerel ??$?0AEAPEAV?$tuple@V<lambda_1>@?3???0thread_pool@@QEAA@_K@Z@@std@@@?$_Compressed_pair@U?$default_delete@V?$tuple@V<lambda_1>@?3???0thread_pool@@QEAA@_K@Z@@std@@@std@@PEAV?$tuple@V<lambda_1>@?3???0thread_pool@@QEAA@_K@Z@@2@$00@std@@QEAA@U_Zero_then_variadic_args_t@1@AEAPEAV?$tuple@V<lambda_1>@?3???0thread_pool@@QEAA@_K@Z@@1@@Z
	DD	imagerel ??$?0AEAPEAV?$tuple@V<lambda_1>@?3???0thread_pool@@QEAA@_K@Z@@std@@@?$_Compressed_pair@U?$default_delete@V?$tuple@V<lambda_1>@?3???0thread_pool@@QEAA@_K@Z@@std@@@std@@PEAV?$tuple@V<lambda_1>@?3???0thread_pool@@QEAA@_K@Z@@2@$00@std@@QEAA@U_Zero_then_variadic_args_t@1@AEAPEAV?$tuple@V<lambda_1>@?3???0thread_pool@@QEAA@_K@Z@@1@@Z+77
	DD	imagerel $unwind$??$?0AEAPEAV?$tuple@V<lambda_1>@?3???0thread_pool@@QEAA@_K@Z@@std@@@?$_Compressed_pair@U?$default_delete@V?$tuple@V<lambda_1>@?3???0thread_pool@@QEAA@_K@Z@@std@@@std@@PEAV?$tuple@V<lambda_1>@?3???0thread_pool@@QEAA@_K@Z@@2@$00@std@@QEAA@U_Zero_then_variadic_args_t@1@AEAPEAV?$tuple@V<lambda_1>@?3???0thread_pool@@QEAA@_K@Z@@1@@Z
pdata	ENDS
;	COMDAT pdata
pdata	SEGMENT
$pdata$??$?0V<lambda_1>@?3???0thread_pool@@QEAA@_K@Z@@?$_Tuple_val@V<lambda_1>@?3???0thread_pool@@QEAA@_K@Z@@std@@QEAA@$$QEAV<lambda_1>@?3???0thread_pool@@QEAA@_K@Z@@Z DD imagerel ??$?0V<lambda_1>@?3???0thread_pool@@QEAA@_K@Z@@?$_Tuple_val@V<lambda_1>@?3???0thread_pool@@QEAA@_K@Z@@std@@QEAA@$$QEAV<lambda_1>@?3???0thread_pool@@QEAA@_K@Z@@Z
	DD	imagerel ??$?0V<lambda_1>@?3???0thread_pool@@QEAA@_K@Z@@?$_Tuple_val@V<lambda_1>@?3???0thread_pool@@QEAA@_K@Z@@std@@QEAA@$$QEAV<lambda_1>@?3???0thread_pool@@QEAA@_K@Z@@Z+73
	DD	imagerel $unwind$??$?0V<lambda_1>@?3???0thread_pool@@QEAA@_K@Z@@?$_Tuple_val@V<lambda_1>@?3???0thread_pool@@QEAA@_K@Z@@std@@QEAA@$$QEAV<lambda_1>@?3???0thread_pool@@QEAA@_K@Z@@Z
pdata	ENDS
;	COMDAT rtc$TMZ
rtc$TMZ	SEGMENT
_RTC_Shutdown.rtc$TMZ DQ FLAT:_RTC_Shutdown
rtc$TMZ	ENDS
;	COMDAT rtc$IMZ
rtc$IMZ	SEGMENT
_RTC_InitBase.rtc$IMZ DQ FLAT:_RTC_InitBase
rtc$IMZ	ENDS
;	COMDAT ??_R1A@?0A@EA@bad_array_new_length@std@@8
rdata$r	SEGMENT
??_R1A@?0A@EA@bad_array_new_length@std@@8 DD imagerel ??_R0?AVbad_array_new_length@std@@@8 ; std::bad_array_new_length::`RTTI Base Class Descriptor at (0,-1,0,64)'
	DD	02H
	DD	00H
	DD	0ffffffffH
	DD	00H
	DD	040H
	DD	imagerel ??_R3bad_array_new_length@std@@8
rdata$r	ENDS
;	COMDAT ??_R2bad_array_new_length@std@@8
rdata$r	SEGMENT
??_R2bad_array_new_length@std@@8 DD imagerel ??_R1A@?0A@EA@bad_array_new_length@std@@8 ; std::bad_array_new_length::`RTTI Base Class Array'
	DD	imagerel ??_R1A@?0A@EA@bad_alloc@std@@8
	DD	imagerel ??_R1A@?0A@EA@exception@std@@8
	ORG $+3
rdata$r	ENDS
;	COMDAT ??_R3bad_array_new_length@std@@8
rdata$r	SEGMENT
??_R3bad_array_new_length@std@@8 DD 00H			; std::bad_array_new_length::`RTTI Class Hierarchy Descriptor'
	DD	00H
	DD	03H
	DD	imagerel ??_R2bad_array_new_length@std@@8
rdata$r	ENDS
;	COMDAT ??_R4bad_array_new_length@std@@6B@
rdata$r	SEGMENT
??_R4bad_array_new_length@std@@6B@ DD 01H		; std::bad_array_new_length::`RTTI Complete Object Locator'
	DD	00H
	DD	00H
	DD	imagerel ??_R0?AVbad_array_new_length@std@@@8
	DD	imagerel ??_R3bad_array_new_length@std@@8
	DD	imagerel ??_R4bad_array_new_length@std@@6B@
rdata$r	ENDS
;	COMDAT ??_R1A@?0A@EA@bad_alloc@std@@8
rdata$r	SEGMENT
??_R1A@?0A@EA@bad_alloc@std@@8 DD imagerel ??_R0?AVbad_alloc@std@@@8 ; std::bad_alloc::`RTTI Base Class Descriptor at (0,-1,0,64)'
	DD	01H
	DD	00H
	DD	0ffffffffH
	DD	00H
	DD	040H
	DD	imagerel ??_R3bad_alloc@std@@8
rdata$r	ENDS
;	COMDAT ??_R2bad_alloc@std@@8
rdata$r	SEGMENT
??_R2bad_alloc@std@@8 DD imagerel ??_R1A@?0A@EA@bad_alloc@std@@8 ; std::bad_alloc::`RTTI Base Class Array'
	DD	imagerel ??_R1A@?0A@EA@exception@std@@8
	ORG $+3
rdata$r	ENDS
;	COMDAT ??_R3bad_alloc@std@@8
rdata$r	SEGMENT
??_R3bad_alloc@std@@8 DD 00H				; std::bad_alloc::`RTTI Class Hierarchy Descriptor'
	DD	00H
	DD	02H
	DD	imagerel ??_R2bad_alloc@std@@8
rdata$r	ENDS
;	COMDAT ??_R4bad_alloc@std@@6B@
rdata$r	SEGMENT
??_R4bad_alloc@std@@6B@ DD 01H				; std::bad_alloc::`RTTI Complete Object Locator'
	DD	00H
	DD	00H
	DD	imagerel ??_R0?AVbad_alloc@std@@@8
	DD	imagerel ??_R3bad_alloc@std@@8
	DD	imagerel ??_R4bad_alloc@std@@6B@
rdata$r	ENDS
;	COMDAT ??_R1A@?0A@EA@exception@std@@8
rdata$r	SEGMENT
??_R1A@?0A@EA@exception@std@@8 DD imagerel ??_R0?AVexception@std@@@8 ; std::exception::`RTTI Base Class Descriptor at (0,-1,0,64)'
	DD	00H
	DD	00H
	DD	0ffffffffH
	DD	00H
	DD	040H
	DD	imagerel ??_R3exception@std@@8
rdata$r	ENDS
;	COMDAT ??_R2exception@std@@8
rdata$r	SEGMENT
??_R2exception@std@@8 DD imagerel ??_R1A@?0A@EA@exception@std@@8 ; std::exception::`RTTI Base Class Array'
	ORG $+3
rdata$r	ENDS
;	COMDAT ??_R3exception@std@@8
rdata$r	SEGMENT
??_R3exception@std@@8 DD 00H				; std::exception::`RTTI Class Hierarchy Descriptor'
	DD	00H
	DD	01H
	DD	imagerel ??_R2exception@std@@8
rdata$r	ENDS
;	COMDAT ??_R4exception@std@@6B@
rdata$r	SEGMENT
??_R4exception@std@@6B@ DD 01H				; std::exception::`RTTI Complete Object Locator'
	DD	00H
	DD	00H
	DD	imagerel ??_R0?AVexception@std@@@8
	DD	imagerel ??_R3exception@std@@8
	DD	imagerel ??_R4exception@std@@6B@
rdata$r	ENDS
;	COMDAT ??_C@_0BC@KBDMBKEH@deque?$DMT?$DO?5too?5long@
CONST	SEGMENT
??_C@_0BC@KBDMBKEH@deque?$DMT?$DO?5too?5long@ DB 'deque<T> too long', 00H ; `string'
CONST	ENDS
;	COMDAT ??_C@_1BK@MHIKGOKE@?$AA?3?$AAA?$AAM?$AA?3?$AAa?$AAm?$AA?3?$AAP?$AAM?$AA?3?$AAp?$AAm@
CONST	SEGMENT
??_C@_1BK@MHIKGOKE@?$AA?3?$AAA?$AAM?$AA?3?$AAa?$AAm?$AA?3?$AAP?$AAM?$AA?3?$AAp?$AAm@ DB ':'
	DB	00H, 'A', 00H, 'M', 00H, ':', 00H, 'a', 00H, 'm', 00H, ':', 00H
	DB	'P', 00H, 'M', 00H, ':', 00H, 'p', 00H, 'm', 00H, 00H, 00H ; `string'
CONST	ENDS
;	COMDAT ??_C@_1HA@FACCKGGH@?$AA?$CC?$AAn?$AAu?$AAl?$AAl?$AA?5?$AAp?$AAo?$AAi?$AAn?$AAt?$AAe?$AAr?$AA?5?$AAc@
CONST	SEGMENT
??_C@_1HA@FACCKGGH@?$AA?$CC?$AAn?$AAu?$AAl?$AAl?$AA?5?$AAp?$AAo?$AAi?$AAn?$AAt?$AAe?$AAr?$AA?5?$AAc@ DB '"'
	DB	00H, 'n', 00H, 'u', 00H, 'l', 00H, 'l', 00H, ' ', 00H, 'p', 00H
	DB	'o', 00H, 'i', 00H, 'n', 00H, 't', 00H, 'e', 00H, 'r', 00H, ' '
	DB	00H, 'c', 00H, 'a', 00H, 'n', 00H, 'n', 00H, 'o', 00H, 't', 00H
	DB	' ', 00H, 'p', 00H, 'o', 00H, 'i', 00H, 'n', 00H, 't', 00H, ' '
	DB	00H, 't', 00H, 'o', 00H, ' ', 00H, 'a', 00H, ' ', 00H, 'b', 00H
	DB	'l', 00H, 'o', 00H, 'c', 00H, 'k', 00H, ' ', 00H, 'o', 00H, 'f'
	DB	00H, ' ', 00H, 'n', 00H, 'o', 00H, 'n', 00H, '-', 00H, 'z', 00H
	DB	'e', 00H, 'r', 00H, 'o', 00H, ' ', 00H, 's', 00H, 'i', 00H, 'z'
	DB	00H, 'e', 00H, '"', 00H, 00H, 00H		; `string'
CONST	ENDS
;	COMDAT ??_C@_0DG@KGHKKGBC@null?5pointer?5cannot?5point?5to?5a?5@
CONST	SEGMENT
??_C@_0DG@KGHKKGBC@null?5pointer?5cannot?5point?5to?5a?5@ DB 'null pointe'
	DB	'r cannot point to a block of non-zero size', 00H ; `string'
CONST	ENDS
;	COMDAT ??_C@_0BA@FOIKENOD@vector?5too?5long@
CONST	SEGMENT
??_C@_0BA@FOIKENOD@vector?5too?5long@ DB 'vector too long', 00H ; `string'
CONST	ENDS
;	COMDAT ??_C@_1EA@EELNAHHD@?$AA?$CC?$AAf?$AAr?$AAo?$AAn?$AAt?$AA?$CI?$AA?$CJ?$AA?5?$AAc?$AAa?$AAl?$AAl?$AAe?$AAd@
CONST	SEGMENT
??_C@_1EA@EELNAHHD@?$AA?$CC?$AAf?$AAr?$AAo?$AAn?$AAt?$AA?$CI?$AA?$CJ?$AA?5?$AAc?$AAa?$AAl?$AAl?$AAe?$AAd@ DB '"'
	DB	00H, 'f', 00H, 'r', 00H, 'o', 00H, 'n', 00H, 't', 00H, '(', 00H
	DB	')', 00H, ' ', 00H, 'c', 00H, 'a', 00H, 'l', 00H, 'l', 00H, 'e'
	DB	00H, 'd', 00H, ' ', 00H, 'o', 00H, 'n', 00H, ' ', 00H, 'e', 00H
	DB	'm', 00H, 'p', 00H, 't', 00H, 'y', 00H, ' ', 00H, 'd', 00H, 'e'
	DB	00H, 'q', 00H, 'u', 00H, 'e', 00H, '"', 00H, 00H, 00H ; `string'
CONST	ENDS
;	COMDAT ??_C@_0BO@PEOHNLIM@front?$CI?$CJ?5called?5on?5empty?5deque@
CONST	SEGMENT
??_C@_0BO@PEOHNLIM@front?$CI?$CJ?5called?5on?5empty?5deque@ DB 'front() c'
	DB	'alled on empty deque', 00H			; `string'
CONST	ENDS
;	COMDAT ??_C@_1DC@NJAACHCD@?$AA?$CC?$AAd?$AAe?$AAq?$AAu?$AAe?$AA?5?$AAe?$AAm?$AAp?$AAt?$AAy?$AA?5?$AAb?$AAe@
CONST	SEGMENT
??_C@_1DC@NJAACHCD@?$AA?$CC?$AAd?$AAe?$AAq?$AAu?$AAe?$AA?5?$AAe?$AAm?$AAp?$AAt?$AAy?$AA?5?$AAb?$AAe@ DB '"'
	DB	00H, 'd', 00H, 'e', 00H, 'q', 00H, 'u', 00H, 'e', 00H, ' ', 00H
	DB	'e', 00H, 'm', 00H, 'p', 00H, 't', 00H, 'y', 00H, ' ', 00H, 'b'
	DB	00H, 'e', 00H, 'f', 00H, 'o', 00H, 'r', 00H, 'e', 00H, ' ', 00H
	DB	'p', 00H, 'o', 00H, 'p', 00H, '"', 00H, 00H, 00H ; `string'
CONST	ENDS
;	COMDAT ??_C@_1MA@KDLMHFEF@?$AAC?$AA?3?$AA?2?$AAP?$AAr?$AAo?$AAg?$AAr?$AAa?$AAm?$AA?5?$AAF?$AAi?$AAl?$AAe@
CONST	SEGMENT
??_C@_1MA@KDLMHFEF@?$AAC?$AA?3?$AA?2?$AAP?$AAr?$AAo?$AAg?$AAr?$AAa?$AAm?$AA?5?$AAF?$AAi?$AAl?$AAe@ DB 'C'
	DB	00H, ':', 00H, '\', 00H, 'P', 00H, 'r', 00H, 'o', 00H, 'g', 00H
	DB	'r', 00H, 'a', 00H, 'm', 00H, ' ', 00H, 'F', 00H, 'i', 00H, 'l'
	DB	00H, 'e', 00H, 's', 00H, '\', 00H, 'M', 00H, 'i', 00H, 'c', 00H
	DB	'r', 00H, 'o', 00H, 's', 00H, 'o', 00H, 'f', 00H, 't', 00H, ' '
	DB	00H, 'V', 00H, 'i', 00H, 's', 00H, 'u', 00H, 'a', 00H, 'l', 00H
	DB	' ', 00H, 'S', 00H, 't', 00H, 'u', 00H, 'd', 00H, 'i', 00H, 'o'
	DB	00H, '\', 00H, '2', 00H, '0', 00H, '2', 00H, '2', 00H, '\', 00H
	DB	'C', 00H, 'o', 00H, 'm', 00H, 'm', 00H, 'u', 00H, 'n', 00H, 'i'
	DB	00H, 't', 00H, 'y', 00H, '\', 00H, 'V', 00H, 'C', 00H, '\', 00H
	DB	'T', 00H, 'o', 00H, 'o', 00H, 'l', 00H, 's', 00H, '\', 00H, 'M'
	DB	00H, 'S', 00H, 'V', 00H, 'C', 00H, '\', 00H, '1', 00H, '4', 00H
	DB	'.', 00H, '3', 00H, '8', 00H, '.', 00H, '3', 00H, '3', 00H, '1'
	DB	00H, '3', 00H, '0', 00H, '\', 00H, 'i', 00H, 'n', 00H, 'c', 00H
	DB	'l', 00H, 'u', 00H, 'd', 00H, 'e', 00H, '\', 00H, 'd', 00H, 'e'
	DB	00H, 'q', 00H, 'u', 00H, 'e', 00H, 00H, 00H	; `string'
CONST	ENDS
;	COMDAT ??_C@_0GA@OFLCKJGB@C?3?2Program?5Files?2Microsoft?5Visu@
CONST	SEGMENT
??_C@_0GA@OFLCKJGB@C?3?2Program?5Files?2Microsoft?5Visu@ DB 'C:\Program F'
	DB	'iles\Microsoft Visual Studio\2022\Community\VC\Tools\MSVC\14.'
	DB	'38.33130\include\deque', 00H		; `string'
CONST	ENDS
;	COMDAT ??_C@_0BH@EDKEEENI@deque?5empty?5before?5pop@
CONST	SEGMENT
??_C@_0BH@EDKEEENI@deque?5empty?5before?5pop@ DB 'deque empty before pop', 00H ; `string'
CONST	ENDS
;	COMDAT ??_C@_0N@LPFKKEBD@?3AM?3am?3PM?3pm@
CONST	SEGMENT
??_C@_0N@LPFKKEBD@?3AM?3am?3PM?3pm@ DB ':AM:am:PM:pm', 00H ; `string'
CONST	ENDS
;	COMDAT ??_C@_1DG@FJIKMGFD@?$AA?$CC?$AAt?$AAr?$AAa?$AAn?$AAs?$AAp?$AAo?$AAs?$AAe?$AAd?$AA?5?$AAp?$AAo?$AAi@
CONST	SEGMENT
??_C@_1DG@FJIKMGFD@?$AA?$CC?$AAt?$AAr?$AAa?$AAn?$AAs?$AAp?$AAo?$AAs?$AAe?$AAd?$AA?5?$AAp?$AAo?$AAi@ DB '"'
	DB	00H, 't', 00H, 'r', 00H, 'a', 00H, 'n', 00H, 's', 00H, 'p', 00H
	DB	'o', 00H, 's', 00H, 'e', 00H, 'd', 00H, ' ', 00H, 'p', 00H, 'o'
	DB	00H, 'i', 00H, 'n', 00H, 't', 00H, 'e', 00H, 'r', 00H, ' ', 00H
	DB	'r', 00H, 'a', 00H, 'n', 00H, 'g', 00H, 'e', 00H, '"', 00H, 00H
	DB	00H						; `string'
CONST	ENDS
;	COMDAT ??_C@_1MG@OMEADHM@?$AAC?$AA?3?$AA?2?$AAP?$AAr?$AAo?$AAg?$AAr?$AAa?$AAm?$AA?5?$AAF?$AAi?$AAl?$AAe@
CONST	SEGMENT
??_C@_1MG@OMEADHM@?$AAC?$AA?3?$AA?2?$AAP?$AAr?$AAo?$AAg?$AAr?$AAa?$AAm?$AA?5?$AAF?$AAi?$AAl?$AAe@ DB 'C'
	DB	00H, ':', 00H, '\', 00H, 'P', 00H, 'r', 00H, 'o', 00H, 'g', 00H
	DB	'r', 00H, 'a', 00H, 'm', 00H, ' ', 00H, 'F', 00H, 'i', 00H, 'l'
	DB	00H, 'e', 00H, 's', 00H, '\', 00H, 'M', 00H, 'i', 00H, 'c', 00H
	DB	'r', 00H, 'o', 00H, 's', 00H, 'o', 00H, 'f', 00H, 't', 00H, ' '
	DB	00H, 'V', 00H, 'i', 00H, 's', 00H, 'u', 00H, 'a', 00H, 'l', 00H
	DB	' ', 00H, 'S', 00H, 't', 00H, 'u', 00H, 'd', 00H, 'i', 00H, 'o'
	DB	00H, '\', 00H, '2', 00H, '0', 00H, '2', 00H, '2', 00H, '\', 00H
	DB	'C', 00H, 'o', 00H, 'm', 00H, 'm', 00H, 'u', 00H, 'n', 00H, 'i'
	DB	00H, 't', 00H, 'y', 00H, '\', 00H, 'V', 00H, 'C', 00H, '\', 00H
	DB	'T', 00H, 'o', 00H, 'o', 00H, 'l', 00H, 's', 00H, '\', 00H, 'M'
	DB	00H, 'S', 00H, 'V', 00H, 'C', 00H, '\', 00H, '1', 00H, '4', 00H
	DB	'.', 00H, '3', 00H, '8', 00H, '.', 00H, '3', 00H, '3', 00H, '1'
	DB	00H, '3', 00H, '0', 00H, '\', 00H, 'i', 00H, 'n', 00H, 'c', 00H
	DB	'l', 00H, 'u', 00H, 'd', 00H, 'e', 00H, '\', 00H, 'x', 00H, 'u'
	DB	00H, 't', 00H, 'i', 00H, 'l', 00H, 'i', 00H, 't', 00H, 'y', 00H
	DB	00H, 00H					; `string'
CONST	ENDS
;	COMDAT ??_C@_0GD@OFOHMBDA@C?3?2Program?5Files?2Microsoft?5Visu@
CONST	SEGMENT
??_C@_0GD@OFOHMBDA@C?3?2Program?5Files?2Microsoft?5Visu@ DB 'C:\Program F'
	DB	'iles\Microsoft Visual Studio\2022\Community\VC\Tools\MSVC\14.'
	DB	'38.33130\include\xutility', 00H		; `string'
CONST	ENDS
;	COMDAT ??_C@_0BJ@HAJGEHKO@transposed?5pointer?5range@
CONST	SEGMENT
??_C@_0BJ@HAJGEHKO@transposed?5pointer?5range@ DB 'transposed pointer ran'
	DB	'ge', 00H					; `string'
CONST	ENDS
;	COMDAT ??_C@_0GC@OOHEPMDG@C?3?2Program?5Files?2Microsoft?5Visu@
CONST	SEGMENT
??_C@_0GC@OOHEPMDG@C?3?2Program?5Files?2Microsoft?5Visu@ DB 'C:\Program F'
	DB	'iles\Microsoft Visual Studio\2022\Community\VC\Tools\MSVC\14.'
	DB	'38.33130\include\xlocnum', 00H		; `string'
CONST	ENDS
;	COMDAT ?__LINE__Var@?0??_Maklocwcs@std@@YAPEA_WPEB_W@Z@4JA
_DATA	SEGMENT
?__LINE__Var@?0??_Maklocwcs@std@@YAPEA_WPEB_W@Z@4JA DD 047H ; `std::_Maklocwcs'::`1'::__LINE__Var
_DATA	ENDS
;	COMDAT ??_C@_0GC@GNDJPOJH@C?3?2Program?5Files?2Microsoft?5Visu@
CONST	SEGMENT
??_C@_0GC@GNDJPOJH@C?3?2Program?5Files?2Microsoft?5Visu@ DB 'C:\Program F'
	DB	'iles\Microsoft Visual Studio\2022\Community\VC\Tools\MSVC\14.'
	DB	'38.33130\include\xlocale', 00H		; `string'
CONST	ENDS
;	COMDAT ??_C@_1CG@JNLFBNGN@?$AA?$CC?$AAi?$AAn?$AAv?$AAa?$AAl?$AAi?$AAd?$AA?5?$AAa?$AAr?$AAg?$AAu?$AAm?$AAe@
CONST	SEGMENT
??_C@_1CG@JNLFBNGN@?$AA?$CC?$AAi?$AAn?$AAv?$AAa?$AAl?$AAi?$AAd?$AA?5?$AAa?$AAr?$AAg?$AAu?$AAm?$AAe@ DB '"'
	DB	00H, 'i', 00H, 'n', 00H, 'v', 00H, 'a', 00H, 'l', 00H, 'i', 00H
	DB	'd', 00H, ' ', 00H, 'a', 00H, 'r', 00H, 'g', 00H, 'u', 00H, 'm'
	DB	00H, 'e', 00H, 'n', 00H, 't', 00H, '"', 00H, 00H, 00H ; `string'
CONST	ENDS
;	COMDAT ??_C@_11LOCGONAA@@
CONST	SEGMENT
??_C@_11LOCGONAA@@ DB 00H, 00H				; `string'
CONST	ENDS
;	COMDAT ??_C@_1ME@HBHJKKLJ@?$AAC?$AA?3?$AA?2?$AAP?$AAr?$AAo?$AAg?$AAr?$AAa?$AAm?$AA?5?$AAF?$AAi?$AAl?$AAe@
CONST	SEGMENT
??_C@_1ME@HBHJKKLJ@?$AAC?$AA?3?$AA?2?$AAP?$AAr?$AAo?$AAg?$AAr?$AAa?$AAm?$AA?5?$AAF?$AAi?$AAl?$AAe@ DB 'C'
	DB	00H, ':', 00H, '\', 00H, 'P', 00H, 'r', 00H, 'o', 00H, 'g', 00H
	DB	'r', 00H, 'a', 00H, 'm', 00H, ' ', 00H, 'F', 00H, 'i', 00H, 'l'
	DB	00H, 'e', 00H, 's', 00H, '\', 00H, 'M', 00H, 'i', 00H, 'c', 00H
	DB	'r', 00H, 'o', 00H, 's', 00H, 'o', 00H, 'f', 00H, 't', 00H, ' '
	DB	00H, 'V', 00H, 'i', 00H, 's', 00H, 'u', 00H, 'a', 00H, 'l', 00H
	DB	' ', 00H, 'S', 00H, 't', 00H, 'u', 00H, 'd', 00H, 'i', 00H, 'o'
	DB	00H, '\', 00H, '2', 00H, '0', 00H, '2', 00H, '2', 00H, '\', 00H
	DB	'C', 00H, 'o', 00H, 'm', 00H, 'm', 00H, 'u', 00H, 'n', 00H, 'i'
	DB	00H, 't', 00H, 'y', 00H, '\', 00H, 'V', 00H, 'C', 00H, '\', 00H
	DB	'T', 00H, 'o', 00H, 'o', 00H, 'l', 00H, 's', 00H, '\', 00H, 'M'
	DB	00H, 'S', 00H, 'V', 00H, 'C', 00H, '\', 00H, '1', 00H, '4', 00H
	DB	'.', 00H, '3', 00H, '8', 00H, '.', 00H, '3', 00H, '3', 00H, '1'
	DB	00H, '3', 00H, '0', 00H, '\', 00H, 'i', 00H, 'n', 00H, 'c', 00H
	DB	'l', 00H, 'u', 00H, 'd', 00H, 'e', 00H, '\', 00H, 'x', 00H, 'm'
	DB	00H, 'e', 00H, 'm', 00H, 'o', 00H, 'r', 00H, 'y', 00H, 00H, 00H ; `string'
CONST	ENDS
;	COMDAT ??_C@_0GC@MFPFMMDA@C?3?2Program?5Files?2Microsoft?5Visu@
CONST	SEGMENT
??_C@_0GC@MFPFMMDA@C?3?2Program?5Files?2Microsoft?5Visu@ DB 'C:\Program F'
	DB	'iles\Microsoft Visual Studio\2022\Community\VC\Tools\MSVC\14.'
	DB	'38.33130\include\xmemory', 00H		; `string'
CONST	ENDS
;	COMDAT ??_C@_02DKCKIIND@?$CFs@
CONST	SEGMENT
??_C@_02DKCKIIND@?$CFs@ DB '%s', 00H			; `string'
CONST	ENDS
;	COMDAT ??_C@_0BB@FCMFBGOM@invalid?5argument@
CONST	SEGMENT
??_C@_0BB@FCMFBGOM@invalid?5argument@ DB 'invalid argument', 00H ; `string'
CONST	ENDS
;	COMDAT ?__LINE__Var@?0??_Adjust_manually_vector_aligned@std@@YAXAEAPEAXAEA_K@Z@4JA
_DATA	SEGMENT
?__LINE__Var@?0??_Adjust_manually_vector_aligned@std@@YAXAEAPEAXAEA_K@Z@4JA DD 09aH ; `std::_Adjust_manually_vector_aligned'::`1'::__LINE__Var
_DATA	ENDS
;	COMDAT _CT??_R0?AVexception@std@@@8??0exception@std@@QEAA@AEBV01@@Z24
xdata$x	SEGMENT
_CT??_R0?AVexception@std@@@8??0exception@std@@QEAA@AEBV01@@Z24 DD 00H
	DD	imagerel ??_R0?AVexception@std@@@8
	DD	00H
	DD	0ffffffffH
	ORG $+4
	DD	018H
	DD	imagerel ??0exception@std@@QEAA@AEBV01@@Z
xdata$x	ENDS
;	COMDAT ??_R0?AVexception@std@@@8
data$r	SEGMENT
??_R0?AVexception@std@@@8 DQ FLAT:??_7type_info@@6B@	; std::exception `RTTI Type Descriptor'
	DQ	0000000000000000H
	DB	'.?AVexception@std@@', 00H
data$r	ENDS
;	COMDAT _CT??_R0?AVbad_alloc@std@@@8??0bad_alloc@std@@QEAA@AEBV01@@Z24
xdata$x	SEGMENT
_CT??_R0?AVbad_alloc@std@@@8??0bad_alloc@std@@QEAA@AEBV01@@Z24 DD 010H
	DD	imagerel ??_R0?AVbad_alloc@std@@@8
	DD	00H
	DD	0ffffffffH
	ORG $+4
	DD	018H
	DD	imagerel ??0bad_alloc@std@@QEAA@AEBV01@@Z
xdata$x	ENDS
;	COMDAT ??_R0?AVbad_alloc@std@@@8
data$r	SEGMENT
??_R0?AVbad_alloc@std@@@8 DQ FLAT:??_7type_info@@6B@	; std::bad_alloc `RTTI Type Descriptor'
	DQ	0000000000000000H
	DB	'.?AVbad_alloc@std@@', 00H
data$r	ENDS
;	COMDAT _CT??_R0?AVbad_array_new_length@std@@@8??0bad_array_new_length@std@@QEAA@AEBV01@@Z24
xdata$x	SEGMENT
_CT??_R0?AVbad_array_new_length@std@@@8??0bad_array_new_length@std@@QEAA@AEBV01@@Z24 DD 00H
	DD	imagerel ??_R0?AVbad_array_new_length@std@@@8
	DD	00H
	DD	0ffffffffH
	ORG $+4
	DD	018H
	DD	imagerel ??0bad_array_new_length@std@@QEAA@AEBV01@@Z
xdata$x	ENDS
;	COMDAT ??_R0?AVbad_array_new_length@std@@@8
data$r	SEGMENT
??_R0?AVbad_array_new_length@std@@@8 DQ FLAT:??_7type_info@@6B@ ; std::bad_array_new_length `RTTI Type Descriptor'
	DQ	0000000000000000H
	DB	'.?AVbad_array_new_length@std@@', 00H
data$r	ENDS
;	COMDAT _CTA3?AVbad_array_new_length@std@@
xdata$x	SEGMENT
_CTA3?AVbad_array_new_length@std@@ DD 03H
	DD	imagerel _CT??_R0?AVbad_array_new_length@std@@@8??0bad_array_new_length@std@@QEAA@AEBV01@@Z24
	DD	imagerel _CT??_R0?AVbad_alloc@std@@@8??0bad_alloc@std@@QEAA@AEBV01@@Z24
	DD	imagerel _CT??_R0?AVexception@std@@@8??0exception@std@@QEAA@AEBV01@@Z24
xdata$x	ENDS
;	COMDAT _TI3?AVbad_array_new_length@std@@
xdata$x	SEGMENT
_TI3?AVbad_array_new_length@std@@ DD 00H
	DD	imagerel ??1bad_array_new_length@std@@UEAA@XZ
	DD	00H
	DD	imagerel _CTA3?AVbad_array_new_length@std@@
xdata$x	ENDS
;	COMDAT ??_C@_0BF@KINCDENJ@bad?5array?5new?5length@
CONST	SEGMENT
??_C@_0BF@KINCDENJ@bad?5array?5new?5length@ DB 'bad array new length', 00H ; `string'
CONST	ENDS
;	COMDAT ??_7bad_array_new_length@std@@6B@
CONST	SEGMENT
??_7bad_array_new_length@std@@6B@ DQ FLAT:??_R4bad_array_new_length@std@@6B@ ; std::bad_array_new_length::`vftable'
	DQ	FLAT:??_Ebad_array_new_length@std@@UEAAPEAXI@Z
	DQ	FLAT:?what@exception@std@@UEBAPEBDXZ
CONST	ENDS
;	COMDAT ??_7bad_alloc@std@@6B@
CONST	SEGMENT
??_7bad_alloc@std@@6B@ DQ FLAT:??_R4bad_alloc@std@@6B@	; std::bad_alloc::`vftable'
	DQ	FLAT:??_Ebad_alloc@std@@UEAAPEAXI@Z
	DQ	FLAT:?what@exception@std@@UEBAPEBDXZ
CONST	ENDS
;	COMDAT ??_C@_0BC@EOODALEL@Unknown?5exception@
CONST	SEGMENT
??_C@_0BC@EOODALEL@Unknown?5exception@ DB 'Unknown exception', 00H ; `string'
CONST	ENDS
;	COMDAT ??_7exception@std@@6B@
CONST	SEGMENT
??_7exception@std@@6B@ DQ FLAT:??_R4exception@std@@6B@	; std::exception::`vftable'
	DQ	FLAT:??_Eexception@std@@UEAAPEAXI@Z
	DQ	FLAT:?what@exception@std@@UEBAPEBDXZ
CONST	ENDS
;	COMDAT xdata
xdata	SEGMENT
$unwind$??$?0V<lambda_1>@?3???0thread_pool@@QEAA@_K@Z@@?$_Tuple_val@V<lambda_1>@?3???0thread_pool@@QEAA@_K@Z@@std@@QEAA@$$QEAV<lambda_1>@?3???0thread_pool@@QEAA@_K@Z@@Z DD 025051801H
	DD	01132318H
	DD	0700c001dH
	DD	0500bH
xdata	ENDS
;	COMDAT xdata
xdata	SEGMENT
$unwind$??$?0AEAPEAV?$tuple@V<lambda_1>@?3???0thread_pool@@QEAA@_K@Z@@std@@@?$_Compressed_pair@U?$default_delete@V?$tuple@V<lambda_1>@?3???0thread_pool@@QEAA@_K@Z@@std@@@std@@PEAV?$tuple@V<lambda_1>@?3???0thread_pool@@QEAA@_K@Z@@2@$00@std@@QEAA@U_Zero_then_variadic_args_t@1@AEAPEAV?$tuple@V<lambda_1>@?3???0thread_pool@@QEAA@_K@Z@@1@@Z DD 025051c01H
	DD	0117231cH
	DD	07010001dH
	DD	0500fH
xdata	ENDS
;	COMDAT xdata
xdata	SEGMENT
$unwind$??$?0U_Exact_args_t@std@@V<lambda_1>@?3???0thread_pool@@QEAA@_K@Z@$$V$0A@@?$tuple@V<lambda_1>@?3???0thread_pool@@QEAA@_K@Z@@std@@QEAA@U_Exact_args_t@1@$$QEAV<lambda_1>@?3???0thread_pool@@QEAA@_K@Z@@Z DD 025051c01H
	DD	0117231cH
	DD	070100021H
	DD	0500fH
xdata	ENDS
;	COMDAT xdata
xdata	SEGMENT
$unwind$??$invoke@V<lambda_1>@?3???0thread_pool@@QEAA@_K@Z@@std@@YAX$$QEAV<lambda_1>@?3???0thread_pool@@QEAA@_K@Z@@Z DD 025051301H
	DD	010e2313H
	DD	07007001dH
	DD	05006H
xdata	ENDS
;	COMDAT xdata
xdata	SEGMENT
$unwind$??$get@$0A@V<lambda_1>@?3???0thread_pool@@QEAA@_K@Z@@std@@YAAEAV<lambda_1>@?3???0thread_pool@@QEAA@_K@Z@AEAV?$tuple@V<lambda_1>@?3???0thread_pool@@QEAA@_K@Z@@0@@Z DD 025051301H
	DD	010e2313H
	DD	07007001dH
	DD	05006H
xdata	ENDS
;	COMDAT xdata
xdata	SEGMENT
$unwind$??$?0U?$default_delete@V?$tuple@V<lambda_1>@?3???0thread_pool@@QEAA@_K@Z@@std@@@std@@$0A@@?$unique_ptr@V?$tuple@V<lambda_1>@?3???0thread_pool@@QEAA@_K@Z@@std@@U?$default_delete@V?$tuple@V<lambda_1>@?3???0thread_pool@@QEAA@_K@Z@@std@@@2@@std@@QEAA@PEAV?$tuple@V<lambda_1>@?3???0thread_pool@@QEAA@_K@Z@@1@@Z DD 025051801H
	DD	01132318H
	DD	0700c0021H
	DD	0500bH
xdata	ENDS
;	COMDAT xdata
xdata	SEGMENT
$ip2state$??$?0V<lambda_1>@?3???0thread_pool@@QEAA@_K@Z@$$V$0A@@?$tuple@V<lambda_1>@?3???0thread_pool@@QEAA@_K@Z@@std@@QEAA@$$QEAV<lambda_1>@?3???0thread_pool@@QEAA@_K@Z@@Z DB 02H
	DB	00H
	DB	00H
xdata	ENDS
;	COMDAT xdata
xdata	SEGMENT
$cppxdata$??$?0V<lambda_1>@?3???0thread_pool@@QEAA@_K@Z@$$V$0A@@?$tuple@V<lambda_1>@?3???0thread_pool@@QEAA@_K@Z@@std@@QEAA@$$QEAV<lambda_1>@?3???0thread_pool@@QEAA@_K@Z@@Z DB 060H
	DD	imagerel $ip2state$??$?0V<lambda_1>@?3???0thread_pool@@QEAA@_K@Z@$$V$0A@@?$tuple@V<lambda_1>@?3???0thread_pool@@QEAA@_K@Z@@std@@QEAA@$$QEAV<lambda_1>@?3???0thread_pool@@QEAA@_K@Z@@Z
xdata	ENDS
;	COMDAT xdata
xdata	SEGMENT
$unwind$??$?0V<lambda_1>@?3???0thread_pool@@QEAA@_K@Z@$$V$0A@@?$tuple@V<lambda_1>@?3???0thread_pool@@QEAA@_K@Z@@std@@QEAA@$$QEAV<lambda_1>@?3???0thread_pool@@QEAA@_K@Z@@Z DD 025051819H
	DD	01132318H
	DD	0700c0021H
	DD	0500bH
	DD	imagerel __CxxFrameHandler4
	DD	imagerel $cppxdata$??$?0V<lambda_1>@?3???0thread_pool@@QEAA@_K@Z@$$V$0A@@?$tuple@V<lambda_1>@?3???0thread_pool@@QEAA@_K@Z@@std@@QEAA@$$QEAV<lambda_1>@?3???0thread_pool@@QEAA@_K@Z@@Z
xdata	ENDS
;	COMDAT xdata
xdata	SEGMENT
$unwind$??$exchange@PEAV?$tuple@V<lambda_1>@?3???0thread_pool@@QEAA@_K@Z@@std@@$$T@std@@YAPEAV?$tuple@V<lambda_1>@?3???0thread_pool@@QEAA@_K@Z@@0@AEAPEAV10@$$QEA$$T@Z DD 025051801H
	DD	01132318H
	DD	0700c0021H
	DD	0500bH
xdata	ENDS
;	COMDAT voltbl
voltbl	SEGMENT
_volmd	DB	036H
	DB	0b7H
voltbl	ENDS
;	COMDAT xdata
xdata	SEGMENT
$ip2state$??$_Invoke@V?$tuple@V<lambda_1>@?3???0thread_pool@@QEAA@_K@Z@@std@@$0A@@thread@std@@CAIPEAX@Z DB 02H
	DB	00H
	DB	00H
xdata	ENDS
;	COMDAT xdata
xdata	SEGMENT
$cppxdata$??$_Invoke@V?$tuple@V<lambda_1>@?3???0thread_pool@@QEAA@_K@Z@@std@@$0A@@thread@std@@CAIPEAX@Z DB 060H
	DD	imagerel $ip2state$??$_Invoke@V?$tuple@V<lambda_1>@?3???0thread_pool@@QEAA@_K@Z@@std@@$0A@@thread@std@@CAIPEAX@Z
xdata	ENDS
;	COMDAT xdata
xdata	SEGMENT
$unwind$??$_Invoke@V?$tuple@V<lambda_1>@?3???0thread_pool@@QEAA@_K@Z@@std@@$0A@@thread@std@@CAIPEAX@Z DD 025053d19H
	DD	010e2313H
	DD	070070029H
	DD	05006H
	DD	imagerel __GSHandlerCheck_EH4
	DD	imagerel $cppxdata$??$_Invoke@V?$tuple@V<lambda_1>@?3???0thread_pool@@QEAA@_K@Z@@std@@$0A@@thread@std@@CAIPEAX@Z
	DD	013bH
xdata	ENDS
;	COMDAT CONST
CONST	SEGMENT
??$_Invoke@V?$tuple@V<lambda_1>@?3???0thread_pool@@QEAA@_K@Z@@std@@$0A@@thread@std@@CAIPEAX@Z$rtcName$0 DB 05fH ; std::thread::_Invoke<std::tuple<`thread_pool::thread_pool'::`4'::<lambda_1> >,0>
	DB	046H
	DB	06eH
	DB	056H
	DB	061H
	DB	06cH
	DB	073H
	DB	00H
	ORG $+8
??$_Invoke@V?$tuple@V<lambda_1>@?3???0thread_pool@@QEAA@_K@Z@@std@@$0A@@thread@std@@CAIPEAX@Z$rtcVarDesc DD 028H ; std::thread::_Invoke<std::tuple<`thread_pool::thread_pool'::`4'::<lambda_1> >,0>
	DD	08H
	DQ	FLAT:??$_Invoke@V?$tuple@V<lambda_1>@?3???0thread_pool@@QEAA@_K@Z@@std@@$0A@@thread@std@@CAIPEAX@Z$rtcName$0
	ORG $+48
??$_Invoke@V?$tuple@V<lambda_1>@?3???0thread_pool@@QEAA@_K@Z@@std@@$0A@@thread@std@@CAIPEAX@Z$rtcFrameData DD 01H ; std::thread::_Invoke<std::tuple<`thread_pool::thread_pool'::`4'::<lambda_1> >,0>
	DD	00H
	DQ	FLAT:??$_Invoke@V?$tuple@V<lambda_1>@?3???0thread_pool@@QEAA@_K@Z@@std@@$0A@@thread@std@@CAIPEAX@Z$rtcVarDesc
CONST	ENDS
;	COMDAT xdata
xdata	SEGMENT
$unwind$?__autoclassinit2@?$unique_ptr@V?$tuple@V<lambda_1>@?3???0thread_pool@@QEAA@_K@Z@@std@@U?$default_delete@V?$tuple@V<lambda_1>@?3???0thread_pool@@QEAA@_K@Z@@std@@@2@@std@@QEAAX_K@Z DD 05051601H
	DD	01130316H
	DD	0700c0019H
	DD	0500bH
xdata	ENDS
;	COMDAT xdata
xdata	SEGMENT
$unwind$?_Get_first@?$_Compressed_pair@U?$default_delete@V?$tuple@V<lambda_1>@?3???0thread_pool@@QEAA@_K@Z@@std@@@std@@PEAV?$tuple@V<lambda_1>@?3???0thread_pool@@QEAA@_K@Z@@2@$00@std@@QEAAAEAU?$default_delete@V?$tuple@V<lambda_1>@?3???0thread_pool@@QEAA@_K@Z@@std@@@2@XZ DD 025051301H
	DD	010e2313H
	DD	07007001dH
	DD	05006H
xdata	ENDS
;	COMDAT xdata
xdata	SEGMENT
$unwind$?release@?$unique_ptr@V?$tuple@V<lambda_1>@?3???0thread_pool@@QEAA@_K@Z@@std@@U?$default_delete@V?$tuple@V<lambda_1>@?3???0thread_pool@@QEAA@_K@Z@@std@@@2@@std@@QEAAPEAV?$tuple@V<lambda_1>@?3???0thread_pool@@QEAA@_K@Z@@2@XZ DD 025051301H
	DD	010e2313H
	DD	070070021H
	DD	05006H
xdata	ENDS
;	COMDAT xdata
xdata	SEGMENT
$unwind$?get@?$unique_ptr@V?$tuple@V<lambda_1>@?3???0thread_pool@@QEAA@_K@Z@@std@@U?$default_delete@V?$tuple@V<lambda_1>@?3???0thread_pool@@QEAA@_K@Z@@std@@@2@@std@@QEBAPEAV?$tuple@V<lambda_1>@?3???0thread_pool@@QEAA@_K@Z@@2@XZ DD 025051301H
	DD	010e2313H
	DD	07007001dH
	DD	05006H
xdata	ENDS
;	COMDAT xdata
xdata	SEGMENT
$unwind$??1?$unique_ptr@V?$tuple@V<lambda_1>@?3???0thread_pool@@QEAA@_K@Z@@std@@U?$default_delete@V?$tuple@V<lambda_1>@?3???0thread_pool@@QEAA@_K@Z@@std@@@2@@std@@QEAA@XZ DD 025051301H
	DD	010e2313H
	DD	07007001fH
	DD	05006H
xdata	ENDS
;	COMDAT xdata
xdata	SEGMENT
$unwind$??R?$default_delete@V?$tuple@V<lambda_1>@?3???0thread_pool@@QEAA@_K@Z@@std@@@std@@QEBAXPEAV?$tuple@V<lambda_1>@?3???0thread_pool@@QEAA@_K@Z@@1@@Z DD 025051801H
	DD	01132318H
	DD	0700c0021H
	DD	0500bH
xdata	ENDS
;	COMDAT xdata
xdata	SEGMENT
$unwind$??$make_unique@V?$tuple@V<lambda_1>@?3???0thread_pool@@QEAA@_K@Z@@std@@V<lambda_1>@?3???0thread_pool@@QEAA@_K@Z@$0A@@std@@YA?AV?$unique_ptr@V?$tuple@V<lambda_1>@?3???0thread_pool@@QEAA@_K@Z@@std@@U?$default_delete@V?$tuple@V<lambda_1>@?3???0thread_pool@@QEAA@_K@Z@@std@@@2@@0@$$QEAV<lambda_1>@?3???0thread_pool@@QEAA@_K@Z@@Z DD 025051801H
	DD	01132318H
	DD	0700c0025H
	DD	0500bH
xdata	ENDS
;	COMDAT xdata
xdata	SEGMENT
$unwind$??$construct_at@PEAV?$function@$$A6AXXZ@std@@AEAPEAV12@$0A@@std@@YAPEAPEAV?$function@$$A6AXXZ@0@QEAPEAV10@AEAPEAV10@@Z DD 025051801H
	DD	01132318H
	DD	0700c0021H
	DD	0500bH
xdata	ENDS
;	COMDAT xdata
xdata	SEGMENT
$unwind$??$addressof@PEAV?$function@$$A6AXXZ@std@@@std@@YAPEAPEAV?$function@$$A6AXXZ@0@AEAPEAV10@@Z DD 025051301H
	DD	010e2313H
	DD	07007001dH
	DD	05006H
xdata	ENDS
;	COMDAT xdata
xdata	SEGMENT
$unwind$??$construct_at@Vthread@std@@V12@$0A@@std@@YAPEAVthread@0@QEAV10@$$QEAV10@@Z DD 025051801H
	DD	01132318H
	DD	0700c0021H
	DD	0500bH
xdata	ENDS
;	COMDAT voltbl
voltbl	SEGMENT
_volmd	DB	00H
	DB	05H
voltbl	ENDS
;	COMDAT voltbl
voltbl	SEGMENT
_volmd	DW	03bH
	DW	010cH
voltbl	ENDS
;	COMDAT xdata
xdata	SEGMENT
$unwind$?dtor$0@?0???$_Start@V<lambda_1>@?3???0thread_pool@@QEAA@_K@Z@$$V@thread@std@@AEAAX$$QEAV<lambda_1>@?3???0thread_pool@@QEAA@_K@Z@@Z@4HA DD 031001H
	DD	0700c4210H
	DD	0500bH
xdata	ENDS
;	COMDAT xdata
xdata	SEGMENT
$ip2state$??$_Start@V<lambda_1>@?3???0thread_pool@@QEAA@_K@Z@$$V@thread@std@@AEAAX$$QEAV<lambda_1>@?3???0thread_pool@@QEAA@_K@Z@@Z DB 06H
	DB	00H
	DB	00H
	DB	0daH
	DB	02H
	DB	019H, 02H
	DB	00H
xdata	ENDS
;	COMDAT xdata
xdata	SEGMENT
$stateUnwindMap$??$_Start@V<lambda_1>@?3???0thread_pool@@QEAA@_K@Z@$$V@thread@std@@AEAAX$$QEAV<lambda_1>@?3???0thread_pool@@QEAA@_K@Z@@Z DB 02H
	DB	0eH
	DD	imagerel ?dtor$0@?0???$_Start@V<lambda_1>@?3???0thread_pool@@QEAA@_K@Z@$$V@thread@std@@AEAAX$$QEAV<lambda_1>@?3???0thread_pool@@QEAA@_K@Z@@Z@4HA
xdata	ENDS
;	COMDAT xdata
xdata	SEGMENT
$cppxdata$??$_Start@V<lambda_1>@?3???0thread_pool@@QEAA@_K@Z@$$V@thread@std@@AEAAX$$QEAV<lambda_1>@?3???0thread_pool@@QEAA@_K@Z@@Z DB 028H
	DD	imagerel $stateUnwindMap$??$_Start@V<lambda_1>@?3???0thread_pool@@QEAA@_K@Z@$$V@thread@std@@AEAAX$$QEAV<lambda_1>@?3???0thread_pool@@QEAA@_K@Z@@Z
	DD	imagerel $ip2state$??$_Start@V<lambda_1>@?3???0thread_pool@@QEAA@_K@Z@$$V@thread@std@@AEAAX$$QEAV<lambda_1>@?3???0thread_pool@@QEAA@_K@Z@@Z
xdata	ENDS
;	COMDAT xdata
xdata	SEGMENT
$unwind$??$_Start@V<lambda_1>@?3???0thread_pool@@QEAA@_K@Z@$$V@thread@std@@AEAAX$$QEAV<lambda_1>@?3???0thread_pool@@QEAA@_K@Z@@Z DD 035054219H
	DD	01133318H
	DD	0700c0029H
	DD	0500bH
	DD	imagerel __GSHandlerCheck_EH4
	DD	imagerel $cppxdata$??$_Start@V<lambda_1>@?3???0thread_pool@@QEAA@_K@Z@$$V@thread@std@@AEAAX$$QEAV<lambda_1>@?3???0thread_pool@@QEAA@_K@Z@@Z
	DD	0132H
xdata	ENDS
;	COMDAT CONST
CONST	SEGMENT
??$_Start@V<lambda_1>@?3???0thread_pool@@QEAA@_K@Z@$$V@thread@std@@AEAAX$$QEAV<lambda_1>@?3???0thread_pool@@QEAA@_K@Z@@Z$rtcName$0 DB 05fH ; std::thread::_Start<`thread_pool::thread_pool'::`4'::<lambda_1> >
	DB	044H
	DB	065H
	DB	063H
	DB	061H
	DB	079H
	DB	05fH
	DB	063H
	DB	06fH
	DB	070H
	DB	069H
	DB	065H
	DB	064H
	DB	00H
	ORG $+2
??$_Start@V<lambda_1>@?3???0thread_pool@@QEAA@_K@Z@$$V@thread@std@@AEAAX$$QEAV<lambda_1>@?3???0thread_pool@@QEAA@_K@Z@@Z$rtcVarDesc DD 038H ; std::thread::_Start<`thread_pool::thread_pool'::`4'::<lambda_1> >
	DD	08H
	DQ	FLAT:??$_Start@V<lambda_1>@?3???0thread_pool@@QEAA@_K@Z@$$V@thread@std@@AEAAX$$QEAV<lambda_1>@?3???0thread_pool@@QEAA@_K@Z@@Z$rtcName$0
	ORG $+48
??$_Start@V<lambda_1>@?3???0thread_pool@@QEAA@_K@Z@$$V@thread@std@@AEAAX$$QEAV<lambda_1>@?3???0thread_pool@@QEAA@_K@Z@@Z$rtcFrameData DD 01H ; std::thread::_Start<`thread_pool::thread_pool'::`4'::<lambda_1> >
	DD	00H
	DQ	FLAT:??$_Start@V<lambda_1>@?3???0thread_pool@@QEAA@_K@Z@$$V@thread@std@@AEAAX$$QEAV<lambda_1>@?3???0thread_pool@@QEAA@_K@Z@@Z$rtcVarDesc
CONST	ENDS
;	COMDAT xdata
xdata	SEGMENT
$unwind$??$_Construct_in_place@PEAV?$function@$$A6AXXZ@std@@AEAPEAV12@@std@@YAXAEAPEAV?$function@$$A6AXXZ@0@0@Z DD 025051801H
	DD	01132318H
	DD	0700c0021H
	DD	0500bH
xdata	ENDS
;	COMDAT xdata
xdata	SEGMENT
$unwind$??$construct@Vthread@std@@V12@@?$_Default_allocator_traits@V?$allocator@Vthread@std@@@std@@@std@@SAXAEAV?$allocator@Vthread@std@@@1@QEAVthread@1@$$QEAV31@@Z DD 025051d01H
	DD	0118231dH
	DD	07011001dH
	DD	05010H
xdata	ENDS
;	COMDAT xdata
xdata	SEGMENT
$unwind$??$?0U_Exact_args_t@std@@$0A@@?$tuple@$$V@std@@QEAA@U_Exact_args_t@1@@Z DD 025051701H
	DD	01122317H
	DD	0700b001dH
	DD	0500aH
xdata	ENDS
;	COMDAT xdata
xdata	SEGMENT
$unwind$??$to_address@PEAV?$function@$$A6AXXZ@std@@@std@@YAPEAPEAV?$function@$$A6AXXZ@0@QEAPEAV10@@Z DD 025051301H
	DD	010e2313H
	DD	07007001dH
	DD	05006H
xdata	ENDS
;	COMDAT xdata
xdata	SEGMENT
$unwind$??$_To_address@PEAPEAV?$function@$$A6AXXZ@std@@@std@@YA?A_PAEBQEAPEAV?$function@$$A6AXXZ@0@@Z DD 025051301H
	DD	010e2313H
	DD	07007001dH
	DD	05006H
xdata	ENDS
;	COMDAT xdata
xdata	SEGMENT
$unwind$??$_Emplace_back@AEAPEAV?$function@$$A6AXXZ@std@@@?$_Uninitialized_backout@PEAPEAV?$function@$$A6AXXZ@std@@@std@@QEAAXAEAPEAV?$function@$$A6AXXZ@1@@Z DD 025051801H
	DD	01132318H
	DD	0700c001dH
	DD	0500bH
xdata	ENDS
;	COMDAT xdata
xdata	SEGMENT
$unwind$?_Release@?$_Uninitialized_backout@PEAPEAV?$function@$$A6AXXZ@std@@@std@@QEAAPEAPEAV?$function@$$A6AXXZ@2@XZ DD 025051301H
	DD	010e2313H
	DD	07007001dH
	DD	05006H
xdata	ENDS
;	COMDAT xdata
xdata	SEGMENT
$unwind$??1?$_Uninitialized_backout@PEAPEAV?$function@$$A6AXXZ@std@@@std@@QEAA@XZ DD 025051301H
	DD	010e2313H
	DD	07007001dH
	DD	05006H
xdata	ENDS
;	COMDAT xdata
xdata	SEGMENT
$unwind$??0?$_Uninitialized_backout@PEAPEAV?$function@$$A6AXXZ@std@@@std@@QEAA@PEAPEAV?$function@$$A6AXXZ@1@@Z DD 025051801H
	DD	01132318H
	DD	0700c001dH
	DD	0500bH
xdata	ENDS
;	COMDAT xdata
xdata	SEGMENT
$unwind$??$_Copy_memmove@PEAPEAV?$function@$$A6AXXZ@std@@PEAPEAV12@@std@@YAPEAPEAV?$function@$$A6AXXZ@0@PEAPEAV10@00@Z DD 025051d01H
	DD	0118231dH
	DD	070110039H
	DD	05010H
xdata	ENDS
;	COMDAT xdata
xdata	SEGMENT
$unwind$??$_Verify_range@PEAV?$function@$$A6AXXZ@std@@@std@@YAXQEBQEAV?$function@$$A6AXXZ@0@0@Z DD 035051801H
	DD	01133318H
	DD	0700c001fH
	DD	0500bH
xdata	ENDS
;	COMDAT xdata
xdata	SEGMENT
$unwind$??$_Emplace_back@Vthread@std@@@?$_Uninitialized_backout_al@V?$allocator@Vthread@std@@@std@@@std@@QEAAX$$QEAVthread@1@@Z DD 025051801H
	DD	01132318H
	DD	0700c001fH
	DD	0500bH
xdata	ENDS
;	COMDAT xdata
xdata	SEGMENT
$unwind$?__autoclassinit2@?$_Uninitialized_backout_al@V?$allocator@Vthread@std@@@std@@@std@@QEAAX_K@Z DD 05051601H
	DD	01130316H
	DD	0700c0019H
	DD	0500bH
xdata	ENDS
;	COMDAT xdata
xdata	SEGMENT
$unwind$?_Release@?$_Uninitialized_backout_al@V?$allocator@Vthread@std@@@std@@@std@@QEAAPEAVthread@2@XZ DD 025051301H
	DD	010e2313H
	DD	07007001dH
	DD	05006H
xdata	ENDS
;	COMDAT xdata
xdata	SEGMENT
$unwind$??1?$_Uninitialized_backout_al@V?$allocator@Vthread@std@@@std@@@std@@QEAA@XZ DD 025051301H
	DD	010e2313H
	DD	07007001dH
	DD	05006H
xdata	ENDS
;	COMDAT xdata
xdata	SEGMENT
$unwind$??0?$_Uninitialized_backout_al@V?$allocator@Vthread@std@@@std@@@std@@QEAA@PEAVthread@1@AEAV?$allocator@Vthread@std@@@1@@Z DD 025051d01H
	DD	0118231dH
	DD	07011001dH
	DD	05010H
xdata	ENDS
;	COMDAT xdata
xdata	SEGMENT
$unwind$??$_Get_unwrapped@AEBQEAVthread@std@@@std@@YA?A_TAEBQEAVthread@0@@Z DD 025051301H
	DD	010e2313H
	DD	07007001dH
	DD	05006H
xdata	ENDS
;	COMDAT xdata
xdata	SEGMENT
$unwind$??$construct_at@Vthread@std@@V<lambda_1>@?3???0thread_pool@@QEAA@_K@Z@$0A@@std@@YAPEAVthread@0@QEAV10@$$QEAV<lambda_1>@?3???0thread_pool@@QEAA@_K@Z@@Z DD 025051801H
	DD	01132318H
	DD	0700c0021H
	DD	0500bH
xdata	ENDS
;	COMDAT xdata
xdata	SEGMENT
$unwind$??$_Get_size_of_n@$07@std@@YA_K_K@Z DD 025051301H
	DD	010e2313H
	DD	070070025H
	DD	05006H
xdata	ENDS
;	COMDAT xdata
xdata	SEGMENT
$unwind$??$_Zero_range@PEAPEAV?$function@$$A6AXXZ@std@@@std@@YAPEAPEAV?$function@$$A6AXXZ@0@QEAPEAV10@0@Z DD 025051801H
	DD	01132318H
	DD	0700c0025H
	DD	0500bH
xdata	ENDS
;	COMDAT xdata
xdata	SEGMENT
$unwind$??$_Seek_wrapped@PEAPEAV?$function@$$A6AXXZ@std@@PEAPEAV12@@std@@YAXAEAPEAPEAV?$function@$$A6AXXZ@0@$$QEAPEAPEAV10@@Z DD 025051801H
	DD	01132318H
	DD	0700c001dH
	DD	0500bH
xdata	ENDS
;	COMDAT voltbl
voltbl	SEGMENT
_volmd	DB	00H
	DB	05H
voltbl	ENDS
;	COMDAT voltbl
voltbl	SEGMENT
_volmd	DB	040H
	DB	0f8H
voltbl	ENDS
;	COMDAT xdata
xdata	SEGMENT
$unwind$?dtor$0@?0???$_Uninitialized_copy_unchecked@PEAPEAV?$function@$$A6AXXZ@std@@PEAPEAV12@@std@@YAPEAPEAV?$function@$$A6AXXZ@0@PEAPEAV10@QEAPEAV10@0@Z@4HA DD 031001H
	DD	0700c4210H
	DD	0500bH
xdata	ENDS
;	COMDAT xdata
xdata	SEGMENT
$ip2state$??$_Uninitialized_copy_unchecked@PEAPEAV?$function@$$A6AXXZ@std@@PEAPEAV12@@std@@YAPEAPEAV?$function@$$A6AXXZ@0@PEAPEAV10@QEAPEAV10@0@Z DB 06H
	DB	00H
	DB	00H
	DB	'1', 02H
	DB	02H
	DB	08cH
	DB	00H
xdata	ENDS
;	COMDAT xdata
xdata	SEGMENT
$stateUnwindMap$??$_Uninitialized_copy_unchecked@PEAPEAV?$function@$$A6AXXZ@std@@PEAPEAV12@@std@@YAPEAPEAV?$function@$$A6AXXZ@0@PEAPEAV10@QEAPEAV10@0@Z DB 02H
	DB	0eH
	DD	imagerel ?dtor$0@?0???$_Uninitialized_copy_unchecked@PEAPEAV?$function@$$A6AXXZ@std@@PEAPEAV12@@std@@YAPEAPEAV?$function@$$A6AXXZ@0@PEAPEAV10@QEAPEAV10@0@Z@4HA
xdata	ENDS
;	COMDAT xdata
xdata	SEGMENT
$cppxdata$??$_Uninitialized_copy_unchecked@PEAPEAV?$function@$$A6AXXZ@std@@PEAPEAV12@@std@@YAPEAPEAV?$function@$$A6AXXZ@0@PEAPEAV10@QEAPEAV10@0@Z DB 028H
	DD	imagerel $stateUnwindMap$??$_Uninitialized_copy_unchecked@PEAPEAV?$function@$$A6AXXZ@std@@PEAPEAV12@@std@@YAPEAPEAV?$function@$$A6AXXZ@0@PEAPEAV10@QEAPEAV10@0@Z
	DD	imagerel $ip2state$??$_Uninitialized_copy_unchecked@PEAPEAV?$function@$$A6AXXZ@std@@PEAPEAV12@@std@@YAPEAPEAV?$function@$$A6AXXZ@0@PEAPEAV10@QEAPEAV10@0@Z
xdata	ENDS
;	COMDAT xdata
xdata	SEGMENT
$unwind$??$_Uninitialized_copy_unchecked@PEAPEAV?$function@$$A6AXXZ@std@@PEAPEAV12@@std@@YAPEAPEAV?$function@$$A6AXXZ@0@PEAPEAV10@QEAPEAV10@0@Z DD 025054719H
	DD	0118231dH
	DD	070110027H
	DD	05010H
	DD	imagerel __GSHandlerCheck_EH4
	DD	imagerel $cppxdata$??$_Uninitialized_copy_unchecked@PEAPEAV?$function@$$A6AXXZ@std@@PEAPEAV12@@std@@YAPEAPEAV?$function@$$A6AXXZ@0@PEAPEAV10@QEAPEAV10@0@Z
	DD	012aH
xdata	ENDS
;	COMDAT CONST
CONST	SEGMENT
??$_Uninitialized_copy_unchecked@PEAPEAV?$function@$$A6AXXZ@std@@PEAPEAV12@@std@@YAPEAPEAV?$function@$$A6AXXZ@0@PEAPEAV10@QEAPEAV10@0@Z$rtcName$0 DB 05fH ; std::_Uninitialized_copy_unchecked<std::function<void __cdecl(void)> * *,std::function<void __cdecl(void)> * *>
	DB	042H
	DB	061H
	DB	063H
	DB	06bH
	DB	06fH
	DB	075H
	DB	074H
	DB	00H
	ORG $+7
??$_Uninitialized_copy_unchecked@PEAPEAV?$function@$$A6AXXZ@std@@PEAPEAV12@@std@@YAPEAPEAV?$function@$$A6AXXZ@0@PEAPEAV10@QEAPEAV10@0@Z$rtcVarDesc DD 028H ; std::_Uninitialized_copy_unchecked<std::function<void __cdecl(void)> * *,std::function<void __cdecl(void)> * *>
	DD	010H
	DQ	FLAT:??$_Uninitialized_copy_unchecked@PEAPEAV?$function@$$A6AXXZ@std@@PEAPEAV12@@std@@YAPEAPEAV?$function@$$A6AXXZ@0@PEAPEAV10@QEAPEAV10@0@Z$rtcName$0
	ORG $+48
??$_Uninitialized_copy_unchecked@PEAPEAV?$function@$$A6AXXZ@std@@PEAPEAV12@@std@@YAPEAPEAV?$function@$$A6AXXZ@0@PEAPEAV10@QEAPEAV10@0@Z$rtcFrameData DD 01H ; std::_Uninitialized_copy_unchecked<std::function<void __cdecl(void)> * *,std::function<void __cdecl(void)> * *>
	DD	00H
	DQ	FLAT:??$_Uninitialized_copy_unchecked@PEAPEAV?$function@$$A6AXXZ@std@@PEAPEAV12@@std@@YAPEAPEAV?$function@$$A6AXXZ@0@PEAPEAV10@QEAPEAV10@0@Z$rtcVarDesc
CONST	ENDS
;	COMDAT xdata
xdata	SEGMENT
$unwind$??$_Get_unwrapped_n@AEAPEAPEAV?$function@$$A6AXXZ@std@@_J@std@@YA?A_TAEAPEAPEAV?$function@$$A6AXXZ@0@_J@Z DD 025051801H
	DD	01132318H
	DD	0700c001dH
	DD	0500bH
xdata	ENDS
;	COMDAT xdata
xdata	SEGMENT
$unwind$??$_Idl_distance@PEAPEAV?$function@$$A6AXXZ@std@@PEAPEAV12@@std@@YA?A_PAEBQEAPEAV?$function@$$A6AXXZ@0@0@Z DD 025051801H
	DD	01132318H
	DD	0700c001dH
	DD	0500bH
xdata	ENDS
;	COMDAT xdata
xdata	SEGMENT
$unwind$??$_Get_unwrapped@AEBQEAPEAV?$function@$$A6AXXZ@std@@@std@@YA?A_TAEBQEAPEAV?$function@$$A6AXXZ@0@@Z DD 025051301H
	DD	010e2313H
	DD	07007001dH
	DD	05006H
xdata	ENDS
;	COMDAT xdata
xdata	SEGMENT
$unwind$??$_Adl_verify_range@PEAPEAV?$function@$$A6AXXZ@std@@PEAPEAV12@@std@@YAXAEBQEAPEAV?$function@$$A6AXXZ@0@0@Z DD 025051801H
	DD	01132318H
	DD	0700c001dH
	DD	0500bH
xdata	ENDS
;	COMDAT xdata
xdata	SEGMENT
$unwind$??$_Allocate_manually_vector_aligned@U_Default_allocate_traits@std@@@std@@YAPEAX_K@Z DD 035051301H
	DD	010e3313H
	DD	07007002bH
	DD	05006H
xdata	ENDS
;	COMDAT xdata
xdata	SEGMENT
$unwind$??$destroy_at@Vthread@std@@@std@@YAXQEAVthread@0@@Z DD 025051301H
	DD	010e2313H
	DD	07007001dH
	DD	05006H
xdata	ENDS
;	COMDAT xdata
xdata	SEGMENT
$unwind$??$construct_at@V?$function@$$A6AXXZ@std@@AEBV12@$0A@@std@@YAPEAV?$function@$$A6AXXZ@0@QEAV10@AEBV10@@Z DD 025051801H
	DD	01132318H
	DD	0700c0021H
	DD	0500bH
xdata	ENDS
;	COMDAT xdata
xdata	SEGMENT
$unwind$?deallocate@?$_Default_allocator_traits@V?$allocator@U_Container_proxy@std@@@std@@@std@@SAXAEAV?$allocator@U_Container_proxy@std@@@2@QEAU_Container_proxy@2@_K@Z DD 025051d01H
	DD	0118231dH
	DD	07011001dH
	DD	05010H
xdata	ENDS
;	COMDAT voltbl
voltbl	SEGMENT
_volmd	DB	00H
	DB	05H
voltbl	ENDS
;	COMDAT voltbl
voltbl	SEGMENT
_volmd	DB	045H
	DB	0fbH
voltbl	ENDS
;	COMDAT xdata
xdata	SEGMENT
$unwind$?dtor$0@?0???$_Uninitialized_move@PEAVthread@std@@V?$allocator@Vthread@std@@@2@@std@@YAPEAVthread@0@QEAV10@0PEAV10@AEAV?$allocator@Vthread@std@@@0@@Z@4HA DD 031001H
	DD	0700c4210H
	DD	0500bH
xdata	ENDS
;	COMDAT xdata
xdata	SEGMENT
$ip2state$??$_Uninitialized_move@PEAVthread@std@@V?$allocator@Vthread@std@@@2@@std@@YAPEAVthread@0@QEAV10@0PEAV10@AEAV?$allocator@Vthread@std@@@0@@Z DB 06H
	DB	00H
	DB	00H
	DB	'y', 02H
	DB	02H
	DB	'n'
	DB	00H
xdata	ENDS
;	COMDAT xdata
xdata	SEGMENT
$stateUnwindMap$??$_Uninitialized_move@PEAVthread@std@@V?$allocator@Vthread@std@@@2@@std@@YAPEAVthread@0@QEAV10@0PEAV10@AEAV?$allocator@Vthread@std@@@0@@Z DB 02H
	DB	0eH
	DD	imagerel ?dtor$0@?0???$_Uninitialized_move@PEAVthread@std@@V?$allocator@Vthread@std@@@2@@std@@YAPEAVthread@0@QEAV10@0PEAV10@AEAV?$allocator@Vthread@std@@@0@@Z@4HA
xdata	ENDS
;	COMDAT xdata
xdata	SEGMENT
$cppxdata$??$_Uninitialized_move@PEAVthread@std@@V?$allocator@Vthread@std@@@2@@std@@YAPEAVthread@0@QEAV10@0PEAV10@AEAV?$allocator@Vthread@std@@@0@@Z DB 028H
	DD	imagerel $stateUnwindMap$??$_Uninitialized_move@PEAVthread@std@@V?$allocator@Vthread@std@@@2@@std@@YAPEAVthread@0@QEAV10@0PEAV10@AEAV?$allocator@Vthread@std@@@0@@Z
	DD	imagerel $ip2state$??$_Uninitialized_move@PEAVthread@std@@V?$allocator@Vthread@std@@@2@@std@@YAPEAVthread@0@QEAV10@0PEAV10@AEAV?$allocator@Vthread@std@@@0@@Z
xdata	ENDS
;	COMDAT xdata
xdata	SEGMENT
$unwind$??$_Uninitialized_move@PEAVthread@std@@V?$allocator@Vthread@std@@@2@@std@@YAPEAVthread@0@QEAV10@0PEAV10@AEAV?$allocator@Vthread@std@@@0@@Z DD 025054c19H
	DD	011d2322H
	DD	07016002fH
	DD	05015H
	DD	imagerel __GSHandlerCheck_EH4
	DD	imagerel $cppxdata$??$_Uninitialized_move@PEAVthread@std@@V?$allocator@Vthread@std@@@2@@std@@YAPEAVthread@0@QEAV10@0PEAV10@AEAV?$allocator@Vthread@std@@@0@@Z
	DD	016aH
xdata	ENDS
;	COMDAT CONST
CONST	SEGMENT
??$_Uninitialized_move@PEAVthread@std@@V?$allocator@Vthread@std@@@2@@std@@YAPEAVthread@0@QEAV10@0PEAV10@AEAV?$allocator@Vthread@std@@@0@@Z$rtcName$0 DB 05fH ; std::_Uninitialized_move<std::thread *,std::allocator<std::thread> >
	DB	042H
	DB	061H
	DB	063H
	DB	06bH
	DB	06fH
	DB	075H
	DB	074H
	DB	00H
	ORG $+7
??$_Uninitialized_move@PEAVthread@std@@V?$allocator@Vthread@std@@@2@@std@@YAPEAVthread@0@QEAV10@0PEAV10@AEAV?$allocator@Vthread@std@@@0@@Z$rtcVarDesc DD 068H ; std::_Uninitialized_move<std::thread *,std::allocator<std::thread> >
	DD	018H
	DQ	FLAT:??$_Uninitialized_move@PEAVthread@std@@V?$allocator@Vthread@std@@@2@@std@@YAPEAVthread@0@QEAV10@0PEAV10@AEAV?$allocator@Vthread@std@@@0@@Z$rtcName$0
	ORG $+48
??$_Uninitialized_move@PEAVthread@std@@V?$allocator@Vthread@std@@@2@@std@@YAPEAVthread@0@QEAV10@0PEAV10@AEAV?$allocator@Vthread@std@@@0@@Z$rtcFrameData DD 01H ; std::_Uninitialized_move<std::thread *,std::allocator<std::thread> >
	DD	00H
	DQ	FLAT:??$_Uninitialized_move@PEAVthread@std@@V?$allocator@Vthread@std@@@2@@std@@YAPEAVthread@0@QEAV10@0PEAV10@AEAV?$allocator@Vthread@std@@@0@@Z$rtcVarDesc
CONST	ENDS
;	COMDAT xdata
xdata	SEGMENT
$unwind$??$_Allocate_at_least_helper@V?$allocator@Vthread@std@@@std@@@std@@YAPEAVthread@0@AEAV?$allocator@Vthread@std@@@0@AEA_K@Z DD 025051801H
	DD	01132318H
	DD	0700c001dH
	DD	0500bH
xdata	ENDS
;	COMDAT xdata
xdata	SEGMENT
$unwind$??$construct@Vthread@std@@V<lambda_1>@?3???0thread_pool@@QEAA@_K@Z@@?$_Default_allocator_traits@V?$allocator@Vthread@std@@@std@@@std@@SAXAEAV?$allocator@Vthread@std@@@1@QEAVthread@1@$$QEAV<lambda_1>@?3???0thread_pool@@QEAA@_K@Z@@Z DD 025051d01H
	DD	0118231dH
	DD	07011001dH
	DD	05010H
xdata	ENDS
;	COMDAT xdata
xdata	SEGMENT
$unwind$??$?0V<lambda_1>@?3???0thread_pool@@QEAA@_K@Z@$$V$0A@@thread@std@@QEAA@$$QEAV<lambda_1>@?3???0thread_pool@@QEAA@_K@Z@@Z DD 025051801H
	DD	01132318H
	DD	0700c001dH
	DD	0500bH
xdata	ENDS
;	COMDAT xdata
xdata	SEGMENT
$unwind$??$_Get_size_of_n@$0EA@@std@@YA_K_K@Z DD 025051301H
	DD	010e2313H
	DD	070070025H
	DD	05006H
xdata	ENDS
;	COMDAT xdata
xdata	SEGMENT
$unwind$??$_Destroy_range@PEAPEAV?$function@$$A6AXXZ@std@@PEAPEAV12@@std@@YAXPEAPEAV?$function@$$A6AXXZ@0@QEAPEAV10@@Z DD 025051801H
	DD	01132318H
	DD	0700c001dH
	DD	0500bH
xdata	ENDS
;	COMDAT xdata
xdata	SEGMENT
$unwind$??$_Uninitialized_value_construct_n_unchecked1@PEAPEAV?$function@$$A6AXXZ@std@@_K@std@@YAPEAPEAV?$function@$$A6AXXZ@0@PEAPEAV10@_K@Z DD 025051801H
	DD	01132318H
	DD	0700c001dH
	DD	0500bH
xdata	ENDS
;	COMDAT voltbl
voltbl	SEGMENT
_volmd	DB	040H
	DB	0eeH
voltbl	ENDS
;	COMDAT xdata
xdata	SEGMENT
$unwind$??$uninitialized_copy@PEAPEAV?$function@$$A6AXXZ@std@@PEAPEAV12@@std@@YAPEAPEAV?$function@$$A6AXXZ@0@QEAPEAV10@0PEAPEAV10@@Z DD 025054719H
	DD	0118231dH
	DD	07011002dH
	DD	05010H
	DD	imagerel __GSHandlerCheck
	DD	0158H
xdata	ENDS
;	COMDAT CONST
CONST	SEGMENT
??$uninitialized_copy@PEAPEAV?$function@$$A6AXXZ@std@@PEAPEAV12@@std@@YAPEAPEAV?$function@$$A6AXXZ@0@QEAPEAV10@0PEAPEAV10@@Z$rtcName$0 DB 05fH ; std::uninitialized_copy<std::function<void __cdecl(void)> * *,std::function<void __cdecl(void)> * *>
	DB	055H
	DB	046H
	DB	069H
	DB	072H
	DB	073H
	DB	074H
	DB	00H
??$uninitialized_copy@PEAPEAV?$function@$$A6AXXZ@std@@PEAPEAV12@@std@@YAPEAPEAV?$function@$$A6AXXZ@0@QEAPEAV10@0PEAPEAV10@@Z$rtcName$1 DB 05fH ; std::uninitialized_copy<std::function<void __cdecl(void)> * *,std::function<void __cdecl(void)> * *>
	DB	055H
	DB	04cH
	DB	061H
	DB	073H
	DB	074H
	DB	00H
	ORG $+1
??$uninitialized_copy@PEAPEAV?$function@$$A6AXXZ@std@@PEAPEAV12@@std@@YAPEAPEAV?$function@$$A6AXXZ@0@QEAPEAV10@0PEAPEAV10@@Z$rtcVarDesc DD 048H ; std::uninitialized_copy<std::function<void __cdecl(void)> * *,std::function<void __cdecl(void)> * *>
	DD	08H
	DQ	FLAT:??$uninitialized_copy@PEAPEAV?$function@$$A6AXXZ@std@@PEAPEAV12@@std@@YAPEAPEAV?$function@$$A6AXXZ@0@QEAPEAV10@0PEAPEAV10@@Z$rtcName$1
	DD	028H
	DD	08H
	DQ	FLAT:??$uninitialized_copy@PEAPEAV?$function@$$A6AXXZ@std@@PEAPEAV12@@std@@YAPEAPEAV?$function@$$A6AXXZ@0@QEAPEAV10@0PEAPEAV10@@Z$rtcName$0
	ORG $+96
??$uninitialized_copy@PEAPEAV?$function@$$A6AXXZ@std@@PEAPEAV12@@std@@YAPEAPEAV?$function@$$A6AXXZ@0@QEAPEAV10@0PEAPEAV10@@Z$rtcFrameData DD 02H ; std::uninitialized_copy<std::function<void __cdecl(void)> * *,std::function<void __cdecl(void)> * *>
	DD	00H
	DQ	FLAT:??$uninitialized_copy@PEAPEAV?$function@$$A6AXXZ@std@@PEAPEAV12@@std@@YAPEAPEAV?$function@$$A6AXXZ@0@QEAPEAV10@0PEAPEAV10@@Z$rtcVarDesc
CONST	ENDS
;	COMDAT xdata
xdata	SEGMENT
$unwind$??$_Allocate_at_least_helper@V?$allocator@PEAV?$function@$$A6AXXZ@std@@@std@@@std@@YAPEAPEAV?$function@$$A6AXXZ@0@AEAV?$allocator@PEAV?$function@$$A6AXXZ@std@@@0@AEA_K@Z DD 025051801H
	DD	01132318H
	DD	0700c001dH
	DD	0500bH
xdata	ENDS
;	COMDAT xdata
xdata	SEGMENT
$unwind$??$_Allocate@$0BA@U_Default_allocate_traits@std@@$0A@@std@@YAPEAX_K@Z DD 025051301H
	DD	010e2313H
	DD	07007001dH
	DD	05006H
xdata	ENDS
;	COMDAT xdata
xdata	SEGMENT
$unwind$??$_Get_size_of_n@$0BA@@std@@YA_K_K@Z DD 025051301H
	DD	010e2313H
	DD	070070025H
	DD	05006H
xdata	ENDS
;	COMDAT xdata
xdata	SEGMENT
$unwind$??$destroy@Vthread@std@@@?$_Default_allocator_traits@V?$allocator@Vthread@std@@@std@@@std@@SAXAEAV?$allocator@Vthread@std@@@1@QEAVthread@1@@Z DD 025051801H
	DD	01132318H
	DD	0700c001dH
	DD	0500bH
xdata	ENDS
;	COMDAT xdata
xdata	SEGMENT
$unwind$??$_Unfancy@Vthread@std@@@std@@YAPEAVthread@0@PEAV10@@Z DD 025051301H
	DD	010e2313H
	DD	07007001dH
	DD	05006H
xdata	ENDS
;	COMDAT xdata
xdata	SEGMENT
$unwind$??$destroy_at@V?$function@$$A6AXXZ@std@@@std@@YAXQEAV?$function@$$A6AXXZ@0@@Z DD 025051301H
	DD	010e2313H
	DD	07007001dH
	DD	05006H
xdata	ENDS
;	COMDAT xdata
xdata	SEGMENT
$unwind$??$construct@V?$function@$$A6AXXZ@std@@AEBV12@@?$_Default_allocator_traits@V?$allocator@V?$function@$$A6AXXZ@std@@@std@@@std@@SAXAEAV?$allocator@V?$function@$$A6AXXZ@std@@@1@QEAV?$function@$$A6AXXZ@1@AEBV31@@Z DD 025051d01H
	DD	0118231dH
	DD	07011001dH
	DD	05010H
xdata	ENDS
;	COMDAT xdata
xdata	SEGMENT
$unwind$??$_Unfancy@U_Container_proxy@std@@@std@@YAPEAU_Container_proxy@0@PEAU10@@Z DD 025051301H
	DD	010e2313H
	DD	07007001dH
	DD	05006H
xdata	ENDS
;	COMDAT xdata
xdata	SEGMENT
$ip2state$??$_Deallocate_plain@V?$allocator@U_Container_proxy@std@@@std@@@std@@YAXAEAV?$allocator@U_Container_proxy@std@@@0@QEAU_Container_proxy@0@@Z DB 02H
	DB	00H
	DB	00H
xdata	ENDS
;	COMDAT xdata
xdata	SEGMENT
$cppxdata$??$_Deallocate_plain@V?$allocator@U_Container_proxy@std@@@std@@@std@@YAXAEAV?$allocator@U_Container_proxy@std@@@0@QEAU_Container_proxy@0@@Z DB 060H
	DD	imagerel $ip2state$??$_Deallocate_plain@V?$allocator@U_Container_proxy@std@@@std@@@std@@YAXAEAV?$allocator@U_Container_proxy@std@@@0@QEAU_Container_proxy@0@@Z
xdata	ENDS
;	COMDAT xdata
xdata	SEGMENT
$unwind$??$_Deallocate_plain@V?$allocator@U_Container_proxy@std@@@std@@@std@@YAXAEAV?$allocator@U_Container_proxy@std@@@0@QEAU_Container_proxy@0@@Z DD 025051819H
	DD	01132318H
	DD	0700c001dH
	DD	0500bH
	DD	imagerel __CxxFrameHandler4
	DD	imagerel $cppxdata$??$_Deallocate_plain@V?$allocator@U_Container_proxy@std@@@std@@@std@@YAXAEAV?$allocator@U_Container_proxy@std@@@0@QEAU_Container_proxy@0@@Z
xdata	ENDS
;	COMDAT voltbl
voltbl	SEGMENT
_volmd	DB	00H
	DB	05H
voltbl	ENDS
;	COMDAT voltbl
voltbl	SEGMENT
_volmd	DW	040H
	DW	026bH
voltbl	ENDS
;	COMDAT xdata
xdata	SEGMENT
$unwind$?catch$0@?0???$_Emplace_reallocate@V<lambda_1>@?3???0thread_pool@@QEAA@_K@Z@@?$vector@Vthread@std@@V?$allocator@Vthread@std@@@2@@std@@AEAAPEAVthread@1@QEAV21@$$QEAV<lambda_1>@?3???0thread_pool@@QEAA@_K@Z@@Z@4HA DD 031001H
	DD	0700c4210H
	DD	0500bH
xdata	ENDS
;	COMDAT xdata
xdata	SEGMENT
$ip2state$??$_Emplace_reallocate@V<lambda_1>@?3???0thread_pool@@QEAA@_K@Z@@?$vector@Vthread@std@@V?$allocator@Vthread@std@@@2@@std@@AEAAPEAVthread@1@QEAV21@$$QEAV<lambda_1>@?3???0thread_pool@@QEAA@_K@Z@@Z DB 06H
	DB	00H
	DB	00H
	DB	019H, 05H
	DB	02H
	DB	']', 03H
	DB	00H
xdata	ENDS
;	COMDAT xdata
xdata	SEGMENT
$handlerMap$??$_Emplace_reallocate@V<lambda_1>@?3???0thread_pool@@QEAA@_K@Z@@?$vector@Vthread@std@@V?$allocator@Vthread@std@@@2@@std@@AEAAPEAVthread@1@QEAV21@$$QEAV<lambda_1>@?3???0thread_pool@@QEAA@_K@Z@@Z DB 02H
	DB	01H
	DB	080H
	DD	imagerel ?catch$0@?0???$_Emplace_reallocate@V<lambda_1>@?3???0thread_pool@@QEAA@_K@Z@@?$vector@Vthread@std@@V?$allocator@Vthread@std@@@2@@std@@AEAAPEAVthread@1@QEAV21@$$QEAV<lambda_1>@?3???0thread_pool@@QEAA@_K@Z@@Z@4HA
xdata	ENDS
;	COMDAT xdata
xdata	SEGMENT
$tryMap$??$_Emplace_reallocate@V<lambda_1>@?3???0thread_pool@@QEAA@_K@Z@@?$vector@Vthread@std@@V?$allocator@Vthread@std@@@2@@std@@AEAAPEAVthread@1@QEAV21@$$QEAV<lambda_1>@?3???0thread_pool@@QEAA@_K@Z@@Z DB 02H
	DB	00H
	DB	00H
	DB	02H
	DD	imagerel $handlerMap$??$_Emplace_reallocate@V<lambda_1>@?3???0thread_pool@@QEAA@_K@Z@@?$vector@Vthread@std@@V?$allocator@Vthread@std@@@2@@std@@AEAAPEAVthread@1@QEAV21@$$QEAV<lambda_1>@?3???0thread_pool@@QEAA@_K@Z@@Z
xdata	ENDS
;	COMDAT xdata
xdata	SEGMENT
$stateUnwindMap$??$_Emplace_reallocate@V<lambda_1>@?3???0thread_pool@@QEAA@_K@Z@@?$vector@Vthread@std@@V?$allocator@Vthread@std@@@2@@std@@AEAAPEAVthread@1@QEAV21@$$QEAV<lambda_1>@?3???0thread_pool@@QEAA@_K@Z@@Z DB 04H
	DB	08H
	DB	010H
xdata	ENDS
;	COMDAT xdata
xdata	SEGMENT
$cppxdata$??$_Emplace_reallocate@V<lambda_1>@?3???0thread_pool@@QEAA@_K@Z@@?$vector@Vthread@std@@V?$allocator@Vthread@std@@@2@@std@@AEAAPEAVthread@1@QEAV21@$$QEAV<lambda_1>@?3???0thread_pool@@QEAA@_K@Z@@Z DB 038H
	DD	imagerel $stateUnwindMap$??$_Emplace_reallocate@V<lambda_1>@?3???0thread_pool@@QEAA@_K@Z@@?$vector@Vthread@std@@V?$allocator@Vthread@std@@@2@@std@@AEAAPEAVthread@1@QEAV21@$$QEAV<lambda_1>@?3???0thread_pool@@QEAA@_K@Z@@Z
	DD	imagerel $tryMap$??$_Emplace_reallocate@V<lambda_1>@?3???0thread_pool@@QEAA@_K@Z@@?$vector@Vthread@std@@V?$allocator@Vthread@std@@@2@@std@@AEAAPEAVthread@1@QEAV21@$$QEAV<lambda_1>@?3???0thread_pool@@QEAA@_K@Z@@Z
	DD	imagerel $ip2state$??$_Emplace_reallocate@V<lambda_1>@?3???0thread_pool@@QEAA@_K@Z@@?$vector@Vthread@std@@V?$allocator@Vthread@std@@@2@@std@@AEAAPEAVthread@1@QEAV21@$$QEAV<lambda_1>@?3???0thread_pool@@QEAA@_K@Z@@Z
xdata	ENDS
;	COMDAT xdata
xdata	SEGMENT
$unwind$??$_Emplace_reallocate@V<lambda_1>@?3???0thread_pool@@QEAA@_K@Z@@?$vector@Vthread@std@@V?$allocator@Vthread@std@@@2@@std@@AEAAPEAVthread@1@QEAV21@$$QEAV<lambda_1>@?3???0thread_pool@@QEAA@_K@Z@@Z DD 025054719H
	DD	0118231dH
	DD	070110049H
	DD	05010H
	DD	imagerel __GSHandlerCheck_EH4
	DD	imagerel $cppxdata$??$_Emplace_reallocate@V<lambda_1>@?3???0thread_pool@@QEAA@_K@Z@@?$vector@Vthread@std@@V?$allocator@Vthread@std@@@2@@std@@AEAAPEAVthread@1@QEAV21@$$QEAV<lambda_1>@?3???0thread_pool@@QEAA@_K@Z@@Z
	DD	023bH
xdata	ENDS
;	COMDAT CONST
CONST	SEGMENT
??$_Emplace_reallocate@V<lambda_1>@?3???0thread_pool@@QEAA@_K@Z@@?$vector@Vthread@std@@V?$allocator@Vthread@std@@@2@@std@@AEAAPEAVthread@1@QEAV21@$$QEAV<lambda_1>@?3???0thread_pool@@QEAA@_K@Z@@Z$rtcName$0 DB 05fH ; std::vector<std::thread,std::allocator<std::thread> >::_Emplace_reallocate<`thread_pool::thread_pool'::`4'::<lambda_1> >
	DB	04eH
	DB	065H
	DB	077H
	DB	063H
	DB	061H
	DB	070H
	DB	061H
	DB	063H
	DB	069H
	DB	074H
	DB	079H
	DB	00H
	ORG $+3
??$_Emplace_reallocate@V<lambda_1>@?3???0thread_pool@@QEAA@_K@Z@@?$vector@Vthread@std@@V?$allocator@Vthread@std@@@2@@std@@AEAAPEAVthread@1@QEAV21@$$QEAV<lambda_1>@?3???0thread_pool@@QEAA@_K@Z@@Z$rtcVarDesc DD 0108H ; std::vector<std::thread,std::allocator<std::thread> >::_Emplace_reallocate<`thread_pool::thread_pool'::`4'::<lambda_1> >
	DD	08H
	DQ	FLAT:??$_Emplace_reallocate@V<lambda_1>@?3???0thread_pool@@QEAA@_K@Z@@?$vector@Vthread@std@@V?$allocator@Vthread@std@@@2@@std@@AEAAPEAVthread@1@QEAV21@$$QEAV<lambda_1>@?3???0thread_pool@@QEAA@_K@Z@@Z$rtcName$0
	ORG $+48
??$_Emplace_reallocate@V<lambda_1>@?3???0thread_pool@@QEAA@_K@Z@@?$vector@Vthread@std@@V?$allocator@Vthread@std@@@2@@std@@AEAAPEAVthread@1@QEAV21@$$QEAV<lambda_1>@?3???0thread_pool@@QEAA@_K@Z@@Z$rtcFrameData DD 01H ; std::vector<std::thread,std::allocator<std::thread> >::_Emplace_reallocate<`thread_pool::thread_pool'::`4'::<lambda_1> >
	DD	00H
	DQ	FLAT:??$_Emplace_reallocate@V<lambda_1>@?3???0thread_pool@@QEAA@_K@Z@@?$vector@Vthread@std@@V?$allocator@Vthread@std@@@2@@std@@AEAAPEAVthread@1@QEAV21@$$QEAV<lambda_1>@?3???0thread_pool@@QEAA@_K@Z@@Z$rtcVarDesc
CONST	ENDS
;	COMDAT xdata
xdata	SEGMENT
$unwind$??$_Emplace_back_with_unused_capacity@V<lambda_1>@?3???0thread_pool@@QEAA@_K@Z@@?$vector@Vthread@std@@V?$allocator@Vthread@std@@@2@@std@@AEAAAEAVthread@1@$$QEAV<lambda_1>@?3???0thread_pool@@QEAA@_K@Z@@Z DD 025051801H
	DD	01132318H
	DD	0700c002bH
	DD	0500bH
xdata	ENDS
;	COMDAT xdata
xdata	SEGMENT
$unwind$??$construct_at@U_Container_proxy@std@@PEAU_Container_base12@2@$0A@@std@@YAPEAU_Container_proxy@0@QEAU10@$$QEAPEAU_Container_base12@0@@Z DD 025051801H
	DD	01132318H
	DD	0700c0021H
	DD	0500bH
xdata	ENDS
;	COMDAT xdata
xdata	SEGMENT
$unwind$??$addressof@U_Container_proxy@std@@@std@@YAPEAU_Container_proxy@0@AEAU10@@Z DD 025051301H
	DD	010e2313H
	DD	07007001dH
	DD	05006H
xdata	ENDS
;	COMDAT xdata
xdata	SEGMENT
$unwind$??$addressof@V?$_Deque_val@U?$_Deque_simple_types@V?$function@$$A6AXXZ@std@@@std@@@std@@@std@@YAPEAV?$_Deque_val@U?$_Deque_simple_types@V?$function@$$A6AXXZ@std@@@std@@@0@AEAV10@@Z DD 025051301H
	DD	010e2313H
	DD	07007001dH
	DD	05006H
xdata	ENDS
;	COMDAT xdata
xdata	SEGMENT
$ip2state$??$_Deallocate@$0BA@$0A@@std@@YAXPEAX_K@Z DB 02H
	DB	00H
	DB	00H
xdata	ENDS
;	COMDAT xdata
xdata	SEGMENT
$cppxdata$??$_Deallocate@$0BA@$0A@@std@@YAXPEAX_K@Z DB 060H
	DD	imagerel $ip2state$??$_Deallocate@$0BA@$0A@@std@@YAXPEAX_K@Z
xdata	ENDS
;	COMDAT xdata
xdata	SEGMENT
$unwind$??$_Deallocate@$0BA@$0A@@std@@YAXPEAX_K@Z DD 025051819H
	DD	01132318H
	DD	0700c001dH
	DD	0500bH
	DD	imagerel __CxxFrameHandler4
	DD	imagerel $cppxdata$??$_Deallocate@$0BA@$0A@@std@@YAXPEAX_K@Z
xdata	ENDS
;	COMDAT xdata
xdata	SEGMENT
$ip2state$??$_Destroy_range@V?$allocator@Vthread@std@@@std@@@std@@YAXPEAVthread@0@QEAV10@AEAV?$allocator@Vthread@std@@@0@@Z DB 02H
	DB	00H
	DB	00H
xdata	ENDS
;	COMDAT xdata
xdata	SEGMENT
$cppxdata$??$_Destroy_range@V?$allocator@Vthread@std@@@std@@@std@@YAXPEAVthread@0@QEAV10@AEAV?$allocator@Vthread@std@@@0@@Z DB 060H
	DD	imagerel $ip2state$??$_Destroy_range@V?$allocator@Vthread@std@@@std@@@std@@YAXPEAVthread@0@QEAV10@AEAV?$allocator@Vthread@std@@@0@@Z
xdata	ENDS
;	COMDAT xdata
xdata	SEGMENT
$unwind$??$_Destroy_range@V?$allocator@Vthread@std@@@std@@@std@@YAXPEAVthread@0@QEAV10@AEAV?$allocator@Vthread@std@@@0@@Z DD 025051d19H
	DD	0118231dH
	DD	07011001dH
	DD	05010H
	DD	imagerel __CxxFrameHandler4
	DD	imagerel $cppxdata$??$_Destroy_range@V?$allocator@Vthread@std@@@std@@@std@@YAXPEAVthread@0@QEAV10@AEAV?$allocator@Vthread@std@@@0@@Z
xdata	ENDS
;	COMDAT xdata
xdata	SEGMENT
$unwind$??0?$_Deque_unchecked_iterator@V?$_Deque_val@U?$_Deque_simple_types@V?$function@$$A6AXXZ@std@@@std@@@std@@@std@@QEAA@_KPEBU_Container_base12@1@@Z DD 025051d01H
	DD	0118231dH
	DD	07011001dH
	DD	05010H
xdata	ENDS
;	COMDAT xdata
xdata	SEGMENT
$unwind$??D?$_Deque_unchecked_iterator@V?$_Deque_val@U?$_Deque_simple_types@V?$function@$$A6AXXZ@std@@@std@@@std@@@std@@QEBAAEAV?$function@$$A6AXXZ@1@XZ DD 025051301H
	DD	010e2313H
	DD	07007001dH
	DD	05006H
xdata	ENDS
;	COMDAT xdata
xdata	SEGMENT
$unwind$??D?$_Deque_unchecked_const_iterator@V?$_Deque_val@U?$_Deque_simple_types@V?$function@$$A6AXXZ@std@@@std@@@std@@@std@@QEBAAEBV?$function@$$A6AXXZ@1@XZ DD 025051301H
	DD	010e2313H
	DD	070070025H
	DD	05006H
xdata	ENDS
;	COMDAT xdata
xdata	SEGMENT
$unwind$??0?$_Deque_unchecked_const_iterator@V?$_Deque_val@U?$_Deque_simple_types@V?$function@$$A6AXXZ@std@@@std@@@std@@@std@@QEAA@_KPEBU_Container_base12@1@@Z DD 025051d01H
	DD	0118231dH
	DD	07011001dH
	DD	05010H
xdata	ENDS
;	COMDAT xdata
xdata	SEGMENT
$unwind$??$destroy@V?$function@$$A6AXXZ@std@@@?$_Default_allocator_traits@V?$allocator@V?$function@$$A6AXXZ@std@@@std@@@std@@SAXAEAV?$allocator@V?$function@$$A6AXXZ@std@@@1@QEAV?$function@$$A6AXXZ@1@@Z DD 025051801H
	DD	01132318H
	DD	0700c001dH
	DD	0500bH
xdata	ENDS
;	COMDAT xdata
xdata	SEGMENT
$unwind$??$_Unfancy@V?$function@$$A6AXXZ@std@@@std@@YAPEAV?$function@$$A6AXXZ@0@PEAV10@@Z DD 025051301H
	DD	010e2313H
	DD	07007001dH
	DD	05006H
xdata	ENDS
;	COMDAT xdata
xdata	SEGMENT
$unwind$??$_Emplace_back_internal@AEBV?$function@$$A6AXXZ@std@@@?$deque@V?$function@$$A6AXXZ@std@@V?$allocator@V?$function@$$A6AXXZ@std@@@2@@std@@AEAAXAEBV?$function@$$A6AXXZ@1@@Z DD 025051801H
	DD	01132318H
	DD	0700c0027H
	DD	0500bH
xdata	ENDS
;	COMDAT xdata
xdata	SEGMENT
$unwind$??$_Destroy_in_place@PEAV?$function@$$A6AXXZ@std@@@std@@YAXAEAPEAV?$function@$$A6AXXZ@0@@Z DD 025051301H
	DD	010e2313H
	DD	07007001dH
	DD	05006H
xdata	ENDS
;	COMDAT xdata
xdata	SEGMENT
$unwind$??$?0V?$function@$$A6AXXZ@std@@@?$allocator@PEAV?$function@$$A6AXXZ@std@@@std@@QEAA@AEBV?$allocator@V?$function@$$A6AXXZ@std@@@1@@Z DD 025051801H
	DD	01132318H
	DD	0700c001dH
	DD	0500bH
xdata	ENDS
;	COMDAT xdata
xdata	SEGMENT
$unwind$??$min@_K@std@@YAAEB_KAEB_K0@Z DD 025051801H
	DD	01132318H
	DD	0700c0021H
	DD	0500bH
xdata	ENDS
;	COMDAT xdata
xdata	SEGMENT
$unwind$??$addressof@Vmutex@std@@@std@@YAPEAVmutex@0@AEAV10@@Z DD 025051301H
	DD	010e2313H
	DD	07007001dH
	DD	05006H
xdata	ENDS
;	COMDAT xdata
xdata	SEGMENT
$unwind$??$?0$$V@?$_Compressed_pair@V?$allocator@Vthread@std@@@std@@V?$_Vector_val@U?$_Simple_types@Vthread@std@@@std@@@2@$00@std@@QEAA@U_Zero_then_variadic_args_t@1@@Z DD 025051701H
	DD	01122317H
	DD	0700b001dH
	DD	0500aH
xdata	ENDS
;	COMDAT xdata
xdata	SEGMENT
$unwind$??$?0Vthread@std@@@?$allocator@U_Container_proxy@std@@@std@@QEAA@AEBV?$allocator@Vthread@std@@@1@@Z DD 025051801H
	DD	01132318H
	DD	0700c001dH
	DD	0500bH
xdata	ENDS
;	COMDAT xdata
xdata	SEGMENT
$unwind$??$addressof@V?$function@$$A6AXXZ@std@@@std@@YAPEAV?$function@$$A6AXXZ@0@AEAV10@@Z DD 025051301H
	DD	010e2313H
	DD	07007001dH
	DD	05006H
xdata	ENDS
;	COMDAT xdata
xdata	SEGMENT
$unwind$??$_Alloc_proxy@V?$allocator@U_Container_proxy@std@@@std@@@_Container_base12@std@@QEAAX$$QEAV?$allocator@U_Container_proxy@std@@@1@@Z DD 025051801H
	DD	01132318H
	DD	0700c0025H
	DD	0500bH
xdata	ENDS
;	COMDAT xdata
xdata	SEGMENT
$unwind$??$?0$$V@?$_Compressed_pair@V?$allocator@V?$function@$$A6AXXZ@std@@@std@@V?$_Deque_val@U?$_Deque_simple_types@V?$function@$$A6AXXZ@std@@@std@@@2@$00@std@@QEAA@U_Zero_then_variadic_args_t@1@@Z DD 025051701H
	DD	01122317H
	DD	0700b001dH
	DD	0500aH
xdata	ENDS
;	COMDAT xdata
xdata	SEGMENT
$unwind$??$_Delete_plain_internal@V?$allocator@U_Container_proxy@std@@@std@@@std@@YAXAEAV?$allocator@U_Container_proxy@std@@@0@QEAU_Container_proxy@0@@Z DD 025051801H
	DD	01132318H
	DD	0700c001dH
	DD	0500bH
xdata	ENDS
;	COMDAT xdata
xdata	SEGMENT
$unwind$??$exchange@PEAU_Container_proxy@std@@$$T@std@@YAPEAU_Container_proxy@0@AEAPEAU10@$$QEA$$T@Z DD 025051801H
	DD	01132318H
	DD	0700c0021H
	DD	0500bH
xdata	ENDS
;	COMDAT xdata
xdata	SEGMENT
$unwind$??$?0V?$function@$$A6AXXZ@std@@@?$allocator@U_Container_proxy@std@@@std@@QEAA@AEBV?$allocator@V?$function@$$A6AXXZ@std@@@1@@Z DD 025051801H
	DD	01132318H
	DD	0700c001dH
	DD	0500bH
xdata	ENDS
;	COMDAT xdata
xdata	SEGMENT
$unwind$?allocate@?$allocator@U_Container_proxy@std@@@std@@QEAAPEAU_Container_proxy@2@_K@Z DD 025051801H
	DD	01132318H
	DD	0700c001dH
	DD	0500bH
xdata	ENDS
;	COMDAT xdata
xdata	SEGMENT
$unwind$?deallocate@?$allocator@U_Container_proxy@std@@@std@@QEAAXQEAU_Container_proxy@2@_K@Z DD 035051d01H
	DD	0118331dH
	DD	07011001fH
	DD	05010H
xdata	ENDS
;	COMDAT xdata
xdata	SEGMENT
$unwind$??$wait@V<lambda_1>@?4??worker@thread_pool@@AEAAXXZ@@condition_variable@std@@QEAAXAEAV?$unique_lock@Vmutex@std@@@1@V<lambda_1>@?4??worker@thread_pool@@AEAAXXZ@@Z DD 025051d01H
	DD	0118231dH
	DD	07011001dH
	DD	05010H
xdata	ENDS
;	COMDAT xdata
xdata	SEGMENT
$unwind$??0<lambda_1>@?4??worker@thread_pool@@AEAAXXZ@QEAA@PEAV2@@Z DD 025051801H
	DD	01132318H
	DD	0700c001dH
	DD	0500bH
xdata	ENDS
;	COMDAT xdata
xdata	SEGMENT
$unwind$??R<lambda_1>@?4??worker@thread_pool@@AEAAXXZ@QEBA@XZ DD 025051301H
	DD	010e2313H
	DD	07007001fH
	DD	05006H
xdata	ENDS
;	COMDAT xdata
xdata	SEGMENT
$unwind$??$_Emplace_one_at_back@V<lambda_1>@?3???0thread_pool@@QEAA@_K@Z@@?$vector@Vthread@std@@V?$allocator@Vthread@std@@@2@@std@@AEAAAEAVthread@1@$$QEAV<lambda_1>@?3???0thread_pool@@QEAA@_K@Z@@Z DD 025051801H
	DD	01132318H
	DD	0700c0025H
	DD	0500bH
xdata	ENDS
;	COMDAT xdata
xdata	SEGMENT
$unwind$??$emplace_back@V<lambda_1>@?3???0thread_pool@@QEAA@_K@Z@@?$vector@Vthread@std@@V?$allocator@Vthread@std@@@2@@std@@QEAA?A_T$$QEAV<lambda_1>@?3???0thread_pool@@QEAA@_K@Z@@Z DD 025051801H
	DD	01132318H
	DD	0700c0021H
	DD	0500bH
xdata	ENDS
;	COMDAT xdata
xdata	SEGMENT
$unwind$??0<lambda_1>@?3???0thread_pool@@QEAA@_K@Z@QEAA@PEAV1@@Z DD 025051801H
	DD	01132318H
	DD	0700c001dH
	DD	0500bH
xdata	ENDS
;	COMDAT xdata
xdata	SEGMENT
$unwind$??R<lambda_1>@?3???0thread_pool@@QEAA@_K@Z@QEBA@XZ DD 025051301H
	DD	010e2313H
	DD	07007001dH
	DD	05006H
xdata	ENDS
;	COMDAT voltbl
voltbl	SEGMENT
_volmd	DB	00H
	DB	05H
voltbl	ENDS
;	COMDAT voltbl
voltbl	SEGMENT
_volmd	DB	00H
	DB	05H
voltbl	ENDS
;	COMDAT voltbl
voltbl	SEGMENT
_volmd	DW	036H
	DW	0163H
voltbl	ENDS
;	COMDAT xdata
xdata	SEGMENT
$unwind$?dtor$1@?0??worker@thread_pool@@AEAAXXZ@4HA DD 031001H
	DD	0700c4210H
	DD	0500bH
xdata	ENDS
;	COMDAT xdata
xdata	SEGMENT
$unwind$?dtor$0@?0??worker@thread_pool@@AEAAXXZ@4HA DD 031001H
	DD	0700c4210H
	DD	0500bH
xdata	ENDS
;	COMDAT xdata
xdata	SEGMENT
$ip2state$?worker@thread_pool@@AEAAXXZ DB 010H
	DB	00H
	DB	00H
	DB	0bcH
	DB	02H
	DB	'L'
	DB	04H
	DB	0ccH
	DB	02H
	DB	014H
	DB	00H
	DB	016H
	DB	04H
	DB	'f'
	DB	02H
	DB	'&'
	DB	00H
xdata	ENDS
;	COMDAT xdata
xdata	SEGMENT
$stateUnwindMap$?worker@thread_pool@@AEAAXXZ DB 04H
	DB	0eH
	DD	imagerel ?dtor$0@?0??worker@thread_pool@@AEAAXXZ@4HA
	DB	02eH
	DD	imagerel ?dtor$1@?0??worker@thread_pool@@AEAAXXZ@4HA
xdata	ENDS
;	COMDAT xdata
xdata	SEGMENT
$cppxdata$?worker@thread_pool@@AEAAXXZ DB 028H
	DD	imagerel $stateUnwindMap$?worker@thread_pool@@AEAAXXZ
	DD	imagerel $ip2state$?worker@thread_pool@@AEAAXXZ
xdata	ENDS
;	COMDAT xdata
xdata	SEGMENT
$unwind$?worker@thread_pool@@AEAAXXZ DD 025053d19H
	DD	010e2313H
	DD	070070035H
	DD	05006H
	DD	imagerel __GSHandlerCheck_EH4
	DD	imagerel $cppxdata$?worker@thread_pool@@AEAAXXZ
	DD	0192H
xdata	ENDS
;	COMDAT CONST
CONST	SEGMENT
?worker@thread_pool@@AEAAXXZ$rtcName$0 DB 074H		; thread_pool::worker
	DB	061H
	DB	073H
	DB	06bH
	DB	00H
	ORG $+3
?worker@thread_pool@@AEAAXXZ$rtcName$1 DB 06cH		; thread_pool::worker
	DB	06fH
	DB	063H
	DB	06bH
	DB	00H
	ORG $+3
?worker@thread_pool@@AEAAXXZ$rtcVarDesc DD 088H		; thread_pool::worker
	DD	010H
	DQ	FLAT:?worker@thread_pool@@AEAAXXZ$rtcName$1
	DD	030H
	DD	040H
	DQ	FLAT:?worker@thread_pool@@AEAAXXZ$rtcName$0
	ORG $+96
?worker@thread_pool@@AEAAXXZ$rtcFrameData DD 02H	; thread_pool::worker
	DD	00H
	DQ	FLAT:?worker@thread_pool@@AEAAXXZ$rtcVarDesc
CONST	ENDS
;	COMDAT xdata
xdata	SEGMENT
$unwind$??1?$queue@V?$function@$$A6AXXZ@std@@V?$deque@V?$function@$$A6AXXZ@std@@V?$allocator@V?$function@$$A6AXXZ@std@@@2@@2@@std@@QEAA@XZ DD 025051301H
	DD	010e2313H
	DD	07007001dH
	DD	05006H
xdata	ENDS
;	COMDAT xdata
xdata	SEGMENT
$unwind$?pop@?$queue@V?$function@$$A6AXXZ@std@@V?$deque@V?$function@$$A6AXXZ@std@@V?$allocator@V?$function@$$A6AXXZ@std@@@2@@2@@std@@QEAAXXZ DD 025051301H
	DD	010e2313H
	DD	07007001dH
	DD	05006H
xdata	ENDS
;	COMDAT xdata
xdata	SEGMENT
$unwind$?push@?$queue@V?$function@$$A6AXXZ@std@@V?$deque@V?$function@$$A6AXXZ@std@@V?$allocator@V?$function@$$A6AXXZ@std@@@2@@2@@std@@QEAAXAEBV?$function@$$A6AXXZ@2@@Z DD 025051801H
	DD	01132318H
	DD	0700c001fH
	DD	0500bH
xdata	ENDS
;	COMDAT xdata
xdata	SEGMENT
$unwind$?front@?$queue@V?$function@$$A6AXXZ@std@@V?$deque@V?$function@$$A6AXXZ@std@@V?$allocator@V?$function@$$A6AXXZ@std@@@2@@2@@std@@QEAAAEAV?$function@$$A6AXXZ@2@XZ DD 025051301H
	DD	010e2313H
	DD	07007001dH
	DD	05006H
xdata	ENDS
;	COMDAT xdata
xdata	SEGMENT
$unwind$?empty@?$queue@V?$function@$$A6AXXZ@std@@V?$deque@V?$function@$$A6AXXZ@std@@V?$allocator@V?$function@$$A6AXXZ@std@@@2@@2@@std@@QEBA_NXZ DD 025051301H
	DD	010e2313H
	DD	07007001dH
	DD	05006H
xdata	ENDS
;	COMDAT xdata
xdata	SEGMENT
$unwind$??0?$queue@V?$function@$$A6AXXZ@std@@V?$deque@V?$function@$$A6AXXZ@std@@V?$allocator@V?$function@$$A6AXXZ@std@@@2@@2@@std@@QEAA@XZ DD 025051301H
	DD	010e2313H
	DD	07007001dH
	DD	05006H
xdata	ENDS
;	COMDAT xdata
xdata	SEGMENT
$unwind$?_Get_first@?$_Compressed_pair@V?$allocator@V?$function@$$A6AXXZ@std@@@std@@V?$_Deque_val@U?$_Deque_simple_types@V?$function@$$A6AXXZ@std@@@std@@@2@$00@std@@QEBAAEBV?$allocator@V?$function@$$A6AXXZ@std@@@2@XZ DD 025051301H
	DD	010e2313H
	DD	07007001dH
	DD	05006H
xdata	ENDS
;	COMDAT xdata
xdata	SEGMENT
$unwind$?_Get_first@?$_Compressed_pair@V?$allocator@V?$function@$$A6AXXZ@std@@@std@@V?$_Deque_val@U?$_Deque_simple_types@V?$function@$$A6AXXZ@std@@@std@@@2@$00@std@@QEAAAEAV?$allocator@V?$function@$$A6AXXZ@std@@@2@XZ DD 025051301H
	DD	010e2313H
	DD	07007001dH
	DD	05006H
xdata	ENDS
;	COMDAT xdata
xdata	SEGMENT
$unwind$?_Mysize@?$deque@V?$function@$$A6AXXZ@std@@V?$allocator@V?$function@$$A6AXXZ@std@@@2@@std@@AEBAAEB_KXZ DD 025051301H
	DD	010e2313H
	DD	07007001dH
	DD	05006H
xdata	ENDS
;	COMDAT xdata
xdata	SEGMENT
$unwind$?_Mysize@?$deque@V?$function@$$A6AXXZ@std@@V?$allocator@V?$function@$$A6AXXZ@std@@@2@@std@@AEAAAEA_KXZ DD 025051301H
	DD	010e2313H
	DD	07007001dH
	DD	05006H
xdata	ENDS
;	COMDAT xdata
xdata	SEGMENT
$unwind$?_Myoff@?$deque@V?$function@$$A6AXXZ@std@@V?$allocator@V?$function@$$A6AXXZ@std@@@2@@std@@AEBAAEB_KXZ DD 025051301H
	DD	010e2313H
	DD	07007001dH
	DD	05006H
xdata	ENDS
;	COMDAT xdata
xdata	SEGMENT
$unwind$?_Myoff@?$deque@V?$function@$$A6AXXZ@std@@V?$allocator@V?$function@$$A6AXXZ@std@@@2@@std@@AEAAAEA_KXZ DD 025051301H
	DD	010e2313H
	DD	07007001dH
	DD	05006H
xdata	ENDS
;	COMDAT xdata
xdata	SEGMENT
$unwind$?_Mapsize@?$deque@V?$function@$$A6AXXZ@std@@V?$allocator@V?$function@$$A6AXXZ@std@@@2@@std@@AEAAAEA_KXZ DD 025051301H
	DD	010e2313H
	DD	07007001dH
	DD	05006H
xdata	ENDS
;	COMDAT xdata
xdata	SEGMENT
$unwind$?_Map@?$deque@V?$function@$$A6AXXZ@std@@V?$allocator@V?$function@$$A6AXXZ@std@@@2@@std@@AEAAAEAPEAPEAV?$function@$$A6AXXZ@2@XZ DD 025051301H
	DD	010e2313H
	DD	07007001dH
	DD	05006H
xdata	ENDS
;	COMDAT xdata
xdata	SEGMENT
$unwind$?_Get_data@?$deque@V?$function@$$A6AXXZ@std@@V?$allocator@V?$function@$$A6AXXZ@std@@@2@@std@@AEBAAEBV?$_Deque_val@U?$_Deque_simple_types@V?$function@$$A6AXXZ@std@@@std@@@2@XZ DD 025051301H
	DD	010e2313H
	DD	07007001dH
	DD	05006H
xdata	ENDS
;	COMDAT xdata
xdata	SEGMENT
$unwind$?_Get_data@?$deque@V?$function@$$A6AXXZ@std@@V?$allocator@V?$function@$$A6AXXZ@std@@@2@@std@@AEAAAEAV?$_Deque_val@U?$_Deque_simple_types@V?$function@$$A6AXXZ@std@@@std@@@2@XZ DD 025051301H
	DD	010e2313H
	DD	07007001dH
	DD	05006H
xdata	ENDS
;	COMDAT xdata
xdata	SEGMENT
$unwind$?_Getal@?$deque@V?$function@$$A6AXXZ@std@@V?$allocator@V?$function@$$A6AXXZ@std@@@2@@std@@AEBAAEBV?$allocator@V?$function@$$A6AXXZ@std@@@2@XZ DD 025051301H
	DD	010e2313H
	DD	07007001dH
	DD	05006H
xdata	ENDS
;	COMDAT xdata
xdata	SEGMENT
$unwind$?_Getal@?$deque@V?$function@$$A6AXXZ@std@@V?$allocator@V?$function@$$A6AXXZ@std@@@2@@std@@AEAAAEAV?$allocator@V?$function@$$A6AXXZ@std@@@2@XZ DD 025051301H
	DD	010e2313H
	DD	07007001dH
	DD	05006H
xdata	ENDS
;	COMDAT xdata
xdata	SEGMENT
$unwind$?_Orphan_all@?$deque@V?$function@$$A6AXXZ@std@@V?$allocator@V?$function@$$A6AXXZ@std@@@2@@std@@AEAAXXZ DD 025051301H
	DD	010e2313H
	DD	07007001dH
	DD	05006H
xdata	ENDS
;	COMDAT xdata
xdata	SEGMENT
$unwind$?_Getblock@?$deque@V?$function@$$A6AXXZ@std@@V?$allocator@V?$function@$$A6AXXZ@std@@@2@@std@@AEBA_K_K@Z DD 025051801H
	DD	01132318H
	DD	0700c001fH
	DD	0500bH
xdata	ENDS
;	COMDAT voltbl
voltbl	SEGMENT
_volmd	DW	03bH
	DW	0178H
voltbl	ENDS
;	COMDAT xdata
xdata	SEGMENT
$unwind$?_Orphan_off@?$deque@V?$function@$$A6AXXZ@std@@V?$allocator@V?$function@$$A6AXXZ@std@@@2@@std@@AEBAX_K@Z DD 025054219H
	DD	01132318H
	DD	0700c002fH
	DD	0500bH
	DD	imagerel __GSHandlerCheck
	DD	0168H
xdata	ENDS
;	COMDAT CONST
CONST	SEGMENT
?_Orphan_off@?$deque@V?$function@$$A6AXXZ@std@@V?$allocator@V?$function@$$A6AXXZ@std@@@2@@std@@AEBAX_K@Z$rtcName$0 DB 05fH ; std::deque<std::function<void __cdecl(void)>,std::allocator<std::function<void __cdecl(void)> > >::_Orphan_off
	DB	04cH
	DB	06fH
	DB	063H
	DB	06bH
	DB	00H
	ORG $+10
?_Orphan_off@?$deque@V?$function@$$A6AXXZ@std@@V?$allocator@V?$function@$$A6AXXZ@std@@@2@@std@@AEBAX_K@Z$rtcVarDesc DD 044H ; std::deque<std::function<void __cdecl(void)>,std::allocator<std::function<void __cdecl(void)> > >::_Orphan_off
	DD	04H
	DQ	FLAT:?_Orphan_off@?$deque@V?$function@$$A6AXXZ@std@@V?$allocator@V?$function@$$A6AXXZ@std@@@2@@std@@AEBAX_K@Z$rtcName$0
	ORG $+48
?_Orphan_off@?$deque@V?$function@$$A6AXXZ@std@@V?$allocator@V?$function@$$A6AXXZ@std@@@2@@std@@AEBAX_K@Z$rtcFrameData DD 01H ; std::deque<std::function<void __cdecl(void)>,std::allocator<std::function<void __cdecl(void)> > >::_Orphan_off
	DD	00H
	DQ	FLAT:?_Orphan_off@?$deque@V?$function@$$A6AXXZ@std@@V?$allocator@V?$function@$$A6AXXZ@std@@@2@@std@@AEBAX_K@Z$rtcVarDesc
CONST	ENDS
;	COMDAT voltbl
voltbl	SEGMENT
_volmd	DW	036H
	DW	01cfH
voltbl	ENDS
;	COMDAT xdata
xdata	SEGMENT
$ip2state$?_Tidy@?$deque@V?$function@$$A6AXXZ@std@@V?$allocator@V?$function@$$A6AXXZ@std@@@2@@std@@AEAAXXZ DB 02H
	DB	00H
	DB	00H
xdata	ENDS
;	COMDAT xdata
xdata	SEGMENT
$cppxdata$?_Tidy@?$deque@V?$function@$$A6AXXZ@std@@V?$allocator@V?$function@$$A6AXXZ@std@@@2@@std@@AEAAXXZ DB 060H
	DD	imagerel $ip2state$?_Tidy@?$deque@V?$function@$$A6AXXZ@std@@V?$allocator@V?$function@$$A6AXXZ@std@@@2@@std@@AEAAXXZ
xdata	ENDS
;	COMDAT xdata
xdata	SEGMENT
$unwind$?_Tidy@?$deque@V?$function@$$A6AXXZ@std@@V?$allocator@V?$function@$$A6AXXZ@std@@@2@@std@@AEAAXXZ DD 025053d19H
	DD	010e2313H
	DD	070070027H
	DD	05006H
	DD	imagerel __GSHandlerCheck_EH4
	DD	imagerel $cppxdata$?_Tidy@?$deque@V?$function@$$A6AXXZ@std@@V?$allocator@V?$function@$$A6AXXZ@std@@@2@@std@@AEAAXXZ
	DD	012bH
xdata	ENDS
;	COMDAT CONST
CONST	SEGMENT
?_Tidy@?$deque@V?$function@$$A6AXXZ@std@@V?$allocator@V?$function@$$A6AXXZ@std@@@2@@std@@AEAAXXZ$rtcName$0 DB 05fH ; std::deque<std::function<void __cdecl(void)>,std::allocator<std::function<void __cdecl(void)> > >::_Tidy
	DB	041H
	DB	06cH
	DB	06dH
	DB	061H
	DB	070H
	DB	00H
	ORG $+9
?_Tidy@?$deque@V?$function@$$A6AXXZ@std@@V?$allocator@V?$function@$$A6AXXZ@std@@@2@@std@@AEAAXXZ$rtcVarDesc DD 024H ; std::deque<std::function<void __cdecl(void)>,std::allocator<std::function<void __cdecl(void)> > >::_Tidy
	DD	01H
	DQ	FLAT:?_Tidy@?$deque@V?$function@$$A6AXXZ@std@@V?$allocator@V?$function@$$A6AXXZ@std@@@2@@std@@AEAAXXZ$rtcName$0
	ORG $+48
?_Tidy@?$deque@V?$function@$$A6AXXZ@std@@V?$allocator@V?$function@$$A6AXXZ@std@@@2@@std@@AEAAXXZ$rtcFrameData DD 01H ; std::deque<std::function<void __cdecl(void)>,std::allocator<std::function<void __cdecl(void)> > >::_Tidy
	DD	00H
	DQ	FLAT:?_Tidy@?$deque@V?$function@$$A6AXXZ@std@@V?$allocator@V?$function@$$A6AXXZ@std@@@2@@std@@AEAAXXZ$rtcVarDesc
CONST	ENDS
;	COMDAT voltbl
voltbl	SEGMENT
_volmd	DW	03bH
	DW	0427H
voltbl	ENDS
;	COMDAT xdata
xdata	SEGMENT
$unwind$?_Growmap@?$deque@V?$function@$$A6AXXZ@std@@V?$allocator@V?$function@$$A6AXXZ@std@@@2@@std@@AEAAX_K@Z DD 025054219H
	DD	01132318H
	DD	0700c0035H
	DD	0500bH
	DD	imagerel __GSHandlerCheck
	DD	0190H
xdata	ENDS
;	COMDAT CONST
CONST	SEGMENT
?_Growmap@?$deque@V?$function@$$A6AXXZ@std@@V?$allocator@V?$function@$$A6AXXZ@std@@@2@@std@@AEAAX_K@Z$rtcName$0 DB 05fH ; std::deque<std::function<void __cdecl(void)>,std::allocator<std::function<void __cdecl(void)> > >::_Growmap
	DB	041H
	DB	06cH
	DB	06dH
	DB	061H
	DB	070H
	DB	00H
	ORG $+1
?_Growmap@?$deque@V?$function@$$A6AXXZ@std@@V?$allocator@V?$function@$$A6AXXZ@std@@@2@@std@@AEAAX_K@Z$rtcName$1 DB 05fH ; std::deque<std::function<void __cdecl(void)>,std::allocator<std::function<void __cdecl(void)> > >::_Growmap
	DB	04eH
	DB	065H
	DB	077H
	DB	073H
	DB	069H
	DB	07aH
	DB	065H
	DB	00H
	ORG $+15
?_Growmap@?$deque@V?$function@$$A6AXXZ@std@@V?$allocator@V?$function@$$A6AXXZ@std@@@2@@std@@AEAAX_K@Z$rtcVarDesc DD 048H ; std::deque<std::function<void __cdecl(void)>,std::allocator<std::function<void __cdecl(void)> > >::_Growmap
	DD	08H
	DQ	FLAT:?_Growmap@?$deque@V?$function@$$A6AXXZ@std@@V?$allocator@V?$function@$$A6AXXZ@std@@@2@@std@@AEAAX_K@Z$rtcName$1
	DD	024H
	DD	01H
	DQ	FLAT:?_Growmap@?$deque@V?$function@$$A6AXXZ@std@@V?$allocator@V?$function@$$A6AXXZ@std@@@2@@std@@AEAAX_K@Z$rtcName$0
	ORG $+96
?_Growmap@?$deque@V?$function@$$A6AXXZ@std@@V?$allocator@V?$function@$$A6AXXZ@std@@@2@@std@@AEAAX_K@Z$rtcFrameData DD 02H ; std::deque<std::function<void __cdecl(void)>,std::allocator<std::function<void __cdecl(void)> > >::_Growmap
	DD	00H
	DQ	FLAT:?_Growmap@?$deque@V?$function@$$A6AXXZ@std@@V?$allocator@V?$function@$$A6AXXZ@std@@@2@@std@@AEAAX_K@Z$rtcVarDesc
CONST	ENDS
;	COMDAT xdata
xdata	SEGMENT
$unwind$?_Xlen@?$deque@V?$function@$$A6AXXZ@std@@V?$allocator@V?$function@$$A6AXXZ@std@@@2@@std@@CAXXZ DD 025050f01H
	DD	010a230fH
	DD	07003001dH
	DD	05002H
xdata	ENDS
;	COMDAT xdata
xdata	SEGMENT
$ip2state$?pop_back@?$deque@V?$function@$$A6AXXZ@std@@V?$allocator@V?$function@$$A6AXXZ@std@@@2@@std@@QEAAXXZ DB 02H
	DB	00H
	DB	00H
xdata	ENDS
;	COMDAT xdata
xdata	SEGMENT
$cppxdata$?pop_back@?$deque@V?$function@$$A6AXXZ@std@@V?$allocator@V?$function@$$A6AXXZ@std@@@2@@std@@QEAAXXZ DB 060H
	DD	imagerel $ip2state$?pop_back@?$deque@V?$function@$$A6AXXZ@std@@V?$allocator@V?$function@$$A6AXXZ@std@@@2@@std@@QEAAXXZ
xdata	ENDS
;	COMDAT xdata
xdata	SEGMENT
$unwind$?pop_back@?$deque@V?$function@$$A6AXXZ@std@@V?$allocator@V?$function@$$A6AXXZ@std@@@2@@std@@QEAAXXZ DD 035051319H
	DD	010e3313H
	DD	070070029H
	DD	05006H
	DD	imagerel __CxxFrameHandler4
	DD	imagerel $cppxdata$?pop_back@?$deque@V?$function@$$A6AXXZ@std@@V?$allocator@V?$function@$$A6AXXZ@std@@@2@@std@@QEAAXXZ
xdata	ENDS
;	COMDAT xdata
xdata	SEGMENT
$unwind$?push_back@?$deque@V?$function@$$A6AXXZ@std@@V?$allocator@V?$function@$$A6AXXZ@std@@@2@@std@@QEAAXAEBV?$function@$$A6AXXZ@2@@Z DD 025051801H
	DD	01132318H
	DD	0700c001dH
	DD	0500bH
xdata	ENDS
;	COMDAT xdata
xdata	SEGMENT
$ip2state$?pop_front@?$deque@V?$function@$$A6AXXZ@std@@V?$allocator@V?$function@$$A6AXXZ@std@@@2@@std@@QEAAXXZ DB 02H
	DB	00H
	DB	00H
xdata	ENDS
;	COMDAT xdata
xdata	SEGMENT
$cppxdata$?pop_front@?$deque@V?$function@$$A6AXXZ@std@@V?$allocator@V?$function@$$A6AXXZ@std@@@2@@std@@QEAAXXZ DB 060H
	DD	imagerel $ip2state$?pop_front@?$deque@V?$function@$$A6AXXZ@std@@V?$allocator@V?$function@$$A6AXXZ@std@@@2@@std@@QEAAXXZ
xdata	ENDS
;	COMDAT xdata
xdata	SEGMENT
$unwind$?pop_front@?$deque@V?$function@$$A6AXXZ@std@@V?$allocator@V?$function@$$A6AXXZ@std@@@2@@std@@QEAAXXZ DD 035051319H
	DD	010e3313H
	DD	070070025H
	DD	05006H
	DD	imagerel __CxxFrameHandler4
	DD	imagerel $cppxdata$?pop_front@?$deque@V?$function@$$A6AXXZ@std@@V?$allocator@V?$function@$$A6AXXZ@std@@@2@@std@@QEAAXXZ
xdata	ENDS
;	COMDAT xdata
xdata	SEGMENT
$unwind$?front@?$deque@V?$function@$$A6AXXZ@std@@V?$allocator@V?$function@$$A6AXXZ@std@@@2@@std@@QEAAAEAV?$function@$$A6AXXZ@2@XZ DD 035051301H
	DD	010e3313H
	DD	070070025H
	DD	05006H
xdata	ENDS
;	COMDAT xdata
xdata	SEGMENT
$unwind$?empty@?$deque@V?$function@$$A6AXXZ@std@@V?$allocator@V?$function@$$A6AXXZ@std@@@2@@std@@QEBA_NXZ DD 025051301H
	DD	010e2313H
	DD	07007001fH
	DD	05006H
xdata	ENDS
;	COMDAT xdata
xdata	SEGMENT
$unwind$?max_size@?$deque@V?$function@$$A6AXXZ@std@@V?$allocator@V?$function@$$A6AXXZ@std@@@2@@std@@QEBA_KXZ DD 025051301H
	DD	010e2313H
	DD	070070025H
	DD	05006H
xdata	ENDS
;	COMDAT xdata
xdata	SEGMENT
$unwind$?_Unchecked_begin@?$deque@V?$function@$$A6AXXZ@std@@V?$allocator@V?$function@$$A6AXXZ@std@@@2@@std@@QEAA?AV?$_Deque_unchecked_iterator@V?$_Deque_val@U?$_Deque_simple_types@V?$function@$$A6AXXZ@std@@@std@@@std@@@2@XZ DD 025051801H
	DD	01132318H
	DD	0700c001fH
	DD	0500bH
xdata	ENDS
;	COMDAT voltbl
voltbl	SEGMENT
_volmd	DB	036H
	DB	0afH
voltbl	ENDS
;	COMDAT xdata
xdata	SEGMENT
$unwind$??1?$deque@V?$function@$$A6AXXZ@std@@V?$allocator@V?$function@$$A6AXXZ@std@@@2@@std@@QEAA@XZ DD 025053d19H
	DD	010e2313H
	DD	070070025H
	DD	05006H
	DD	imagerel __GSHandlerCheck
	DD	0118H
xdata	ENDS
;	COMDAT CONST
CONST	SEGMENT
??1?$deque@V?$function@$$A6AXXZ@std@@V?$allocator@V?$function@$$A6AXXZ@std@@@2@@std@@QEAA@XZ$rtcName$0 DB 05fH ; std::deque<std::function<void __cdecl(void)>,std::allocator<std::function<void __cdecl(void)> > >::~deque<std::function<void __cdecl(void)>,std::allocator<std::function<void __cdecl(void)> > >
	DB	050H
	DB	072H
	DB	06fH
	DB	078H
	DB	079H
	DB	05fH
	DB	061H
	DB	06cH
	DB	06cH
	DB	06fH
	DB	063H
	DB	061H
	DB	074H
	DB	06fH
	DB	072H
	DB	00H
	ORG $+15
??1?$deque@V?$function@$$A6AXXZ@std@@V?$allocator@V?$function@$$A6AXXZ@std@@@2@@std@@QEAA@XZ$rtcVarDesc DD 024H ; std::deque<std::function<void __cdecl(void)>,std::allocator<std::function<void __cdecl(void)> > >::~deque<std::function<void __cdecl(void)>,std::allocator<std::function<void __cdecl(void)> > >
	DD	01H
	DQ	FLAT:??1?$deque@V?$function@$$A6AXXZ@std@@V?$allocator@V?$function@$$A6AXXZ@std@@@2@@std@@QEAA@XZ$rtcName$0
	ORG $+48
??1?$deque@V?$function@$$A6AXXZ@std@@V?$allocator@V?$function@$$A6AXXZ@std@@@2@@std@@QEAA@XZ$rtcFrameData DD 01H ; std::deque<std::function<void __cdecl(void)>,std::allocator<std::function<void __cdecl(void)> > >::~deque<std::function<void __cdecl(void)>,std::allocator<std::function<void __cdecl(void)> > >
	DD	00H
	DQ	FLAT:??1?$deque@V?$function@$$A6AXXZ@std@@V?$allocator@V?$function@$$A6AXXZ@std@@@2@@std@@QEAA@XZ$rtcVarDesc
CONST	ENDS
;	COMDAT xdata
xdata	SEGMENT
$unwind$??0?$deque@V?$function@$$A6AXXZ@std@@V?$allocator@V?$function@$$A6AXXZ@std@@@2@@std@@QEAA@XZ DD 025051301H
	DD	010e2313H
	DD	070070027H
	DD	05006H
xdata	ENDS
;	COMDAT xdata
xdata	SEGMENT
$unwind$?_Getblock@?$_Deque_val@U?$_Deque_simple_types@V?$function@$$A6AXXZ@std@@@std@@@std@@QEBA_K_K@Z DD 025051801H
	DD	01132318H
	DD	0700c001dH
	DD	0500bH
xdata	ENDS
;	COMDAT xdata
xdata	SEGMENT
$unwind$??0?$_Deque_val@U?$_Deque_simple_types@V?$function@$$A6AXXZ@std@@@std@@@std@@QEAA@XZ DD 025051301H
	DD	010e2313H
	DD	07007001dH
	DD	05006H
xdata	ENDS
;	COMDAT xdata
xdata	SEGMENT
$unwind$??_G?$function@$$A6AXXZ@std@@QEAAPEAXI@Z DD 025051701H
	DD	01122317H
	DD	0700b001dH
	DD	0500aH
xdata	ENDS
;	COMDAT xdata
xdata	SEGMENT
$unwind$??1?$function@$$A6AXXZ@std@@QEAA@XZ DD 025051301H
	DD	010e2313H
	DD	07007001dH
	DD	05006H
xdata	ENDS
;	COMDAT xdata
xdata	SEGMENT
$unwind$??4?$function@$$A6AXXZ@std@@QEAAAEAV01@$$QEAV01@@Z DD 025051801H
	DD	01132318H
	DD	0700c001dH
	DD	0500bH
xdata	ENDS
;	COMDAT voltbl
voltbl	SEGMENT
_volmd	DB	00H
	DB	05H
voltbl	ENDS
;	COMDAT xdata
xdata	SEGMENT
$unwind$?dtor$0@?0???0?$function@$$A6AXXZ@std@@QEAA@AEBV01@@Z@4HA DD 031001H
	DD	0700c4210H
	DD	0500bH
xdata	ENDS
;	COMDAT xdata
xdata	SEGMENT
$ip2state$??0?$function@$$A6AXXZ@std@@QEAA@AEBV01@@Z DB 06H
	DB	00H
	DB	00H
	DB	'b'
	DB	02H
	DB	'('
	DB	00H
xdata	ENDS
;	COMDAT xdata
xdata	SEGMENT
$stateUnwindMap$??0?$function@$$A6AXXZ@std@@QEAA@AEBV01@@Z DB 02H
	DB	0eH
	DD	imagerel ?dtor$0@?0???0?$function@$$A6AXXZ@std@@QEAA@AEBV01@@Z@4HA
xdata	ENDS
;	COMDAT xdata
xdata	SEGMENT
$cppxdata$??0?$function@$$A6AXXZ@std@@QEAA@AEBV01@@Z DB 028H
	DD	imagerel $stateUnwindMap$??0?$function@$$A6AXXZ@std@@QEAA@AEBV01@@Z
	DD	imagerel $ip2state$??0?$function@$$A6AXXZ@std@@QEAA@AEBV01@@Z
xdata	ENDS
;	COMDAT xdata
xdata	SEGMENT
$unwind$??0?$function@$$A6AXXZ@std@@QEAA@AEBV01@@Z DD 025051811H
	DD	01132318H
	DD	0700c001dH
	DD	0500bH
	DD	imagerel __CxxFrameHandler4
	DD	imagerel $cppxdata$??0?$function@$$A6AXXZ@std@@QEAA@AEBV01@@Z
xdata	ENDS
;	COMDAT xdata
xdata	SEGMENT
$unwind$??0?$function@$$A6AXXZ@std@@QEAA@XZ DD 025051301H
	DD	010e2313H
	DD	07007001dH
	DD	05006H
xdata	ENDS
;	COMDAT xdata
xdata	SEGMENT
$unwind$?_Set@?$_Func_class@X$$V@std@@AEAAXPEAV?$_Func_base@X$$V@2@@Z DD 025051801H
	DD	01132318H
	DD	0700c001dH
	DD	0500bH
xdata	ENDS
;	COMDAT xdata
xdata	SEGMENT
$unwind$?_Getimpl@?$_Func_class@X$$V@std@@AEBAPEAV?$_Func_base@X$$V@2@XZ DD 025051301H
	DD	010e2313H
	DD	07007001dH
	DD	05006H
xdata	ENDS
;	COMDAT xdata
xdata	SEGMENT
$unwind$?_Local@?$_Func_class@X$$V@std@@AEBA_NXZ DD 025051301H
	DD	010e2313H
	DD	07007001fH
	DD	05006H
xdata	ENDS
;	COMDAT xdata
xdata	SEGMENT
$unwind$?_Tidy@?$_Func_class@X$$V@std@@IEAAXXZ DD 025051301H
	DD	010e2313H
	DD	070070021H
	DD	05006H
xdata	ENDS
;	COMDAT xdata
xdata	SEGMENT
$unwind$?_Reset_move@?$_Func_class@X$$V@std@@IEAAX$$QEAV12@@Z DD 025051801H
	DD	01132318H
	DD	0700c001fH
	DD	0500bH
xdata	ENDS
;	COMDAT xdata
xdata	SEGMENT
$unwind$?_Reset_copy@?$_Func_class@X$$V@std@@IEAAXAEBV12@@Z DD 025051801H
	DD	01132318H
	DD	0700c001fH
	DD	0500bH
xdata	ENDS
;	COMDAT xdata
xdata	SEGMENT
$unwind$?_Empty@?$_Func_class@X$$V@std@@IEBA_NXZ DD 025051301H
	DD	010e2313H
	DD	07007001fH
	DD	05006H
xdata	ENDS
;	COMDAT xdata
xdata	SEGMENT
$unwind$??1?$_Func_class@X$$V@std@@QEAA@XZ DD 025051301H
	DD	010e2313H
	DD	07007001dH
	DD	05006H
xdata	ENDS
;	COMDAT xdata
xdata	SEGMENT
$unwind$??R?$_Func_class@X$$V@std@@QEBAXXZ DD 025051301H
	DD	010e2313H
	DD	070070021H
	DD	05006H
xdata	ENDS
;	COMDAT xdata
xdata	SEGMENT
$unwind$??0?$_Func_class@X$$V@std@@QEAA@XZ DD 025051301H
	DD	010e2313H
	DD	07007001dH
	DD	05006H
xdata	ENDS
;	COMDAT xdata
xdata	SEGMENT
$unwind$?allocate@?$allocator@PEAV?$function@$$A6AXXZ@std@@@std@@QEAAPEAPEAV?$function@$$A6AXXZ@2@_K@Z DD 025051801H
	DD	01132318H
	DD	0700c001dH
	DD	0500bH
xdata	ENDS
;	COMDAT xdata
xdata	SEGMENT
$unwind$?deallocate@?$allocator@PEAV?$function@$$A6AXXZ@std@@@std@@QEAAXQEAPEAV?$function@$$A6AXXZ@2@_K@Z DD 035051d01H
	DD	0118331dH
	DD	07011001fH
	DD	05010H
xdata	ENDS
;	COMDAT xdata
xdata	SEGMENT
$unwind$?max_size@?$_Default_allocator_traits@V?$allocator@V?$function@$$A6AXXZ@std@@@std@@@std@@SA_KAEBV?$allocator@V?$function@$$A6AXXZ@std@@@2@@Z DD 025051301H
	DD	010e2313H
	DD	07007001dH
	DD	05006H
xdata	ENDS
;	COMDAT xdata
xdata	SEGMENT
$unwind$?allocate@?$allocator@V?$function@$$A6AXXZ@std@@@std@@QEAAPEAV?$function@$$A6AXXZ@2@_K@Z DD 025051801H
	DD	01132318H
	DD	0700c001dH
	DD	0500bH
xdata	ENDS
;	COMDAT xdata
xdata	SEGMENT
$unwind$?deallocate@?$allocator@V?$function@$$A6AXXZ@std@@@std@@QEAAXQEAV?$function@$$A6AXXZ@2@_K@Z DD 035051d01H
	DD	0118331dH
	DD	07011001fH
	DD	05010H
xdata	ENDS
;	COMDAT xdata
xdata	SEGMENT
$unwind$??0?$allocator@V?$function@$$A6AXXZ@std@@@std@@QEAA@XZ DD 025051301H
	DD	010e2313H
	DD	07007001dH
	DD	05006H
xdata	ENDS
;	COMDAT xdata
xdata	SEGMENT
$unwind$?_Get_first@?$_Compressed_pair@V?$allocator@Vthread@std@@@std@@V?$_Vector_val@U?$_Simple_types@Vthread@std@@@std@@@2@$00@std@@QEBAAEBV?$allocator@Vthread@std@@@2@XZ DD 025051301H
	DD	010e2313H
	DD	07007001dH
	DD	05006H
xdata	ENDS
;	COMDAT xdata
xdata	SEGMENT
$unwind$?_Get_first@?$_Compressed_pair@V?$allocator@Vthread@std@@@std@@V?$_Vector_val@U?$_Simple_types@Vthread@std@@@std@@@2@$00@std@@QEAAAEAV?$allocator@Vthread@std@@@2@XZ DD 025051301H
	DD	010e2313H
	DD	07007001dH
	DD	05006H
xdata	ENDS
;	COMDAT xdata
xdata	SEGMENT
$unwind$??0?$_Vector_val@U?$_Simple_types@Vthread@std@@@std@@@std@@QEAA@XZ DD 025051301H
	DD	010e2313H
	DD	07007001dH
	DD	05006H
xdata	ENDS
;	COMDAT xdata
xdata	SEGMENT
$unwind$?_Getal@?$vector@Vthread@std@@V?$allocator@Vthread@std@@@2@@std@@AEBAAEBV?$allocator@Vthread@std@@@2@XZ DD 025051301H
	DD	010e2313H
	DD	07007001dH
	DD	05006H
xdata	ENDS
;	COMDAT xdata
xdata	SEGMENT
$unwind$?_Getal@?$vector@Vthread@std@@V?$allocator@Vthread@std@@@2@@std@@AEAAAEAV?$allocator@Vthread@std@@@2@XZ DD 025051301H
	DD	010e2313H
	DD	07007001dH
	DD	05006H
xdata	ENDS
;	COMDAT xdata
xdata	SEGMENT
$unwind$?_Orphan_range@?$vector@Vthread@std@@V?$allocator@Vthread@std@@@2@@std@@AEBAXPEAVthread@2@0@Z DD 025051d01H
	DD	0118231dH
	DD	07011001dH
	DD	05010H
xdata	ENDS
;	COMDAT voltbl
voltbl	SEGMENT
_volmd	DB	00H
	DB	05H
voltbl	ENDS
;	COMDAT voltbl
voltbl	SEGMENT
_volmd	DB	040H
	DB	098H
voltbl	ENDS
;	COMDAT xdata
xdata	SEGMENT
$unwind$?dtor$0@?0??_Orphan_range_locked@?$vector@Vthread@std@@V?$allocator@Vthread@std@@@2@@std@@AEBAXPEAVthread@2@0@Z@4HA DD 031001H
	DD	0700c4210H
	DD	0500bH
xdata	ENDS
;	COMDAT xdata
xdata	SEGMENT
$ip2state$?_Orphan_range_locked@?$vector@Vthread@std@@V?$allocator@Vthread@std@@@2@@std@@AEBAXPEAVthread@2@0@Z DB 06H
	DB	00H
	DB	00H
	DB	0c6H
	DB	02H
	DB	'6'
	DB	00H
xdata	ENDS
;	COMDAT xdata
xdata	SEGMENT
$stateUnwindMap$?_Orphan_range_locked@?$vector@Vthread@std@@V?$allocator@Vthread@std@@@2@@std@@AEBAXPEAVthread@2@0@Z DB 02H
	DB	0eH
	DD	imagerel ?dtor$0@?0??_Orphan_range_locked@?$vector@Vthread@std@@V?$allocator@Vthread@std@@@2@@std@@AEBAXPEAVthread@2@0@Z@4HA
xdata	ENDS
;	COMDAT xdata
xdata	SEGMENT
$cppxdata$?_Orphan_range_locked@?$vector@Vthread@std@@V?$allocator@Vthread@std@@@2@@std@@AEBAXPEAVthread@2@0@Z DB 028H
	DD	imagerel $stateUnwindMap$?_Orphan_range_locked@?$vector@Vthread@std@@V?$allocator@Vthread@std@@@2@@std@@AEBAXPEAVthread@2@0@Z
	DD	imagerel $ip2state$?_Orphan_range_locked@?$vector@Vthread@std@@V?$allocator@Vthread@std@@@2@@std@@AEBAXPEAVthread@2@0@Z
xdata	ENDS
;	COMDAT xdata
xdata	SEGMENT
$unwind$?_Orphan_range_locked@?$vector@Vthread@std@@V?$allocator@Vthread@std@@@2@@std@@AEBAXPEAVthread@2@0@Z DD 025054719H
	DD	0118231dH
	DD	070110021H
	DD	05010H
	DD	imagerel __GSHandlerCheck_EH4
	DD	imagerel $cppxdata$?_Orphan_range_locked@?$vector@Vthread@std@@V?$allocator@Vthread@std@@@2@@std@@AEBAXPEAVthread@2@0@Z
	DD	0faH
xdata	ENDS
;	COMDAT CONST
CONST	SEGMENT
?_Orphan_range_locked@?$vector@Vthread@std@@V?$allocator@Vthread@std@@@2@@std@@AEBAXPEAVthread@2@0@Z$rtcName$0 DB 05fH ; std::vector<std::thread,std::allocator<std::thread> >::_Orphan_range_locked
	DB	04cH
	DB	06fH
	DB	063H
	DB	06bH
	DB	00H
	ORG $+10
?_Orphan_range_locked@?$vector@Vthread@std@@V?$allocator@Vthread@std@@@2@@std@@AEBAXPEAVthread@2@0@Z$rtcVarDesc DD 024H ; std::vector<std::thread,std::allocator<std::thread> >::_Orphan_range_locked
	DD	04H
	DQ	FLAT:?_Orphan_range_locked@?$vector@Vthread@std@@V?$allocator@Vthread@std@@@2@@std@@AEBAXPEAVthread@2@0@Z$rtcName$0
	ORG $+48
?_Orphan_range_locked@?$vector@Vthread@std@@V?$allocator@Vthread@std@@@2@@std@@AEBAXPEAVthread@2@0@Z$rtcFrameData DD 01H ; std::vector<std::thread,std::allocator<std::thread> >::_Orphan_range_locked
	DD	00H
	DQ	FLAT:?_Orphan_range_locked@?$vector@Vthread@std@@V?$allocator@Vthread@std@@@2@@std@@AEBAXPEAVthread@2@0@Z$rtcVarDesc
CONST	ENDS
;	COMDAT xdata
xdata	SEGMENT
$unwind$?_Orphan_range_unlocked@?$vector@Vthread@std@@V?$allocator@Vthread@std@@@2@@std@@AEBAXPEAVthread@2@0@Z DD 025051d01H
	DD	0118231dH
	DD	070110029H
	DD	05010H
xdata	ENDS
;	COMDAT xdata
xdata	SEGMENT
$unwind$?_Xlength@?$vector@Vthread@std@@V?$allocator@Vthread@std@@@2@@std@@CAXXZ DD 025050f01H
	DD	010a230fH
	DD	07003001dH
	DD	05002H
xdata	ENDS
;	COMDAT xdata
xdata	SEGMENT
$ip2state$?_Tidy@?$vector@Vthread@std@@V?$allocator@Vthread@std@@@2@@std@@AEAAXXZ DB 02H
	DB	00H
	DB	00H
xdata	ENDS
;	COMDAT xdata
xdata	SEGMENT
$cppxdata$?_Tidy@?$vector@Vthread@std@@V?$allocator@Vthread@std@@@2@@std@@AEAAXXZ DB 060H
	DD	imagerel $ip2state$?_Tidy@?$vector@Vthread@std@@V?$allocator@Vthread@std@@@2@@std@@AEAAXXZ
xdata	ENDS
;	COMDAT xdata
xdata	SEGMENT
$unwind$?_Tidy@?$vector@Vthread@std@@V?$allocator@Vthread@std@@@2@@std@@AEAAXXZ DD 025051319H
	DD	010e2313H
	DD	070070031H
	DD	05006H
	DD	imagerel __CxxFrameHandler4
	DD	imagerel $cppxdata$?_Tidy@?$vector@Vthread@std@@V?$allocator@Vthread@std@@@2@@std@@AEAAXXZ
xdata	ENDS
;	COMDAT xdata
xdata	SEGMENT
$unwind$?_Change_array@?$vector@Vthread@std@@V?$allocator@Vthread@std@@@2@@std@@AEAAXQEAVthread@2@_K1@Z DD 025052201H
	DD	011d2322H
	DD	070160031H
	DD	05015H
xdata	ENDS
;	COMDAT xdata
xdata	SEGMENT
$unwind$?_Calculate_growth@?$vector@Vthread@std@@V?$allocator@Vthread@std@@@2@@std@@AEBA_K_K@Z DD 025051801H
	DD	01132318H
	DD	0700c0029H
	DD	0500bH
xdata	ENDS
;	COMDAT xdata
xdata	SEGMENT
$unwind$?capacity@?$vector@Vthread@std@@V?$allocator@Vthread@std@@@2@@std@@QEBA_KXZ DD 025051301H
	DD	010e2313H
	DD	070070021H
	DD	05006H
xdata	ENDS
;	COMDAT xdata
xdata	SEGMENT
$unwind$?max_size@?$vector@Vthread@std@@V?$allocator@Vthread@std@@@2@@std@@QEBA_KXZ DD 025051301H
	DD	010e2313H
	DD	070070025H
	DD	05006H
xdata	ENDS
;	COMDAT xdata
xdata	SEGMENT
$unwind$?_Unchecked_end@?$vector@Vthread@std@@V?$allocator@Vthread@std@@@2@@std@@QEAAPEAVthread@2@XZ DD 025051301H
	DD	010e2313H
	DD	07007001dH
	DD	05006H
xdata	ENDS
;	COMDAT xdata
xdata	SEGMENT
$unwind$?_Unchecked_begin@?$vector@Vthread@std@@V?$allocator@Vthread@std@@@2@@std@@QEAAPEAVthread@2@XZ DD 025051301H
	DD	010e2313H
	DD	07007001dH
	DD	05006H
xdata	ENDS
;	COMDAT voltbl
voltbl	SEGMENT
_volmd	DB	036H
	DB	0b2H
voltbl	ENDS
;	COMDAT xdata
xdata	SEGMENT
$unwind$??1?$vector@Vthread@std@@V?$allocator@Vthread@std@@@2@@std@@QEAA@XZ DD 025053d19H
	DD	010e2313H
	DD	070070029H
	DD	05006H
	DD	imagerel __GSHandlerCheck
	DD	0138H
xdata	ENDS
;	COMDAT CONST
CONST	SEGMENT
??1?$vector@Vthread@std@@V?$allocator@Vthread@std@@@2@@std@@QEAA@XZ$rtcName$0 DB 024H ; std::vector<std::thread,std::allocator<std::thread> >::~vector<std::thread,std::allocator<std::thread> >
	DB	053H
	DB	038H
	DB	00H
	ORG $+12
??1?$vector@Vthread@std@@V?$allocator@Vthread@std@@@2@@std@@QEAA@XZ$rtcVarDesc DD 044H ; std::vector<std::thread,std::allocator<std::thread> >::~vector<std::thread,std::allocator<std::thread> >
	DD	01H
	DQ	FLAT:??1?$vector@Vthread@std@@V?$allocator@Vthread@std@@@2@@std@@QEAA@XZ$rtcName$0
	ORG $+48
??1?$vector@Vthread@std@@V?$allocator@Vthread@std@@@2@@std@@QEAA@XZ$rtcFrameData DD 01H ; std::vector<std::thread,std::allocator<std::thread> >::~vector<std::thread,std::allocator<std::thread> >
	DD	00H
	DQ	FLAT:??1?$vector@Vthread@std@@V?$allocator@Vthread@std@@@2@@std@@QEAA@XZ$rtcVarDesc
CONST	ENDS
;	COMDAT xdata
xdata	SEGMENT
$ip2state$??0?$vector@Vthread@std@@V?$allocator@Vthread@std@@@2@@std@@QEAA@XZ DB 02H
	DB	00H
	DB	00H
xdata	ENDS
;	COMDAT xdata
xdata	SEGMENT
$cppxdata$??0?$vector@Vthread@std@@V?$allocator@Vthread@std@@@2@@std@@QEAA@XZ DB 060H
	DD	imagerel $ip2state$??0?$vector@Vthread@std@@V?$allocator@Vthread@std@@@2@@std@@QEAA@XZ
xdata	ENDS
;	COMDAT xdata
xdata	SEGMENT
$unwind$??0?$vector@Vthread@std@@V?$allocator@Vthread@std@@@2@@std@@QEAA@XZ DD 025051319H
	DD	010e2313H
	DD	070070025H
	DD	05006H
	DD	imagerel __CxxFrameHandler4
	DD	imagerel $cppxdata$??0?$vector@Vthread@std@@V?$allocator@Vthread@std@@@2@@std@@QEAA@XZ
xdata	ENDS
;	COMDAT xdata
xdata	SEGMENT
$unwind$?max_size@?$_Default_allocator_traits@V?$allocator@Vthread@std@@@std@@@std@@SA_KAEBV?$allocator@Vthread@std@@@2@@Z DD 025051301H
	DD	010e2313H
	DD	07007001dH
	DD	05006H
xdata	ENDS
;	COMDAT xdata
xdata	SEGMENT
$unwind$?allocate@?$allocator@Vthread@std@@@std@@QEAAPEAVthread@2@_K@Z DD 025051801H
	DD	01132318H
	DD	0700c001dH
	DD	0500bH
xdata	ENDS
;	COMDAT xdata
xdata	SEGMENT
$unwind$?deallocate@?$allocator@Vthread@std@@@std@@QEAAXQEAVthread@2@_K@Z DD 035051d01H
	DD	0118331dH
	DD	07011001fH
	DD	05010H
xdata	ENDS
;	COMDAT xdata
xdata	SEGMENT
$unwind$??0?$allocator@Vthread@std@@@std@@QEAA@XZ DD 025051301H
	DD	010e2313H
	DD	07007001dH
	DD	05006H
xdata	ENDS
;	COMDAT voltbl
voltbl	SEGMENT
_volmd	DB	00H
	DB	05H
voltbl	ENDS
;	COMDAT voltbl
voltbl	SEGMENT
_volmd	DB	00H
	DB	05H
voltbl	ENDS
;	COMDAT voltbl
voltbl	SEGMENT
_volmd	DB	03bH
	DB	0d5H
voltbl	ENDS
;	COMDAT xdata
xdata	SEGMENT
$unwind$?dtor$1@?0??enqueue@thread_pool@@QEAAXV?$function@$$A6AXXZ@std@@@Z@4HA DD 031001H
	DD	0700c4210H
	DD	0500bH
xdata	ENDS
;	COMDAT xdata
xdata	SEGMENT
$unwind$?dtor$0@?0??enqueue@thread_pool@@QEAAXV?$function@$$A6AXXZ@std@@@Z@4HA DD 031001H
	DD	0700c4210H
	DD	0500bH
xdata	ENDS
;	COMDAT xdata
xdata	SEGMENT
$ip2state$?enqueue@thread_pool@@QEAAXV?$function@$$A6AXXZ@std@@@Z DB 0aH
	DB	00H
	DB	00H
	DB	084H
	DB	02H
	DB	'd'
	DB	04H
	DB	'L'
	DB	02H
	DB	'>'
	DB	00H
xdata	ENDS
;	COMDAT xdata
xdata	SEGMENT
$stateUnwindMap$?enqueue@thread_pool@@QEAAXV?$function@$$A6AXXZ@std@@@Z DB 04H
	DB	0eH
	DD	imagerel ?dtor$0@?0??enqueue@thread_pool@@QEAAXV?$function@$$A6AXXZ@std@@@Z@4HA
	DB	02eH
	DD	imagerel ?dtor$1@?0??enqueue@thread_pool@@QEAAXV?$function@$$A6AXXZ@std@@@Z@4HA
xdata	ENDS
;	COMDAT xdata
xdata	SEGMENT
$cppxdata$?enqueue@thread_pool@@QEAAXV?$function@$$A6AXXZ@std@@@Z DB 028H
	DD	imagerel $stateUnwindMap$?enqueue@thread_pool@@QEAAXV?$function@$$A6AXXZ@std@@@Z
	DD	imagerel $ip2state$?enqueue@thread_pool@@QEAAXV?$function@$$A6AXXZ@std@@@Z
xdata	ENDS
;	COMDAT xdata
xdata	SEGMENT
$unwind$?enqueue@thread_pool@@QEAAXV?$function@$$A6AXXZ@std@@@Z DD 025054219H
	DD	01132318H
	DD	0700c0025H
	DD	0500bH
	DD	imagerel __GSHandlerCheck_EH4
	DD	imagerel $cppxdata$?enqueue@thread_pool@@QEAAXV?$function@$$A6AXXZ@std@@@Z
	DD	0112H
xdata	ENDS
;	COMDAT CONST
CONST	SEGMENT
?enqueue@thread_pool@@QEAAXV?$function@$$A6AXXZ@std@@@Z$rtcName$0 DB 06cH ; thread_pool::enqueue
	DB	06fH
	DB	063H
	DB	06bH
	DB	00H
	ORG $+11
?enqueue@thread_pool@@QEAAXV?$function@$$A6AXXZ@std@@@Z$rtcVarDesc DD 028H ; thread_pool::enqueue
	DD	010H
	DQ	FLAT:?enqueue@thread_pool@@QEAAXV?$function@$$A6AXXZ@std@@@Z$rtcName$0
	ORG $+48
?enqueue@thread_pool@@QEAAXV?$function@$$A6AXXZ@std@@@Z$rtcFrameData DD 01H ; thread_pool::enqueue
	DD	00H
	DQ	FLAT:?enqueue@thread_pool@@QEAAXV?$function@$$A6AXXZ@std@@@Z$rtcVarDesc
CONST	ENDS
;	COMDAT voltbl
voltbl	SEGMENT
_volmd	DW	036H
	DW	015eH
voltbl	ENDS
;	COMDAT xdata
xdata	SEGMENT
$ip2state$??1thread_pool@@QEAA@XZ DB 02H
	DB	00H
	DB	00H
xdata	ENDS
;	COMDAT xdata
xdata	SEGMENT
$cppxdata$??1thread_pool@@QEAA@XZ DB 060H
	DD	imagerel $ip2state$??1thread_pool@@QEAA@XZ
xdata	ENDS
;	COMDAT xdata
xdata	SEGMENT
$unwind$??1thread_pool@@QEAA@XZ DD 025053d19H
	DD	010e2313H
	DD	070070033H
	DD	05006H
	DD	imagerel __GSHandlerCheck_EH4
	DD	imagerel $cppxdata$??1thread_pool@@QEAA@XZ
	DD	018bH
xdata	ENDS
;	COMDAT CONST
CONST	SEGMENT
??1thread_pool@@QEAA@XZ$rtcName$0 DB 06cH		; thread_pool::~thread_pool
	DB	06fH
	DB	063H
	DB	06bH
	DB	00H
	ORG $+11
??1thread_pool@@QEAA@XZ$rtcVarDesc DD 028H		; thread_pool::~thread_pool
	DD	010H
	DQ	FLAT:??1thread_pool@@QEAA@XZ$rtcName$0
	ORG $+48
??1thread_pool@@QEAA@XZ$rtcFrameData DD 01H		; thread_pool::~thread_pool
	DD	00H
	DQ	FLAT:??1thread_pool@@QEAA@XZ$rtcVarDesc
CONST	ENDS
;	COMDAT voltbl
voltbl	SEGMENT
_volmd	DB	00H
	DB	05H
voltbl	ENDS
;	COMDAT voltbl
voltbl	SEGMENT
_volmd	DB	00H
	DB	05H
voltbl	ENDS
;	COMDAT voltbl
voltbl	SEGMENT
_volmd	DB	00H
	DB	05H
voltbl	ENDS
;	COMDAT voltbl
voltbl	SEGMENT
_volmd	DB	00H
	DB	05H
voltbl	ENDS
;	COMDAT xdata
xdata	SEGMENT
$unwind$?dtor$3@?0???0thread_pool@@QEAA@_K@Z@4HA DD 031001H
	DD	0700c4210H
	DD	0500bH
xdata	ENDS
;	COMDAT xdata
xdata	SEGMENT
$unwind$?dtor$2@?0???0thread_pool@@QEAA@_K@Z@4HA DD 031001H
	DD	0700c4210H
	DD	0500bH
xdata	ENDS
;	COMDAT xdata
xdata	SEGMENT
$unwind$?dtor$1@?0???0thread_pool@@QEAA@_K@Z@4HA DD 031001H
	DD	0700c4210H
	DD	0500bH
xdata	ENDS
;	COMDAT xdata
xdata	SEGMENT
$unwind$?dtor$0@?0???0thread_pool@@QEAA@_K@Z@4HA DD 031001H
	DD	0700c4210H
	DD	0500bH
xdata	ENDS
;	COMDAT xdata
xdata	SEGMENT
$ip2state$??0thread_pool@@QEAA@_K@Z DB 0cH
	DB	00H
	DB	00H
	DB	'h'
	DB	02H
	DB	'('
	DB	04H
	DB	'('
	DB	06H
	DB	','
	DB	08H
	DB	0c4H
	DB	00H
xdata	ENDS
;	COMDAT xdata
xdata	SEGMENT
$stateUnwindMap$??0thread_pool@@QEAA@_K@Z DB 08H
	DB	0eH
	DD	imagerel ?dtor$0@?0???0thread_pool@@QEAA@_K@Z@4HA
	DB	02eH
	DD	imagerel ?dtor$1@?0???0thread_pool@@QEAA@_K@Z@4HA
	DB	02eH
	DD	imagerel ?dtor$2@?0???0thread_pool@@QEAA@_K@Z@4HA
	DB	02eH
	DD	imagerel ?dtor$3@?0???0thread_pool@@QEAA@_K@Z@4HA
xdata	ENDS
;	COMDAT xdata
xdata	SEGMENT
$cppxdata$??0thread_pool@@QEAA@_K@Z DB 028H
	DD	imagerel $stateUnwindMap$??0thread_pool@@QEAA@_K@Z
	DD	imagerel $ip2state$??0thread_pool@@QEAA@_K@Z
xdata	ENDS
;	COMDAT xdata
xdata	SEGMENT
$unwind$??0thread_pool@@QEAA@_K@Z DD 025051811H
	DD	01132318H
	DD	0700c0025H
	DD	0500bH
	DD	imagerel __CxxFrameHandler4
	DD	imagerel $cppxdata$??0thread_pool@@QEAA@_K@Z
xdata	ENDS
;	COMDAT xdata
xdata	SEGMENT
$unwind$?__autoclassinit2@?$unique_lock@Vmutex@std@@@std@@QEAAX_K@Z DD 05051601H
	DD	01130316H
	DD	0700c0019H
	DD	0500bH
xdata	ENDS
;	COMDAT xdata
xdata	SEGMENT
$unwind$?mutex@?$unique_lock@Vmutex@std@@@std@@QEBAPEAV02@XZ DD 025051301H
	DD	010e2313H
	DD	07007001dH
	DD	05006H
xdata	ENDS
;	COMDAT xdata
xdata	SEGMENT
$unwind$??1?$unique_lock@Vmutex@std@@@std@@QEAA@XZ DD 025051301H
	DD	010e2313H
	DD	07007001dH
	DD	05006H
xdata	ENDS
;	COMDAT xdata
xdata	SEGMENT
$unwind$??0?$unique_lock@Vmutex@std@@@std@@QEAA@AEAVmutex@1@@Z DD 025051801H
	DD	01132318H
	DD	0700c001dH
	DD	0500bH
xdata	ENDS
;	COMDAT xdata
xdata	SEGMENT
$unwind$?_Mycnd@condition_variable@std@@AEAAPEAU_Cnd_internal_imp_t@@XZ DD 025051301H
	DD	010e2313H
	DD	07007001dH
	DD	05006H
xdata	ENDS
;	COMDAT xdata
xdata	SEGMENT
$unwind$?wait@condition_variable@std@@QEAAXAEAV?$unique_lock@Vmutex@std@@@2@@Z DD 025051801H
	DD	01132318H
	DD	0700c001fH
	DD	0500bH
xdata	ENDS
;	COMDAT xdata
xdata	SEGMENT
$unwind$?notify_all@condition_variable@std@@QEAAXXZ DD 025051301H
	DD	010e2313H
	DD	07007001dH
	DD	05006H
xdata	ENDS
;	COMDAT xdata
xdata	SEGMENT
$unwind$?notify_one@condition_variable@std@@QEAAXXZ DD 025051301H
	DD	010e2313H
	DD	07007001dH
	DD	05006H
xdata	ENDS
;	COMDAT xdata
xdata	SEGMENT
$unwind$??1condition_variable@std@@QEAA@XZ DD 025051301H
	DD	010e2313H
	DD	07007001dH
	DD	05006H
xdata	ENDS
;	COMDAT xdata
xdata	SEGMENT
$unwind$??0condition_variable@std@@QEAA@XZ DD 025051301H
	DD	010e2313H
	DD	07007001dH
	DD	05006H
xdata	ENDS
;	COMDAT xdata
xdata	SEGMENT
$unwind$??1mutex@std@@QEAA@XZ DD 025051301H
	DD	010e2313H
	DD	07007001dH
	DD	05006H
xdata	ENDS
;	COMDAT xdata
xdata	SEGMENT
$unwind$??0mutex@std@@QEAA@XZ DD 025051301H
	DD	010e2313H
	DD	07007001dH
	DD	05006H
xdata	ENDS
;	COMDAT xdata
xdata	SEGMENT
$unwind$?_Mymtx@_Mutex_base@std@@AEAAPEAU_Mtx_internal_imp_t@@XZ DD 025051301H
	DD	010e2313H
	DD	07007001dH
	DD	05006H
xdata	ENDS
;	COMDAT xdata
xdata	SEGMENT
$unwind$?_Verify_ownership_levels@_Mutex_base@std@@IEAA_NXZ DD 025051301H
	DD	010e2313H
	DD	07007001dH
	DD	05006H
xdata	ENDS
;	COMDAT xdata
xdata	SEGMENT
$unwind$?unlock@_Mutex_base@std@@QEAAXXZ DD 025051301H
	DD	010e2313H
	DD	07007001dH
	DD	05006H
xdata	ENDS
;	COMDAT xdata
xdata	SEGMENT
$unwind$?lock@_Mutex_base@std@@QEAAXXZ DD 025051301H
	DD	010e2313H
	DD	07007001dH
	DD	05006H
xdata	ENDS
;	COMDAT xdata
xdata	SEGMENT
$unwind$??1_Mutex_base@std@@QEAA@XZ DD 025051301H
	DD	010e2313H
	DD	07007001dH
	DD	05006H
xdata	ENDS
;	COMDAT xdata
xdata	SEGMENT
$unwind$??0_Mutex_base@std@@QEAA@H@Z DD 025051701H
	DD	01122317H
	DD	0700b001fH
	DD	0500aH
xdata	ENDS
;	COMDAT xdata
xdata	SEGMENT
$unwind$??$exchange@U_Thrd_t@@U1@@std@@YA?AU_Thrd_t@@AEAU1@$$QEAU1@@Z DD 025063701H
	DD	0119231eH
	DD	070120022H
	DD	050106011H
xdata	ENDS
;	COMDAT CONST
CONST	SEGMENT
??$exchange@U_Thrd_t@@U1@@std@@YA?AU_Thrd_t@@AEAU1@$$QEAU1@@Z$rtcName$0 DB 05fH ; std::exchange<_Thrd_t,_Thrd_t>
	DB	04fH
	DB	06cH
	DB	064H
	DB	05fH
	DB	076H
	DB	061H
	DB	06cH
	DB	00H
	ORG $+7
??$exchange@U_Thrd_t@@U1@@std@@YA?AU_Thrd_t@@AEAU1@$$QEAU1@@Z$rtcVarDesc DD 028H ; std::exchange<_Thrd_t,_Thrd_t>
	DD	010H
	DQ	FLAT:??$exchange@U_Thrd_t@@U1@@std@@YA?AU_Thrd_t@@AEAU1@$$QEAU1@@Z$rtcName$0
	ORG $+48
??$exchange@U_Thrd_t@@U1@@std@@YA?AU_Thrd_t@@AEAU1@$$QEAU1@@Z$rtcFrameData DD 01H ; std::exchange<_Thrd_t,_Thrd_t>
	DD	00H
	DQ	FLAT:??$exchange@U_Thrd_t@@U1@@std@@YA?AU_Thrd_t@@AEAU1@$$QEAU1@@Z$rtcVarDesc
CONST	ENDS
;	COMDAT xdata
xdata	SEGMENT
$unwind$??_Gthread@std@@QEAAPEAXI@Z DD 025051701H
	DD	01122317H
	DD	0700b001dH
	DD	0500aH
xdata	ENDS
;	COMDAT xdata
xdata	SEGMENT
$unwind$?join@thread@std@@QEAAXXZ DD 025061401H
	DD	010f2314H
	DD	070080028H
	DD	050066007H
xdata	ENDS
;	COMDAT xdata
xdata	SEGMENT
$unwind$?joinable@thread@std@@QEBA_NXZ DD 025051301H
	DD	010e2313H
	DD	07007001fH
	DD	05006H
xdata	ENDS
;	COMDAT xdata
xdata	SEGMENT
$unwind$??0thread@std@@QEAA@$$QEAV01@@Z DD 025061901H
	DD	01142319H
	DD	0700d0028H
	DD	0500b600cH
xdata	ENDS
;	COMDAT xdata
xdata	SEGMENT
$unwind$??1thread@std@@QEAA@XZ DD 025051301H
	DD	010e2313H
	DD	07007001dH
	DD	05006H
xdata	ENDS
;	COMDAT xdata
xdata	SEGMENT
$unwind$??$_Getvals@_W@?$time_get@_WV?$istreambuf_iterator@_WU?$char_traits@_W@std@@@std@@@std@@IEAAX_WAEBV_Locinfo@1@@Z DD 025061e01H
	DD	0119231eH
	DD	070120026H
	DD	050106011H
xdata	ENDS
;	COMDAT xdata
xdata	SEGMENT
$unwind$??$_Getvals@_W@?$time_get@DV?$istreambuf_iterator@DU?$char_traits@D@std@@@std@@@std@@IEAAX_WAEBV_Locinfo@1@@Z DD 025061e01H
	DD	0119231eH
	DD	070120026H
	DD	050106011H
xdata	ENDS
;	COMDAT xdata
xdata	SEGMENT
$unwind$??$_Maklocstr@D@std@@YAPEADPEBDPEADAEBU_Cvtvec@@@Z DD 035051d01H
	DD	0118331dH
	DD	07011002bH
	DD	05010H
xdata	ENDS
;	COMDAT xdata
xdata	SEGMENT
$unwind$?_Maklocwcs@std@@YAPEA_WPEB_W@Z DD 035051301H
	DD	010e3313H
	DD	070070027H
	DD	05006H
xdata	ENDS
;	COMDAT voltbl
voltbl	SEGMENT
_volmd	DW	040H
	DW	0231H
voltbl	ENDS
;	COMDAT xdata
xdata	SEGMENT
$unwind$??$_Maklocstr@_W@std@@YAPEA_WPEBDPEA_WAEBU_Cvtvec@@@Z DD 035054719H
	DD	0118331dH
	DD	070110047H
	DD	05010H
	DD	imagerel __GSHandlerCheck
	DD	0228H
xdata	ENDS
;	COMDAT CONST
CONST	SEGMENT
??$_Maklocstr@_W@std@@YAPEA_WPEBDPEA_WAEBU_Cvtvec@@@Z$rtcName$0 DB 05fH ; std::_Maklocstr<wchar_t>
	DB	057H
	DB	063H
	DB	00H
??$_Maklocstr@_W@std@@YAPEA_WPEBDPEA_WAEBU_Cvtvec@@@Z$rtcName$1 DB 05fH ; std::_Maklocstr<wchar_t>
	DB	04dH
	DB	062H
	DB	073H
	DB	074H
	DB	031H
	DB	00H
	ORG $+1
??$_Maklocstr@_W@std@@YAPEA_WPEBDPEA_WAEBU_Cvtvec@@@Z$rtcName$2 DB 05fH ; std::_Maklocstr<wchar_t>
	DB	04dH
	DB	062H
	DB	073H
	DB	074H
	DB	032H
	DB	00H
	ORG $+13
??$_Maklocstr@_W@std@@YAPEA_WPEBDPEA_WAEBU_Cvtvec@@@Z$rtcVarDesc DD 0158H ; std::_Maklocstr<wchar_t>
	DD	08H
	DQ	FLAT:??$_Maklocstr@_W@std@@YAPEA_WPEBDPEA_WAEBU_Cvtvec@@@Z$rtcName$2
	DD	0f8H
	DD	08H
	DQ	FLAT:??$_Maklocstr@_W@std@@YAPEA_WPEBDPEA_WAEBU_Cvtvec@@@Z$rtcName$1
	DD	0d4H
	DD	02H
	DQ	FLAT:??$_Maklocstr@_W@std@@YAPEA_WPEBDPEA_WAEBU_Cvtvec@@@Z$rtcName$0
	ORG $+144
??$_Maklocstr@_W@std@@YAPEA_WPEBDPEA_WAEBU_Cvtvec@@@Z$rtcFrameData DD 03H ; std::_Maklocstr<wchar_t>
	DD	00H
	DQ	FLAT:??$_Maklocstr@_W@std@@YAPEA_WPEBDPEA_WAEBU_Cvtvec@@@Z$rtcVarDesc
CONST	ENDS
;	COMDAT xdata
xdata	SEGMENT
$unwind$??$_Construct_in_place@U_Container_proxy@std@@PEAU_Container_base12@2@@std@@YAXAEAU_Container_proxy@0@$$QEAPEAU_Container_base12@0@@Z DD 025051801H
	DD	01132318H
	DD	0700c0021H
	DD	0500bH
xdata	ENDS
;	COMDAT xdata
xdata	SEGMENT
$unwind$??$exchange@PEAU_Iterator_base12@std@@$$T@std@@YAPEAU_Iterator_base12@0@AEAPEAU10@$$QEA$$T@Z DD 025051801H
	DD	01132318H
	DD	0700c0021H
	DD	0500bH
xdata	ENDS
;	COMDAT voltbl
voltbl	SEGMENT
_volmd	DB	036H
	DB	07eH
voltbl	ENDS
;	COMDAT xdata
xdata	SEGMENT
$unwind$?_Orphan_all_locked_v3@_Container_base12@std@@AEAAXXZ DD 025053d19H
	DD	010e2313H
	DD	070070021H
	DD	05006H
	DD	imagerel __GSHandlerCheck
	DD	0f8H
xdata	ENDS
;	COMDAT CONST
CONST	SEGMENT
?_Orphan_all_locked_v3@_Container_base12@std@@AEAAXXZ$rtcName$0 DB 05fH ; std::_Container_base12::_Orphan_all_locked_v3
	DB	04cH
	DB	06fH
	DB	063H
	DB	06bH
	DB	00H
	ORG $+10
?_Orphan_all_locked_v3@_Container_base12@std@@AEAAXXZ$rtcVarDesc DD 024H ; std::_Container_base12::_Orphan_all_locked_v3
	DD	04H
	DQ	FLAT:?_Orphan_all_locked_v3@_Container_base12@std@@AEAAXXZ$rtcName$0
	ORG $+48
?_Orphan_all_locked_v3@_Container_base12@std@@AEAAXXZ$rtcFrameData DD 01H ; std::_Container_base12::_Orphan_all_locked_v3
	DD	00H
	DQ	FLAT:?_Orphan_all_locked_v3@_Container_base12@std@@AEAAXXZ$rtcVarDesc
CONST	ENDS
;	COMDAT xdata
xdata	SEGMENT
$unwind$?_Orphan_all_unlocked_v3@_Container_base12@std@@AEAAXXZ DD 025051301H
	DD	010e2313H
	DD	070070025H
	DD	05006H
xdata	ENDS
;	COMDAT xdata
xdata	SEGMENT
$unwind$?_Orphan_all@_Container_base12@std@@QEAAXXZ DD 025051301H
	DD	010e2313H
	DD	07007001dH
	DD	05006H
xdata	ENDS
;	COMDAT xdata
xdata	SEGMENT
$unwind$??0_Container_base12@std@@QEAA@XZ DD 025051301H
	DD	010e2313H
	DD	07007001dH
	DD	05006H
xdata	ENDS
;	COMDAT xdata
xdata	SEGMENT
$unwind$??0_Container_proxy@std@@QEAA@PEAU_Container_base12@1@@Z DD 025051801H
	DD	01132318H
	DD	0700c001dH
	DD	0500bH
xdata	ENDS
;	COMDAT xdata
xdata	SEGMENT
$unwind$?_Adjust_manually_vector_aligned@std@@YAXAEAPEAXAEA_K@Z DD 035051801H
	DD	01133318H
	DD	0700c002fH
	DD	0500bH
xdata	ENDS
;	COMDAT xdata
xdata	SEGMENT
$unwind$?_Allocate@_Default_allocate_traits@std@@SAPEAX_K@Z DD 025051301H
	DD	010e2313H
	DD	07007001dH
	DD	05006H
xdata	ENDS
;	COMDAT xdata
xdata	SEGMENT
$unwind$?max@?$numeric_limits@_J@std@@SA_JXZ DD 025050f01H
	DD	010a230fH
	DD	07003001dH
	DD	05002H
xdata	ENDS
;	COMDAT xdata
xdata	SEGMENT
$unwind$wmemcpy DD 025051d01H
	DD	0118231dH
	DD	07011001dH
	DD	05010H
xdata	ENDS
;	COMDAT xdata
xdata	SEGMENT
$unwind$?_Throw_bad_array_new_length@std@@YAXXZ DD 025050f01H
	DD	010a230fH
	DD	070030023H
	DD	05002H
xdata	ENDS
;	COMDAT xdata
xdata	SEGMENT
$unwind$??_Gbad_array_new_length@std@@UEAAPEAXI@Z DD 025051701H
	DD	01122317H
	DD	0700b001dH
	DD	0500aH
xdata	ENDS
;	COMDAT xdata
xdata	SEGMENT
$unwind$??0bad_array_new_length@std@@QEAA@AEBV01@@Z DD 025051801H
	DD	01132318H
	DD	0700c001dH
	DD	0500bH
xdata	ENDS
;	COMDAT xdata
xdata	SEGMENT
$unwind$??1bad_array_new_length@std@@UEAA@XZ DD 025051301H
	DD	010e2313H
	DD	07007001dH
	DD	05006H
xdata	ENDS
;	COMDAT xdata
xdata	SEGMENT
$unwind$??0bad_array_new_length@std@@QEAA@XZ DD 025051301H
	DD	010e2313H
	DD	07007001dH
	DD	05006H
xdata	ENDS
;	COMDAT xdata
xdata	SEGMENT
$unwind$??_Gbad_alloc@std@@UEAAPEAXI@Z DD 025051701H
	DD	01122317H
	DD	0700b001dH
	DD	0500aH
xdata	ENDS
;	COMDAT xdata
xdata	SEGMENT
$unwind$??0bad_alloc@std@@QEAA@AEBV01@@Z DD 025051801H
	DD	01132318H
	DD	0700c001dH
	DD	0500bH
xdata	ENDS
;	COMDAT xdata
xdata	SEGMENT
$unwind$??1bad_alloc@std@@UEAA@XZ DD 025051301H
	DD	010e2313H
	DD	07007001dH
	DD	05006H
xdata	ENDS
;	COMDAT xdata
xdata	SEGMENT
$unwind$??0bad_alloc@std@@AEAA@QEBD@Z DD 025051801H
	DD	01132318H
	DD	0700c001dH
	DD	0500bH
xdata	ENDS
;	COMDAT xdata
xdata	SEGMENT
$unwind$??_Gexception@std@@UEAAPEAXI@Z DD 025051701H
	DD	01122317H
	DD	0700b001dH
	DD	0500aH
xdata	ENDS
;	COMDAT xdata
xdata	SEGMENT
$unwind$?what@exception@std@@UEBAPEBDXZ DD 025051301H
	DD	010e2313H
	DD	07007001fH
	DD	05006H
xdata	ENDS
;	COMDAT xdata
xdata	SEGMENT
$unwind$??1exception@std@@UEAA@XZ DD 025051301H
	DD	010e2313H
	DD	07007001dH
	DD	05006H
xdata	ENDS
;	COMDAT xdata
xdata	SEGMENT
$unwind$??0exception@std@@QEAA@AEBV01@@Z DD 025051801H
	DD	01132318H
	DD	0700c001dH
	DD	0500bH
xdata	ENDS
;	COMDAT xdata
xdata	SEGMENT
$unwind$??0exception@std@@QEAA@QEBDH@Z DD 025051d01H
	DD	0118231dH
	DD	07011001dH
	DD	05010H
xdata	ENDS
;	COMDAT xdata
xdata	SEGMENT
$unwind$?is_constant_evaluated@std@@YA_NXZ DD 025050f01H
	DD	010a230fH
	DD	07003001dH
	DD	05002H
xdata	ENDS
;	COMDAT xdata
xdata	SEGMENT
$unwind$??2@YAPEAX_KPEAX@Z DD 025051801H
	DD	01132318H
	DD	0700c001dH
	DD	0500bH
xdata	ENDS
;	COMDAT xdata
xdata	SEGMENT
$unwind$?__empty_global_delete@@YAXPEAX_KW4align_val_t@std@@@Z DD 025051d01H
	DD	0118231dH
	DD	07011001dH
	DD	05010H
xdata	ENDS
;	COMDAT xdata
xdata	SEGMENT
$unwind$?__empty_global_delete@@YAXPEAXW4align_val_t@std@@@Z DD 025051801H
	DD	01132318H
	DD	0700c001dH
	DD	0500bH
xdata	ENDS
;	COMDAT xdata
xdata	SEGMENT
$unwind$?__empty_global_delete@@YAXPEAX_K@Z DD 025051801H
	DD	01132318H
	DD	0700c001dH
	DD	0500bH
xdata	ENDS
;	COMDAT xdata
xdata	SEGMENT
$unwind$?__empty_global_delete@@YAXPEAX@Z DD 025051301H
	DD	010e2313H
	DD	07007001dH
	DD	05006H
xdata	ENDS
; Function compile flags: /Odt
;	COMDAT __JustMyCode_Default
_TEXT	SEGMENT
__JustMyCode_Default PROC				; COMDAT
	ret	0
__JustMyCode_Default ENDP
_TEXT	ENDS
; Function compile flags: /Odtp /RTCsu /ZI
; File C:\Program Files\Microsoft Visual Studio\2022\Community\VC\Tools\MSVC\14.38.33130\include\tuple
;	COMDAT ??$?0V<lambda_1>@?3???0thread_pool@@QEAA@_K@Z@@?$_Tuple_val@V<lambda_1>@?3???0thread_pool@@QEAA@_K@Z@@std@@QEAA@$$QEAV<lambda_1>@?3???0thread_pool@@QEAA@_K@Z@@Z
_TEXT	SEGMENT
this$ = 224
_Arg$ = 232
??$?0V<lambda_1>@?3???0thread_pool@@QEAA@_K@Z@@?$_Tuple_val@V<lambda_1>@?3???0thread_pool@@QEAA@_K@Z@@std@@QEAA@$$QEAV<lambda_1>@?3???0thread_pool@@QEAA@_K@Z@@Z PROC ; std::_Tuple_val<`thread_pool::thread_pool'::`4'::<lambda_1> >::_Tuple_val<`thread_pool::thread_pool'::`4'::<lambda_1> ><`thread_pool::thread_pool'::`4'::<lambda_1> >, COMDAT

; 143  :     constexpr _Tuple_val(_Other&& _Arg) : _Val(_STD forward<_Other>(_Arg)) {}

	mov	QWORD PTR [rsp+16], rdx
	mov	QWORD PTR [rsp+8], rcx
	push	rbp
	push	rdi
	sub	rsp, 232				; 000000e8H
	lea	rbp, QWORD PTR [rsp+32]
	lea	rcx, OFFSET FLAT:__19EA4BD2_tuple
	call	__CheckForDebuggerJustMyCode
	mov	rax, QWORD PTR _Arg$[rbp]
	mov	rax, QWORD PTR [rax]
	mov	rcx, QWORD PTR this$[rbp]
	mov	QWORD PTR [rcx], rax
	mov	rax, QWORD PTR this$[rbp]
	lea	rsp, QWORD PTR [rbp+200]
	pop	rdi
	pop	rbp
	ret	0
??$?0V<lambda_1>@?3???0thread_pool@@QEAA@_K@Z@@?$_Tuple_val@V<lambda_1>@?3???0thread_pool@@QEAA@_K@Z@@std@@QEAA@$$QEAV<lambda_1>@?3???0thread_pool@@QEAA@_K@Z@@Z ENDP ; std::_Tuple_val<`thread_pool::thread_pool'::`4'::<lambda_1> >::_Tuple_val<`thread_pool::thread_pool'::`4'::<lambda_1> ><`thread_pool::thread_pool'::`4'::<lambda_1> >
_TEXT	ENDS
; Function compile flags: /Odtp /RTCsu /ZI
; File C:\Program Files\Microsoft Visual Studio\2022\Community\VC\Tools\MSVC\14.38.33130\include\xmemory
;	COMDAT ??$?0AEAPEAV?$tuple@V<lambda_1>@?3???0thread_pool@@QEAA@_K@Z@@std@@@?$_Compressed_pair@U?$default_delete@V?$tuple@V<lambda_1>@?3???0thread_pool@@QEAA@_K@Z@@std@@@std@@PEAV?$tuple@V<lambda_1>@?3???0thread_pool@@QEAA@_K@Z@@2@$00@std@@QEAA@U_Zero_then_variadic_args_t@1@AEAPEAV?$tuple@V<lambda_1>@?3???0thread_pool@@QEAA@_K@Z@@1@@Z
_TEXT	SEGMENT
this$ = 224
__formal$ = 232
<_Val2_0>$ = 240
??$?0AEAPEAV?$tuple@V<lambda_1>@?3???0thread_pool@@QEAA@_K@Z@@std@@@?$_Compressed_pair@U?$default_delete@V?$tuple@V<lambda_1>@?3???0thread_pool@@QEAA@_K@Z@@std@@@std@@PEAV?$tuple@V<lambda_1>@?3???0thread_pool@@QEAA@_K@Z@@2@$00@std@@QEAA@U_Zero_then_variadic_args_t@1@AEAPEAV?$tuple@V<lambda_1>@?3???0thread_pool@@QEAA@_K@Z@@1@@Z PROC ; std::_Compressed_pair<std::default_delete<std::tuple<`thread_pool::thread_pool'::`4'::<lambda_1> > >,std::tuple<`thread_pool::thread_pool'::`4'::<lambda_1> > *,1>::_Compressed_pair<std::default_delete<std::tuple<`thread_pool::thread_pool'::`4'::<lambda_1> > >,std::tuple<`thread_pool::thread_pool'::`4'::<lambda_1> > *,1><std::tuple<`thread_pool::thread_pool'::`4'::<lambda_1> > * &>, COMDAT

; 1519 :         : _Ty1(), _Myval2(_STD forward<_Other2>(_Val2)...) {}

	mov	QWORD PTR [rsp+24], r8
	mov	BYTE PTR [rsp+16], dl
	mov	QWORD PTR [rsp+8], rcx
	push	rbp
	push	rdi
	sub	rsp, 232				; 000000e8H
	lea	rbp, QWORD PTR [rsp+32]
	lea	rcx, OFFSET FLAT:__53DEE440_xmemory
	call	__CheckForDebuggerJustMyCode
	mov	rax, QWORD PTR this$[rbp]
	mov	rcx, QWORD PTR <_Val2_0>$[rbp]
	mov	rcx, QWORD PTR [rcx]
	mov	QWORD PTR [rax], rcx
	mov	rax, QWORD PTR this$[rbp]
	lea	rsp, QWORD PTR [rbp+200]
	pop	rdi
	pop	rbp
	ret	0
??$?0AEAPEAV?$tuple@V<lambda_1>@?3???0thread_pool@@QEAA@_K@Z@@std@@@?$_Compressed_pair@U?$default_delete@V?$tuple@V<lambda_1>@?3???0thread_pool@@QEAA@_K@Z@@std@@@std@@PEAV?$tuple@V<lambda_1>@?3???0thread_pool@@QEAA@_K@Z@@2@$00@std@@QEAA@U_Zero_then_variadic_args_t@1@AEAPEAV?$tuple@V<lambda_1>@?3???0thread_pool@@QEAA@_K@Z@@1@@Z ENDP ; std::_Compressed_pair<std::default_delete<std::tuple<`thread_pool::thread_pool'::`4'::<lambda_1> > >,std::tuple<`thread_pool::thread_pool'::`4'::<lambda_1> > *,1>::_Compressed_pair<std::default_delete<std::tuple<`thread_pool::thread_pool'::`4'::<lambda_1> > >,std::tuple<`thread_pool::thread_pool'::`4'::<lambda_1> > *,1><std::tuple<`thread_pool::thread_pool'::`4'::<lambda_1> > * &>
_TEXT	ENDS
; Function compile flags: /Odtp /RTCsu /ZI
; File C:\Program Files\Microsoft Visual Studio\2022\Community\VC\Tools\MSVC\14.38.33130\include\tuple
;	COMDAT ??$?0U_Exact_args_t@std@@V<lambda_1>@?3???0thread_pool@@QEAA@_K@Z@$$V$0A@@?$tuple@V<lambda_1>@?3???0thread_pool@@QEAA@_K@Z@@std@@QEAA@U_Exact_args_t@1@$$QEAV<lambda_1>@?3???0thread_pool@@QEAA@_K@Z@@Z
_TEXT	SEGMENT
$T1 = 196
tv75 = 216
this$ = 256
__formal$ = 264
_This_arg$ = 272
??$?0U_Exact_args_t@std@@V<lambda_1>@?3???0thread_pool@@QEAA@_K@Z@$$V$0A@@?$tuple@V<lambda_1>@?3???0thread_pool@@QEAA@_K@Z@@std@@QEAA@U_Exact_args_t@1@$$QEAV<lambda_1>@?3???0thread_pool@@QEAA@_K@Z@@Z PROC ; std::tuple<`thread_pool::thread_pool'::`4'::<lambda_1> >::tuple<`thread_pool::thread_pool'::`4'::<lambda_1> ><std::_Exact_args_t,`thread_pool::thread_pool'::`4'::<lambda_1>,0>, COMDAT

; 315  :         : _Mybase(_Exact_args_t{}, _STD forward<_Rest2>(_Rest_arg)...), _Myfirst(_STD forward<_This2>(_This_arg)) {}

	mov	QWORD PTR [rsp+24], r8
	mov	BYTE PTR [rsp+16], dl
	mov	QWORD PTR [rsp+8], rcx
	push	rbp
	push	rdi
	sub	rsp, 264				; 00000108H
	lea	rbp, QWORD PTR [rsp+32]
	lea	rcx, OFFSET FLAT:__19EA4BD2_tuple
	call	__CheckForDebuggerJustMyCode
	movzx	edx, BYTE PTR $T1[rbp]
	mov	rcx, QWORD PTR this$[rbp]
	call	??$?0U_Exact_args_t@std@@$0A@@?$tuple@$$V@std@@QEAA@U_Exact_args_t@1@@Z ; std::tuple<>::tuple<><std::_Exact_args_t,0>
	mov	rax, QWORD PTR this$[rbp]
	mov	QWORD PTR tv75[rbp], rax
	mov	rdx, QWORD PTR _This_arg$[rbp]
	mov	rcx, QWORD PTR tv75[rbp]
	call	??$?0V<lambda_1>@?3???0thread_pool@@QEAA@_K@Z@@?$_Tuple_val@V<lambda_1>@?3???0thread_pool@@QEAA@_K@Z@@std@@QEAA@$$QEAV<lambda_1>@?3???0thread_pool@@QEAA@_K@Z@@Z ; std::_Tuple_val<`thread_pool::thread_pool'::`4'::<lambda_1> >::_Tuple_val<`thread_pool::thread_pool'::`4'::<lambda_1> ><`thread_pool::thread_pool'::`4'::<lambda_1> >
	mov	rax, QWORD PTR this$[rbp]
	lea	rsp, QWORD PTR [rbp+232]
	pop	rdi
	pop	rbp
	ret	0
??$?0U_Exact_args_t@std@@V<lambda_1>@?3???0thread_pool@@QEAA@_K@Z@$$V$0A@@?$tuple@V<lambda_1>@?3???0thread_pool@@QEAA@_K@Z@@std@@QEAA@U_Exact_args_t@1@$$QEAV<lambda_1>@?3???0thread_pool@@QEAA@_K@Z@@Z ENDP ; std::tuple<`thread_pool::thread_pool'::`4'::<lambda_1> >::tuple<`thread_pool::thread_pool'::`4'::<lambda_1> ><std::_Exact_args_t,`thread_pool::thread_pool'::`4'::<lambda_1>,0>
_TEXT	ENDS
; Function compile flags: /Odtp /RTCsu /ZI
; File C:\Program Files\Microsoft Visual Studio\2022\Community\VC\Tools\MSVC\14.38.33130\include\type_traits
;	COMDAT ??$invoke@V<lambda_1>@?3???0thread_pool@@QEAA@_K@Z@@std@@YAX$$QEAV<lambda_1>@?3???0thread_pool@@QEAA@_K@Z@@Z
_TEXT	SEGMENT
_Obj$ = 224
??$invoke@V<lambda_1>@?3???0thread_pool@@QEAA@_K@Z@@std@@YAX$$QEAV<lambda_1>@?3???0thread_pool@@QEAA@_K@Z@@Z PROC ; std::invoke<`thread_pool::thread_pool'::`4'::<lambda_1> >, COMDAT

; 1730 :     -> decltype(static_cast<_Callable&&>(_Obj)()) {

	mov	QWORD PTR [rsp+8], rcx
	push	rbp
	push	rdi
	sub	rsp, 232				; 000000e8H
	lea	rbp, QWORD PTR [rsp+32]
	lea	rcx, OFFSET FLAT:__86E2ECA3_type_traits
	call	__CheckForDebuggerJustMyCode

; 1731 :     return static_cast<_Callable&&>(_Obj)();

	mov	rcx, QWORD PTR _Obj$[rbp]
	call	??R<lambda_1>@?3???0thread_pool@@QEAA@_K@Z@QEBA@XZ ; `thread_pool::thread_pool'::`4'::<lambda_1>::operator()

; 1732 : }

	lea	rsp, QWORD PTR [rbp+200]
	pop	rdi
	pop	rbp
	ret	0
??$invoke@V<lambda_1>@?3???0thread_pool@@QEAA@_K@Z@@std@@YAX$$QEAV<lambda_1>@?3???0thread_pool@@QEAA@_K@Z@@Z ENDP ; std::invoke<`thread_pool::thread_pool'::`4'::<lambda_1> >
_TEXT	ENDS
; Function compile flags: /Odtp /RTCsu /ZI
; File C:\Program Files\Microsoft Visual Studio\2022\Community\VC\Tools\MSVC\14.38.33130\include\tuple
;	COMDAT ??$get@$0A@V<lambda_1>@?3???0thread_pool@@QEAA@_K@Z@@std@@YAAEAV<lambda_1>@?3???0thread_pool@@QEAA@_K@Z@AEAV?$tuple@V<lambda_1>@?3???0thread_pool@@QEAA@_K@Z@@0@@Z
_TEXT	SEGMENT
_Tuple$ = 224
